
ghttpd:     file format elf32-i386

Disassembly of section .interp:

08048114 <.interp>:
 8048114:	2f                   	das    
 8048115:	6c                   	insb   (%dx),%es:(%edi)
 8048116:	69 62 2f 6c 64 2d 6c 	imul   $0x6c2d646c,0x2f(%edx),%esp
 804811d:	69 6e 75 78 2e 73 6f 	imul   $0x6f732e78,0x75(%esi),%ebp
 8048124:	2e 32 00             	xor    %cs:(%eax),%al
Disassembly of section .note.ABI-tag:

08048128 <.note.ABI-tag>:
 8048128:	04 00                	add    $0x0,%al
 804812a:	00 00                	add    %al,(%eax)
 804812c:	10 00                	adc    %al,(%eax)
 804812e:	00 00                	add    %al,(%eax)
 8048130:	01 00                	add    %eax,(%eax)
 8048132:	00 00                	add    %al,(%eax)
 8048134:	47                   	inc    %edi
 8048135:	4e                   	dec    %esi
 8048136:	55                   	push   %ebp
 8048137:	00 00                	add    %al,(%eax)
 8048139:	00 00                	add    %al,(%eax)
 804813b:	00 02                	add    %al,(%edx)
 804813d:	00 00                	add    %al,(%eax)
 804813f:	00 06                	add    %al,(%esi)
 8048141:	00 00                	add    %al,(%eax)
 8048143:	00 08                	add    %cl,(%eax)
 8048145:	00 00                	add    %al,(%eax)
	...
Disassembly of section .hash:

08048148 <.hash>:
 8048148:	25 00 00 00 42       	and    $0x42000000,%eax
 804814d:	00 00                	add    %al,(%eax)
 804814f:	00 34 00             	add    %dh,(%eax,%eax,1)
 8048152:	00 00                	add    %al,(%eax)
 8048154:	3b 00                	cmp    (%eax),%eax
 8048156:	00 00                	add    %al,(%eax)
 8048158:	36 00 00             	add    %al,%ss:(%eax)
 804815b:	00 00                	add    %al,(%eax)
 804815d:	00 00                	add    %al,(%eax)
 804815f:	00 3a                	add    %bh,(%edx)
 8048161:	00 00                	add    %al,(%eax)
 8048163:	00 00                	add    %al,(%eax)
 8048165:	00 00                	add    %al,(%eax)
 8048167:	00 0a                	add    %cl,(%edx)
 8048169:	00 00                	add    %al,(%eax)
 804816b:	00 00                	add    %al,(%eax)
 804816d:	00 00                	add    %al,(%eax)
 804816f:	00 3c 00             	add    %bh,(%eax,%eax,1)
 8048172:	00 00                	add    %al,(%eax)
 8048174:	21 00                	and    %eax,(%eax)
 8048176:	00 00                	add    %al,(%eax)
 8048178:	1c 00                	sbb    $0x0,%al
 804817a:	00 00                	add    %al,(%eax)
 804817c:	01 00                	add    %eax,(%eax)
	...
 8048186:	00 00                	add    %al,(%eax)
 8048188:	35 00 00 00 38       	xor    $0x38000000,%eax
 804818d:	00 00                	add    %al,(%eax)
 804818f:	00 28                	add    %ch,(%eax)
 8048191:	00 00                	add    %al,(%eax)
 8048193:	00 20                	add    %ah,(%eax)
 8048195:	00 00                	add    %al,(%eax)
 8048197:	00 31                	add    %dh,(%ecx)
 8048199:	00 00                	add    %al,(%eax)
 804819b:	00 02                	add    %al,(%edx)
 804819d:	00 00                	add    %al,(%eax)
 804819f:	00 25 00 00 00 22    	add    %ah,0x22000000
 80481a5:	00 00                	add    %al,(%eax)
 80481a7:	00 37                	add    %dh,(%edi)
 80481a9:	00 00                	add    %al,(%eax)
 80481ab:	00 33                	add    %dh,(%ebx)
	...
 80481b9:	00 00                	add    %al,(%eax)
 80481bb:	00 08                	add    %cl,(%eax)
 80481bd:	00 00                	add    %al,(%eax)
 80481bf:	00 41 00             	add    %al,0x0(%ecx)
 80481c2:	00 00                	add    %al,(%eax)
 80481c4:	3d 00 00 00 29       	cmp    $0x29000000,%eax
 80481c9:	00 00                	add    %al,(%eax)
 80481cb:	00 06                	add    %al,(%esi)
 80481cd:	00 00                	add    %al,(%eax)
 80481cf:	00 32                	add    %dh,(%edx)
 80481d1:	00 00                	add    %al,(%eax)
 80481d3:	00 30                	add    %dh,(%eax)
 80481d5:	00 00                	add    %al,(%eax)
 80481d7:	00 0e                	add    %cl,(%esi)
 80481d9:	00 00                	add    %al,(%eax)
 80481db:	00 2f                	add    %ch,(%edi)
 80481dd:	00 00                	add    %al,(%eax)
 80481df:	00 03                	add    %al,(%ebx)
	...
 8048215:	00 00                	add    %al,(%eax)
 8048217:	00 0c 00             	add    %cl,(%eax,%eax,1)
 804821a:	00 00                	add    %al,(%eax)
 804821c:	0d 00 00 00 00       	or     $0x0,%eax
	...
 804822d:	00 00                	add    %al,(%eax)
 804822f:	00 11                	add    %dl,(%ecx)
 8048231:	00 00                	add    %al,(%eax)
 8048233:	00 13                	add    %dl,(%ebx)
 8048235:	00 00                	add    %al,(%eax)
 8048237:	00 09                	add    %cl,(%ecx)
 8048239:	00 00                	add    %al,(%eax)
 804823b:	00 00                	add    %al,(%eax)
 804823d:	00 00                	add    %al,(%eax)
 804823f:	00 0f                	add    %cl,(%edi)
 8048241:	00 00                	add    %al,(%eax)
 8048243:	00 40 00             	add    %al,0x0(%eax)
	...
 804824e:	00 00                	add    %al,(%eax)
 8048250:	14 00                	adc    $0x0,%al
 8048252:	00 00                	add    %al,(%eax)
 8048254:	17                   	pop    %ss
 8048255:	00 00                	add    %al,(%eax)
 8048257:	00 04 00             	add    %al,(%eax,%eax,1)
 804825a:	00 00                	add    %al,(%eax)
 804825c:	00 00                	add    %al,(%eax)
 804825e:	00 00                	add    %al,(%eax)
 8048260:	12 00                	adc    (%eax),%al
	...
 804826a:	00 00                	add    %al,(%eax)
 804826c:	18 00                	sbb    %al,(%eax)
 804826e:	00 00                	add    %al,(%eax)
 8048270:	00 00                	add    %al,(%eax)
 8048272:	00 00                	add    %al,(%eax)
 8048274:	1b 00                	sbb    (%eax),%eax
 8048276:	00 00                	add    %al,(%eax)
 8048278:	16                   	push   %ss
 8048279:	00 00                	add    %al,(%eax)
 804827b:	00 00                	add    %al,(%eax)
 804827d:	00 00                	add    %al,(%eax)
 804827f:	00 1e                	add    %bl,(%esi)
 8048281:	00 00                	add    %al,(%eax)
 8048283:	00 07                	add    %al,(%edi)
 8048285:	00 00                	add    %al,(%eax)
 8048287:	00 00                	add    %al,(%eax)
 8048289:	00 00                	add    %al,(%eax)
 804828b:	00 10                	add    %dl,(%eax)
 804828d:	00 00                	add    %al,(%eax)
 804828f:	00 1f                	add    %bl,(%edi)
 8048291:	00 00                	add    %al,(%eax)
 8048293:	00 26                	add    %ah,(%esi)
 8048295:	00 00                	add    %al,(%eax)
 8048297:	00 2b                	add    %ch,(%ebx)
 8048299:	00 00                	add    %al,(%eax)
 804829b:	00 2c 00             	add    %ch,(%eax,%eax,1)
 804829e:	00 00                	add    %al,(%eax)
 80482a0:	1a 00                	sbb    (%eax),%al
	...
 80482aa:	00 00                	add    %al,(%eax)
 80482ac:	2a 00                	sub    (%eax),%al
 80482ae:	00 00                	add    %al,(%eax)
 80482b0:	2e 00 00             	add    %al,%cs:(%eax)
 80482b3:	00 19                	add    %bl,(%ecx)
 80482b5:	00 00                	add    %al,(%eax)
 80482b7:	00 2d 00 00 00 1d    	add    %ch,0x1d000000
 80482bd:	00 00                	add    %al,(%eax)
 80482bf:	00 3e                	add    %bh,(%esi)
 80482c1:	00 00                	add    %al,(%eax)
 80482c3:	00 24 00             	add    %ah,(%eax,%eax,1)
 80482c6:	00 00                	add    %al,(%eax)
 80482c8:	15 00 00 00 0b       	adc    $0xb000000,%eax
 80482cd:	00 00                	add    %al,(%eax)
 80482cf:	00 00                	add    %al,(%eax)
 80482d1:	00 00                	add    %al,(%eax)
 80482d3:	00 39                	add    %bh,(%ecx)
 80482d5:	00 00                	add    %al,(%eax)
 80482d7:	00 3f                	add    %bh,(%edi)
 80482d9:	00 00                	add    %al,(%eax)
 80482db:	00 05 00 00 00 27    	add    %al,0x27000000
 80482e1:	00 00                	add    %al,(%eax)
 80482e3:	00 00                	add    %al,(%eax)
 80482e5:	00 00                	add    %al,(%eax)
 80482e7:	00 23                	add    %ah,(%ebx)
 80482e9:	00 00                	add    %al,(%eax)
	...
Disassembly of section .gnu.hash:

080482ec <.gnu.hash>:
 80482ec:	03 00                	add    (%eax),%eax
 80482ee:	00 00                	add    %al,(%eax)
 80482f0:	3e 00 00             	add    %al,%ds:(%eax)
 80482f3:	00 01                	add    %al,(%ecx)
 80482f5:	00 00                	add    %al,(%eax)
 80482f7:	00 05 00 00 00 90    	add    %al,0x90000000
 80482fd:	2b 08                	sub    (%eax),%ecx
 80482ff:	20 3e                	and    %bh,(%esi)
 8048301:	00 00                	add    %al,(%eax)
 8048303:	00 40 00             	add    %al,0x0(%eax)
 8048306:	00 00                	add    %al,(%eax)
 8048308:	00 00                	add    %al,(%eax)
 804830a:	00 00                	add    %al,(%eax)
 804830c:	92                   	xchg   %eax,%edx
 804830d:	80 38 68             	cmpb   $0x68,(%eax)
 8048310:	29 1d 8c 1c ac 4b    	sub    %ebx,0x4bac1c8c
 8048316:	e3 c0                	jecxz  80482d8 <_init-0x930>
 8048318:	67 55                	addr16 push %ebp
 804831a:	61                   	popa   
 804831b:	10                   	.byte 0x10
Disassembly of section .dynsym:

0804831c <.dynsym>:
	...
 804832c:	15 01 00 00 00       	adc    $0x1,%eax
 8048331:	00 00                	add    %al,(%eax)
 8048333:	00 4c 01 00          	add    %cl,0x0(%ecx,%eax,1)
 8048337:	00 12                	add    %dl,(%edx)
 8048339:	00 00                	add    %al,(%eax)
 804833b:	00 89 00 00 00 00    	add    %cl,0x0(%ecx)
 8048341:	00 00                	add    %al,(%eax)
 8048343:	00 34 00             	add    %dh,(%eax,%eax,1)
 8048346:	00 00                	add    %al,(%eax)
 8048348:	12 00                	adc    (%eax),%al
 804834a:	00 00                	add    %al,(%eax)
 804834c:	91                   	xchg   %eax,%ecx
 804834d:	00 00                	add    %al,(%eax)
 804834f:	00 00                	add    %al,(%eax)
 8048351:	00 00                	add    %al,(%eax)
 8048353:	00 31                	add    %dh,(%ecx)
 8048355:	00 00                	add    %al,(%eax)
 8048357:	00 12                	add    %dl,(%edx)
 8048359:	00 00                	add    %al,(%eax)
 804835b:	00 b1 01 00 00 00    	add    %dh,0x1(%ecx)
 8048361:	00 00                	add    %al,(%eax)
 8048363:	00 32                	add    %dh,(%edx)
 8048365:	00 00                	add    %al,(%eax)
 8048367:	00 12                	add    %dl,(%edx)
 8048369:	00 00                	add    %al,(%eax)
 804836b:	00 58 00             	add    %bl,0x0(%eax)
 804836e:	00 00                	add    %al,(%eax)
 8048370:	00 00                	add    %al,(%eax)
 8048372:	00 00                	add    %al,(%eax)
 8048374:	3a 01                	cmp    (%ecx),%al
 8048376:	00 00                	add    %al,(%eax)
 8048378:	12 00                	adc    (%eax),%al
 804837a:	00 00                	add    %al,(%eax)
 804837c:	b4 00                	mov    $0x0,%ah
 804837e:	00 00                	add    %al,(%eax)
 8048380:	00 00                	add    %al,(%eax)
 8048382:	00 00                	add    %al,(%eax)
 8048384:	2c 00                	sub    $0x0,%al
 8048386:	00 00                	add    %al,(%eax)
 8048388:	12 00                	adc    (%eax),%al
 804838a:	00 00                	add    %al,(%eax)
 804838c:	68 00 00 00 00       	push   $0x0
 8048391:	00 00                	add    %al,(%eax)
 8048393:	00 de                	add    %bl,%dh
 8048395:	00 00                	add    %al,(%eax)
 8048397:	00 12                	add    %dl,(%edx)
 8048399:	00 00                	add    %al,(%eax)
 804839b:	00 a2 01 00 00 00    	add    %ah,0x1(%edx)
 80483a1:	00 00                	add    %al,(%eax)
 80483a3:	00 b2 00 00 00 12    	add    %dh,0x12000000(%edx)
 80483a9:	00 00                	add    %al,(%eax)
 80483ab:	00 01                	add    %al,(%ecx)
	...
 80483b5:	00 00                	add    %al,(%eax)
 80483b7:	00 20                	add    %ah,(%eax)
 80483b9:	00 00                	add    %al,(%eax)
 80483bb:	00 88 00 00 00 00    	add    %cl,0x0(%eax)
 80483c1:	00 00                	add    %al,(%eax)
 80483c3:	00 c9                	add    %cl,%cl
 80483c5:	00 00                	add    %al,(%eax)
 80483c7:	00 12                	add    %dl,(%edx)
 80483c9:	00 00                	add    %al,(%eax)
 80483cb:	00 6c 01 00          	add    %ch,0x0(%ecx,%eax,1)
 80483cf:	00 00                	add    %al,(%eax)
 80483d1:	00 00                	add    %al,(%eax)
 80483d3:	00 35 00 00 00 12    	add    %dh,0x12000000
 80483d9:	00 00                	add    %al,(%eax)
 80483db:	00 76 01             	add    %dh,0x1(%esi)
 80483de:	00 00                	add    %al,(%eax)
 80483e0:	00 00                	add    %al,(%eax)
 80483e2:	00 00                	add    %al,(%eax)
 80483e4:	67 01 00             	addr16 add %eax,(%bx,%si)
 80483e7:	00 12                	add    %dl,(%edx)
 80483e9:	00 00                	add    %al,(%eax)
 80483eb:	00 10                	add    %dl,(%eax)
 80483ed:	01 00                	add    %eax,(%eax)
 80483ef:	00 00                	add    %al,(%eax)
 80483f1:	00 00                	add    %al,(%eax)
 80483f3:	00 72 00             	add    %dh,0x0(%edx)
 80483f6:	00 00                	add    %al,(%eax)
 80483f8:	12 00                	adc    (%eax),%al
 80483fa:	00 00                	add    %al,(%eax)
 80483fc:	74 00                	je     80483fe <_init-0x80a>
 80483fe:	00 00                	add    %al,(%eax)
 8048400:	00 00                	add    %al,(%eax)
 8048402:	00 00                	add    %al,(%eax)
 8048404:	3d 00 00 00 12       	cmp    $0x12000000,%eax
 8048409:	00 00                	add    %al,(%eax)
 804840b:	00 c2                	add    %al,%dl
 804840d:	00 00                	add    %al,(%eax)
 804840f:	00 00                	add    %al,(%eax)
 8048411:	00 00                	add    %al,(%eax)
 8048413:	00 79 01             	add    %bh,0x1(%ecx)
 8048416:	00 00                	add    %al,(%eax)
 8048418:	12 00                	adc    (%eax),%al
 804841a:	00 00                	add    %al,(%eax)
 804841c:	e5 00                	in     $0x0,%eax
 804841e:	00 00                	add    %al,(%eax)
 8048420:	00 00                	add    %al,(%eax)
 8048422:	00 00                	add    %al,(%eax)
 8048424:	58                   	pop    %eax
 8048425:	00 00                	add    %al,(%eax)
 8048427:	00 12                	add    %dl,(%edx)
 8048429:	00 00                	add    %al,(%eax)
 804842b:	00 5c 01 00          	add    %bl,0x0(%ecx,%eax,1)
 804842f:	00 00                	add    %al,(%eax)
 8048431:	00 00                	add    %al,(%eax)
 8048433:	00 07                	add    %al,(%edi)
 8048435:	02 00                	add    (%eax),%al
 8048437:	00 12                	add    %dl,(%edx)
 8048439:	00 00                	add    %al,(%eax)
 804843b:	00 bf 01 00 00 00    	add    %bh,0x1(%edi)
 8048441:	00 00                	add    %al,(%eax)
 8048443:	00 b2 01 00 00 12    	add    %dh,0x12000001(%edx)
 8048449:	00 00                	add    %al,(%eax)
 804844b:	00 51 00             	add    %dl,0x0(%ecx)
 804844e:	00 00                	add    %al,(%eax)
 8048450:	00 00                	add    %al,(%eax)
 8048452:	00 00                	add    %al,(%eax)
 8048454:	d0 00                	rolb   (%eax)
 8048456:	00 00                	add    %al,(%eax)
 8048458:	12 00                	adc    (%eax),%al
 804845a:	00 00                	add    %al,(%eax)
 804845c:	a8 00                	test   $0x0,%al
 804845e:	00 00                	add    %al,(%eax)
 8048460:	00 00                	add    %al,(%eax)
 8048462:	00 00                	add    %al,(%eax)
 8048464:	4d                   	dec    %ebp
 8048465:	00 00                	add    %al,(%eax)
 8048467:	00 12                	add    %dl,(%edx)
 8048469:	00 00                	add    %al,(%eax)
 804846b:	00 dd                	add    %bl,%ch
 804846d:	00 00                	add    %al,(%eax)
 804846f:	00 00                	add    %al,(%eax)
 8048471:	00 00                	add    %al,(%eax)
 8048473:	00 85 00 00 00 12    	add    %al,0x12000000(%ebp)
 8048479:	00 00                	add    %al,(%eax)
 804847b:	00 87 01 00 00 00    	add    %al,0x1(%edi)
 8048481:	00 00                	add    %al,(%eax)
 8048483:	00 72 00             	add    %dh,0x0(%edx)
 8048486:	00 00                	add    %al,(%eax)
 8048488:	12 00                	adc    (%eax),%al
 804848a:	00 00                	add    %al,(%eax)
 804848c:	30 00                	xor    %al,(%eax)
 804848e:	00 00                	add    %al,(%eax)
 8048490:	00 00                	add    %al,(%eax)
 8048492:	00 00                	add    %al,(%eax)
 8048494:	3d 00 00 00 12       	cmp    $0x12000000,%eax
 8048499:	00 00                	add    %al,(%eax)
 804849b:	00 04 01             	add    %al,(%ecx,%eax,1)
 804849e:	00 00                	add    %al,(%eax)
 80484a0:	00 00                	add    %al,(%eax)
 80484a2:	00 00                	add    %al,(%eax)
 80484a4:	3e 00 00             	add    %al,%ds:(%eax)
 80484a7:	00 12                	add    %dl,(%edx)
 80484a9:	00 00                	add    %al,(%eax)
 80484ab:	00 f8                	add    %bh,%al
 80484ad:	00 00                	add    %al,(%eax)
 80484af:	00 00                	add    %al,(%eax)
 80484b1:	00 00                	add    %al,(%eax)
 80484b3:	00 fa                	add    %bh,%dl
 80484b5:	00 00                	add    %al,(%eax)
 80484b7:	00 12                	add    %dl,(%edx)
 80484b9:	00 00                	add    %al,(%eax)
 80484bb:	00 bb 00 00 00 00    	add    %bh,0x0(%ebx)
 80484c1:	00 00                	add    %al,(%eax)
 80484c3:	00 2a                	add    %ch,(%edx)
 80484c5:	01 00                	add    %eax,(%eax)
 80484c7:	00 12                	add    %dl,(%edx)
 80484c9:	00 00                	add    %al,(%eax)
 80484cb:	00 22                	add    %ah,(%edx)
 80484cd:	01 00                	add    %eax,(%eax)
 80484cf:	00 00                	add    %al,(%eax)
 80484d1:	00 00                	add    %al,(%eax)
 80484d3:	00 e8                	add    %ch,%al
 80484d5:	01 00                	add    %eax,(%eax)
 80484d7:	00 12                	add    %dl,(%edx)
 80484d9:	00 00                	add    %al,(%eax)
 80484db:	00 29                	add    %ch,(%ecx)
 80484dd:	00 00                	add    %al,(%eax)
 80484df:	00 00                	add    %al,(%eax)
 80484e1:	00 00                	add    %al,(%eax)
 80484e3:	00 83 00 00 00 12    	add    %al,0x12000000(%ebx)
 80484e9:	00 00                	add    %al,(%eax)
 80484eb:	00 1b                	add    %bl,(%ebx)
 80484ed:	01 00                	add    %eax,(%eax)
 80484ef:	00 00                	add    %al,(%eax)
 80484f1:	00 00                	add    %al,(%eax)
 80484f3:	00 46 00             	add    %al,0x0(%esi)
 80484f6:	00 00                	add    %al,(%eax)
 80484f8:	12 00                	adc    (%eax),%al
 80484fa:	00 00                	add    %al,(%eax)
 80484fc:	d1 00                	roll   (%eax)
 80484fe:	00 00                	add    %al,(%eax)
 8048500:	00 00                	add    %al,(%eax)
 8048502:	00 00                	add    %al,(%eax)
 8048504:	af                   	scas   %es:(%edi),%eax
 8048505:	00 00                	add    %al,(%eax)
 8048507:	00 12                	add    %dl,(%edx)
 8048509:	00 00                	add    %al,(%eax)
 804850b:	00 43 00             	add    %al,0x0(%ebx)
 804850e:	00 00                	add    %al,(%eax)
 8048510:	00 00                	add    %al,(%eax)
 8048512:	00 00                	add    %al,(%eax)
 8048514:	32 00                	xor    (%eax),%al
 8048516:	00 00                	add    %al,(%eax)
 8048518:	12 00                	adc    (%eax),%al
 804851a:	00 00                	add    %al,(%eax)
 804851c:	64 01 00             	add    %eax,%fs:(%eax)
 804851f:	00 00                	add    %al,(%eax)
 8048521:	00 00                	add    %al,(%eax)
 8048523:	00 76 00             	add    %dh,0x0(%esi)
 8048526:	00 00                	add    %al,(%eax)
 8048528:	12 00                	adc    (%eax),%al
 804852a:	00 00                	add    %al,(%eax)
 804852c:	af                   	scas   %es:(%edi),%eax
 804852d:	00 00                	add    %al,(%eax)
 804852f:	00 00                	add    %al,(%eax)
 8048531:	00 00                	add    %al,(%eax)
 8048533:	00 7d 00             	add    %bh,0x0(%ebp)
 8048536:	00 00                	add    %al,(%eax)
 8048538:	12 00                	adc    (%eax),%al
 804853a:	00 00                	add    %al,(%eax)
 804853c:	37                   	aaa    
 804853d:	00 00                	add    %al,(%eax)
 804853f:	00 00                	add    %al,(%eax)
 8048541:	00 00                	add    %al,(%eax)
 8048543:	00 24 00             	add    %ah,(%eax,%eax,1)
 8048546:	00 00                	add    %al,(%eax)
 8048548:	12 00                	adc    (%eax),%al
 804854a:	00 00                	add    %al,(%eax)
 804854c:	62 00                	bound  %eax,(%eax)
 804854e:	00 00                	add    %al,(%eax)
 8048550:	00 00                	add    %al,(%eax)
 8048552:	00 00                	add    %al,(%eax)
 8048554:	e5 01                	in     $0x1,%eax
 8048556:	00 00                	add    %al,(%eax)
 8048558:	12 00                	adc    (%eax),%al
 804855a:	00 00                	add    %al,(%eax)
 804855c:	8a 00                	mov    (%eax),%al
 804855e:	00 00                	add    %al,(%eax)
 8048560:	00 00                	add    %al,(%eax)
 8048562:	00 00                	add    %al,(%eax)
 8048564:	39 00                	cmp    %eax,(%eax)
 8048566:	00 00                	add    %al,(%eax)
 8048568:	12 00                	adc    (%eax),%al
 804856a:	00 00                	add    %al,(%eax)
 804856c:	fe 00                	incb   (%eax)
 804856e:	00 00                	add    %al,(%eax)
 8048570:	00 00                	add    %al,(%eax)
 8048572:	00 00                	add    %al,(%eax)
 8048574:	3a 00                	cmp    (%eax),%al
 8048576:	00 00                	add    %al,(%eax)
 8048578:	12 00                	adc    (%eax),%al
 804857a:	00 00                	add    %al,(%eax)
 804857c:	f3 00 00             	repz add %al,(%eax)
 804857f:	00 00                	add    %al,(%eax)
 8048581:	00 00                	add    %al,(%eax)
 8048583:	00 3d 00 00 00 12    	add    %bh,0x12000000
 8048589:	00 00                	add    %al,(%eax)
 804858b:	00 7b 00             	add    %bh,0x0(%ebx)
 804858e:	00 00                	add    %al,(%eax)
 8048590:	00 00                	add    %al,(%eax)
 8048592:	00 00                	add    %al,(%eax)
 8048594:	8e 00                	mov    (%eax),%es
 8048596:	00 00                	add    %al,(%eax)
 8048598:	12 00                	adc    (%eax),%al
 804859a:	00 00                	add    %al,(%eax)
 804859c:	23 01                	and    (%ecx),%eax
 804859e:	00 00                	add    %al,(%eax)
 80485a0:	00 00                	add    %al,(%eax)
 80485a2:	00 00                	add    %al,(%eax)
 80485a4:	6b 00 00             	imul   $0x0,(%eax),%eax
 80485a7:	00 12                	add    %dl,(%edx)
 80485a9:	00 00                	add    %al,(%eax)
 80485ab:	00 ec                	add    %ch,%ah
 80485ad:	00 00                	add    %al,(%eax)
 80485af:	00 00                	add    %al,(%eax)
 80485b1:	00 00                	add    %al,(%eax)
 80485b3:	00 6f 01             	add    %ch,0x1(%edi)
 80485b6:	00 00                	add    %al,(%eax)
 80485b8:	12 00                	adc    (%eax),%al
 80485ba:	00 00                	add    %al,(%eax)
 80485bc:	9c                   	pushf  
 80485bd:	00 00                	add    %al,(%eax)
 80485bf:	00 00                	add    %al,(%eax)
 80485c1:	00 00                	add    %al,(%eax)
 80485c3:	00 1b                	add    %bl,(%ebx)
 80485c5:	00 00                	add    %al,(%eax)
 80485c7:	00 12                	add    %dl,(%edx)
 80485c9:	00 00                	add    %al,(%eax)
 80485cb:	00 4e 01             	add    %cl,0x1(%esi)
 80485ce:	00 00                	add    %al,(%eax)
 80485d0:	00 00                	add    %al,(%eax)
 80485d2:	00 00                	add    %al,(%eax)
 80485d4:	aa                   	stos   %al,%es:(%edi)
 80485d5:	00 00                	add    %al,(%eax)
 80485d7:	00 12                	add    %dl,(%edx)
 80485d9:	00 00                	add    %al,(%eax)
 80485db:	00 34 01             	add    %dh,(%ecx,%eax,1)
 80485de:	00 00                	add    %al,(%eax)
 80485e0:	00 00                	add    %al,(%eax)
 80485e2:	00 00                	add    %al,(%eax)
 80485e4:	7c 01                	jl     80485e7 <_init-0x621>
 80485e6:	00 00                	add    %al,(%eax)
 80485e8:	12 00                	adc    (%eax),%al
 80485ea:	00 00                	add    %al,(%eax)
 80485ec:	a1 00 00 00 00       	mov    0x0,%eax
 80485f1:	00 00                	add    %al,(%eax)
 80485f3:	00 12                	add    %dl,(%edx)
 80485f5:	01 00                	add    %eax,(%eax)
 80485f7:	00 12                	add    %dl,(%edx)
 80485f9:	00 00                	add    %al,(%eax)
 80485fb:	00 8e 01 00 00 00    	add    %cl,0x1(%esi)
 8048601:	00 00                	add    %al,(%eax)
 8048603:	00 40 00             	add    %al,0x0(%eax)
 8048606:	00 00                	add    %al,(%eax)
 8048608:	12 00                	adc    (%eax),%al
 804860a:	00 00                	add    %al,(%eax)
 804860c:	3b 01                	cmp    (%ecx),%eax
 804860e:	00 00                	add    %al,(%eax)
 8048610:	00 00                	add    %al,(%eax)
 8048612:	00 00                	add    %al,(%eax)
 8048614:	aa                   	stos   %al,%es:(%edi)
 8048615:	01 00                	add    %eax,(%eax)
 8048617:	00 12                	add    %dl,(%edx)
 8048619:	00 00                	add    %al,(%eax)
 804861b:	00 d8                	add    %bl,%al
 804861d:	00 00                	add    %al,(%eax)
 804861f:	00 00                	add    %al,(%eax)
 8048621:	00 00                	add    %al,(%eax)
 8048623:	00 72 00             	add    %dh,0x0(%edx)
 8048626:	00 00                	add    %al,(%eax)
 8048628:	12 00                	adc    (%eax),%al
 804862a:	00 00                	add    %al,(%eax)
 804862c:	16                   	push   %ss
 804862d:	01 00                	add    %eax,(%eax)
 804862f:	00 00                	add    %al,(%eax)
 8048631:	00 00                	add    %al,(%eax)
 8048633:	00 8f 01 00 00 12    	add    %cl,0x12000001(%edi)
 8048639:	00 00                	add    %al,(%eax)
 804863b:	00 6f 00             	add    %ch,0x0(%edi)
 804863e:	00 00                	add    %al,(%eax)
 8048640:	00 00                	add    %al,(%eax)
 8048642:	00 00                	add    %al,(%eax)
 8048644:	f0 02 00             	lock add (%eax),%al
 8048647:	00 12                	add    %dl,(%edx)
 8048649:	00 00                	add    %al,(%eax)
 804864b:	00 29                	add    %ch,(%ecx)
 804864d:	01 00                	add    %eax,(%eax)
 804864f:	00 00                	add    %al,(%eax)
 8048651:	00 00                	add    %al,(%eax)
 8048653:	00 3d 00 00 00 12    	add    %bh,0x12000000
 8048659:	00 00                	add    %al,(%eax)
 804865b:	00 49 00             	add    %cl,0x0(%ecx)
 804865e:	00 00                	add    %al,(%eax)
 8048660:	00 00                	add    %al,(%eax)
 8048662:	00 00                	add    %al,(%eax)
 8048664:	f3 00 00             	repz add %al,(%eax)
 8048667:	00 12                	add    %dl,(%edx)
 8048669:	00 00                	add    %al,(%eax)
 804866b:	00 56 01             	add    %dl,0x1(%esi)
 804866e:	00 00                	add    %al,(%eax)
 8048670:	00 00                	add    %al,(%eax)
 8048672:	00 00                	add    %al,(%eax)
 8048674:	10 01                	adc    %al,(%ecx)
 8048676:	00 00                	add    %al,(%eax)
 8048678:	12 00                	adc    (%eax),%al
 804867a:	00 00                	add    %al,(%eax)
 804867c:	d8 01                	fadds  (%ecx)
 804867e:	00 00                	add    %al,(%eax)
 8048680:	00 00                	add    %al,(%eax)
 8048682:	00 00                	add    %al,(%eax)
 8048684:	7b 00                	jnp    8048686 <_init-0x582>
 8048686:	00 00                	add    %al,(%eax)
 8048688:	12 00                	adc    (%eax),%al
 804868a:	00 00                	add    %al,(%eax)
 804868c:	98                   	cwtl   
 804868d:	00 00                	add    %al,(%eax)
 804868f:	00 00                	add    %al,(%eax)
 8048691:	00 00                	add    %al,(%eax)
 8048693:	00 4c 00 00          	add    %cl,0x0(%eax,%eax,1)
 8048697:	00 12                	add    %dl,(%edx)
 8048699:	00 00                	add    %al,(%eax)
 804869b:	00 aa 01 00 00 00    	add    %ch,0x1(%edx)
 80486a1:	00 00                	add    %al,(%eax)
 80486a3:	00 83 00 00 00 12    	add    %al,0x12000000(%ebx)
 80486a9:	00 00                	add    %al,(%eax)
 80486ab:	00 42 01             	add    %al,0x1(%edx)
 80486ae:	00 00                	add    %al,(%eax)
 80486b0:	00 00                	add    %al,(%eax)
 80486b2:	00 00                	add    %al,(%eax)
 80486b4:	3d 00 00 00 12       	cmp    $0x12000000,%eax
 80486b9:	00 00                	add    %al,(%eax)
 80486bb:	00 c8                	add    %cl,%al
 80486bd:	00 00                	add    %al,(%eax)
 80486bf:	00 00                	add    %al,(%eax)
 80486c1:	00 00                	add    %al,(%eax)
 80486c3:	00 39                	add    %bh,(%ecx)
 80486c5:	01 00                	add    %eax,(%eax)
 80486c7:	00 12                	add    %dl,(%edx)
 80486c9:	00 00                	add    %al,(%eax)
 80486cb:	00 b8 01 00 00 00    	add    %bh,0x1(%eax)
 80486d1:	00 00                	add    %al,(%eax)
 80486d3:	00 54 00 00          	add    %dl,0x0(%eax,%eax,1)
 80486d7:	00 12                	add    %dl,(%edx)
 80486d9:	00 00                	add    %al,(%eax)
 80486db:	00 d1                	add    %dl,%cl
 80486dd:	01 00                	add    %eax,(%eax)
 80486df:	00 00                	add    %al,(%eax)
 80486e1:	00 00                	add    %al,(%eax)
 80486e3:	00 7a 00             	add    %bh,0x0(%edx)
 80486e6:	00 00                	add    %al,(%eax)
 80486e8:	12 00                	adc    (%eax),%al
 80486ea:	00 00                	add    %al,(%eax)
 80486ec:	3e 00 00             	add    %al,%ds:(%eax)
 80486ef:	00 00                	add    %al,(%eax)
 80486f1:	00 00                	add    %al,(%eax)
 80486f3:	00 fa                	add    %bh,%dl
 80486f5:	00 00                	add    %al,(%eax)
 80486f7:	00 12                	add    %dl,(%edx)
 80486f9:	00 00                	add    %al,(%eax)
 80486fb:	00 7d 01             	add    %bh,0x1(%ebp)
 80486fe:	00 00                	add    %al,(%eax)
 8048700:	a8 8e                	test   $0x8e,%al
 8048702:	04 08                	add    $0x8,%al
 8048704:	1f                   	pop    %ds
 8048705:	00 00                	add    %al,(%eax)
 8048707:	00 12                	add    %dl,(%edx)
 8048709:	00 00                	add    %al,(%eax)
 804870b:	00 09                	add    %cl,(%ecx)
 804870d:	01 00                	add    %eax,(%eax)
 804870f:	00 60 df             	add    %ah,-0x21(%eax)
 8048712:	04 08                	add    $0x8,%al
 8048714:	04 00                	add    $0x0,%al
 8048716:	00 00                	add    %al,(%eax)
 8048718:	11 00                	adc    %eax,(%eax)
 804871a:	18 00                	sbb    %al,(%eax)
 804871c:	1a 00                	sbb    (%eax),%al
 804871e:	00 00                	add    %al,(%eax)
 8048720:	dc ab 04 08 04 00    	fsubrl 0x40804(%ebx)
 8048726:	00 00                	add    %al,(%eax)
 8048728:	11 00                	adc    %eax,(%eax)
 804872a:	0f 00 82 00 00 00 40 	sldt   0x40000000(%edx)
 8048731:	df 04 08             	fild   (%eax,%ecx,1)
 8048734:	04 00                	add    $0x0,%al
 8048736:	00 00                	add    %al,(%eax)
 8048738:	11 00                	adc    %eax,(%eax)
 804873a:	18 00                	sbb    %al,(%eax)
Disassembly of section .dynstr:

0804873c <.dynstr>:
 804873c:	00 5f 5f             	add    %bl,0x5f(%edi)
 804873f:	67 6d                	addr16 insl (%dx),%es:(%di)
 8048741:	6f                   	outsl  %ds:(%esi),(%dx)
 8048742:	6e                   	outsb  %ds:(%esi),(%dx)
 8048743:	5f                   	pop    %edi
 8048744:	73 74                	jae    80487ba <_init-0x44e>
 8048746:	61                   	popa   
 8048747:	72 74                	jb     80487bd <_init-0x44b>
 8048749:	5f                   	pop    %edi
 804874a:	5f                   	pop    %edi
 804874b:	00 6c 69 62          	add    %ch,0x62(%ecx,%ebp,2)
 804874f:	63 2e                	arpl   %bp,(%esi)
 8048751:	73 6f                	jae    80487c2 <_init-0x446>
 8048753:	2e 36 00 5f 49       	add    %bl,%cs:%ss:0x49(%edi)
 8048758:	4f                   	dec    %edi
 8048759:	5f                   	pop    %edi
 804875a:	73 74                	jae    80487d0 <_init-0x438>
 804875c:	64 69 6e 5f 75 73 65 	imul   $0x64657375,%fs:0x5f(%esi),%ebp
 8048763:	64 
 8048764:	00 73 65             	add    %dh,0x65(%ebx)
 8048767:	74 75                	je     80487de <_init-0x42a>
 8048769:	69 64 00 73 6f 63 6b 	imul   $0x656b636f,0x73(%eax,%eax,1),%esp
 8048770:	65 
 8048771:	74 00                	je     8048773 <_init-0x495>
 8048773:	73 74                	jae    80487e9 <_init-0x41f>
 8048775:	72 63                	jb     80487da <_init-0x42e>
 8048777:	70 79                	jo     80487f2 <_init-0x416>
 8048779:	00 65 78             	add    %ah,0x78(%ebp)
 804877c:	69 74 00 66 6f 70 65 	imul   $0x6e65706f,0x66(%eax,%eax,1),%esi
 8048783:	6e 
 8048784:	00 73 74             	add    %dh,0x74(%ebx)
 8048787:	72 6e                	jb     80487f7 <_init-0x411>
 8048789:	63 6d 70             	arpl   %bp,0x70(%ebp)
 804878c:	00 70 65             	add    %dh,0x65(%eax)
 804878f:	72 72                	jb     8048803 <_init-0x405>
 8048791:	6f                   	outsl  %ds:(%esi),(%dx)
 8048792:	72 00                	jb     8048794 <_init-0x474>
 8048794:	69 6e 65 74 5f 6e 74 	imul   $0x746e5f74,0x65(%esi),%ebp
 804879b:	6f                   	outsl  %ds:(%esi),(%dx)
 804879c:	61                   	popa   
 804879d:	00 66 74             	add    %ah,0x74(%esi)
 80487a0:	65                   	gs
 80487a1:	6c                   	insb   (%dx),%es:(%edi)
 80487a2:	6c                   	insb   (%dx),%es:(%edi)
 80487a3:	00 73 69             	add    %dh,0x69(%ebx)
 80487a6:	67 6e                	addr16 outsb %ds:(%si),(%dx)
 80487a8:	61                   	popa   
 80487a9:	6c                   	insb   (%dx),%es:(%edi)
 80487aa:	00 66 6f             	add    %ah,0x6f(%esi)
 80487ad:	72 6b                	jb     804881a <_init-0x3ee>
 80487af:	00 6c 69 73          	add    %ch,0x73(%ecx,%ebp,2)
 80487b3:	74 65                	je     804881a <_init-0x3ee>
 80487b5:	6e                   	outsb  %ds:(%esi),(%dx)
 80487b6:	00 73 65             	add    %dh,0x65(%ebx)
 80487b9:	6c                   	insb   (%dx),%es:(%edi)
 80487ba:	65 63 74 00 73       	arpl   %si,%gs:0x73(%eax,%eax,1)
 80487bf:	74 64                	je     8048825 <_init-0x3e3>
 80487c1:	69 6e 00 76 73 70 72 	imul   $0x72707376,0x0(%esi),%ebp
 80487c8:	69 6e 74 66 00 67 65 	imul   $0x65670066,0x74(%esi),%ebp
 80487cf:	74 70                	je     8048841 <_init-0x3c7>
 80487d1:	69 64 00 73 74 72 66 	imul   $0x74667274,0x73(%eax,%eax,1),%esp
 80487d8:	74 
 80487d9:	69 6d 65 00 73 74 72 	imul   $0x72747300,0x65(%ebp),%ebp
 80487e0:	74 6f                	je     8048851 <_init-0x3b7>
 80487e2:	6b 00 73             	imul   $0x73,(%eax),%eax
 80487e5:	74 72                	je     8048859 <_init-0x3af>
 80487e7:	74 6f                	je     8048858 <_init-0x3b0>
 80487e9:	6c                   	insb   (%dx),%es:(%edi)
 80487ea:	00 66 65             	add    %ah,0x65(%esi)
 80487ed:	6f                   	outsl  %ds:(%esi),(%dx)
 80487ee:	66                   	data16
 80487ef:	00 73 79             	add    %dh,0x79(%ebx)
 80487f2:	73 6c                	jae    8048860 <_init-0x3a8>
 80487f4:	6f                   	outsl  %ds:(%esi),(%dx)
 80487f5:	67 00 65 78          	addr16 add %ah,0x78(%di)
 80487f9:	65 63 6c 70 00       	arpl   %bp,%gs:0x0(%eax,%esi,2)
 80487fe:	66                   	data16
 80487ff:	67                   	addr16
 8048800:	65                   	gs
 8048801:	74 73                	je     8048876 <_init-0x392>
 8048803:	00 67 65             	add    %ah,0x65(%edi)
 8048806:	74 70                	je     8048878 <_init-0x390>
 8048808:	77 6e                	ja     8048878 <_init-0x390>
 804880a:	61                   	popa   
 804880b:	6d                   	insl   (%dx),%es:(%edi)
 804880c:	00 73 74             	add    %dh,0x74(%ebx)
 804880f:	72 6c                	jb     804887d <_init-0x38b>
 8048811:	65 6e                	outsb  %gs:(%esi),(%dx)
 8048813:	00 73 65             	add    %dh,0x65(%ebx)
 8048816:	6e                   	outsb  %ds:(%esi),(%dx)
 8048817:	64 00 6f 70          	add    %ch,%fs:0x70(%edi)
 804881b:	65 6e                	outsb  %gs:(%esi),(%dx)
 804881d:	6c                   	insb   (%dx),%es:(%edi)
 804881e:	6f                   	outsl  %ds:(%esi),(%dx)
 804881f:	67 00 6d 65          	addr16 add %ch,0x65(%di)
 8048823:	6d                   	insl   (%dx),%es:(%edi)
 8048824:	73 65                	jae    804888b <_init-0x37d>
 8048826:	74 00                	je     8048828 <_init-0x3e0>
 8048828:	73 74                	jae    804889e <_init-0x36a>
 804882a:	72 73                	jb     804889f <_init-0x369>
 804882c:	74 72                	je     80488a0 <_init-0x368>
 804882e:	00 62 69             	add    %ah,0x69(%edx)
 8048831:	6e                   	outsb  %ds:(%esi),(%dx)
 8048832:	64 00 66 73          	add    %ah,%fs:0x73(%esi)
 8048836:	65 65 6b 00 63       	imul   $0x63,%gs:(%eax),%eax
 804883b:	68 64 69 72 00       	push   $0x726964
 8048840:	64                   	fs
 8048841:	75 70                	jne    80488b3 <_init-0x355>
 8048843:	32 00                	xor    (%eax),%al
 8048845:	73 74                	jae    80488bb <_init-0x34d>
 8048847:	64 6f                	outsl  %fs:(%esi),(%dx)
 8048849:	75 74                	jne    80488bf <_init-0x349>
 804884b:	00 72 65             	add    %dh,0x65(%edx)
 804884e:	63 76 00             	arpl   %si,0x0(%esi)
 8048851:	66                   	data16
 8048852:	70 75                	jo     80488c9 <_init-0x33f>
 8048854:	74 73                	je     80488c9 <_init-0x33f>
 8048856:	00 6d 65             	add    %ch,0x65(%ebp)
 8048859:	6d                   	insl   (%dx),%es:(%edi)
 804885a:	63 70 79             	arpl   %si,0x79(%eax)
 804885d:	00 66 63             	add    %ah,0x63(%esi)
 8048860:	6c                   	insb   (%dx),%es:(%edi)
 8048861:	6f                   	outsl  %ds:(%esi),(%dx)
 8048862:	73 65                	jae    80488c9 <_init-0x33f>
 8048864:	00 73 65             	add    %dh,0x65(%ebx)
 8048867:	74 73                	je     80488dc <_init-0x32c>
 8048869:	6f                   	outsl  %ds:(%esi),(%dx)
 804886a:	63 6b 6f             	arpl   %bp,0x6f(%ebx)
 804886d:	70 74                	jo     80488e3 <_init-0x325>
 804886f:	00 6d 61             	add    %ch,0x61(%ebp)
 8048872:	6c                   	insb   (%dx),%es:(%edi)
 8048873:	6c                   	insb   (%dx),%es:(%edi)
 8048874:	6f                   	outsl  %ds:(%esi),(%dx)
 8048875:	63 00                	arpl   %ax,(%eax)
 8048877:	73 74                	jae    80488ed <_init-0x31b>
 8048879:	72 63                	jb     80488de <_init-0x32a>
 804887b:	61                   	popa   
 804887c:	74 00                	je     804887e <_init-0x38a>
 804887e:	67                   	addr16
 804887f:	65                   	gs
 8048880:	74 70                	je     80488f2 <_init-0x316>
 8048882:	65                   	gs
 8048883:	65                   	gs
 8048884:	72 6e                	jb     80488f4 <_init-0x314>
 8048886:	61                   	popa   
 8048887:	6d                   	insl   (%dx),%es:(%edi)
 8048888:	65 00 73 74          	add    %dh,%gs:0x74(%ebx)
 804888c:	72 6e                	jb     80488fc <_init-0x30c>
 804888e:	63 61 74             	arpl   %sp,0x74(%ecx)
 8048891:	00 66 72             	add    %ah,0x72(%esi)
 8048894:	65                   	gs
 8048895:	61                   	popa   
 8048896:	64 00 73 63          	add    %dh,%fs:0x63(%ebx)
 804889a:	61                   	popa   
 804889b:	6e                   	outsb  %ds:(%esi),(%dx)
 804889c:	64 69 72 00 77 61 69 	imul   $0x74696177,%fs:0x0(%edx),%esi
 80488a3:	74 
 80488a4:	70 69                	jo     804890f <_init-0x2f9>
 80488a6:	64 00 6c 6f 63       	add    %ch,%fs:0x63(%edi,%ebp,2)
 80488ab:	61                   	popa   
 80488ac:	6c                   	insb   (%dx),%es:(%edi)
 80488ad:	74 69                	je     8048918 <_init-0x2f0>
 80488af:	6d                   	insl   (%dx),%es:(%edi)
 80488b0:	65 00 73 74          	add    %dh,%gs:0x74(%ebx)
 80488b4:	72 63                	jb     8048919 <_init-0x2ef>
 80488b6:	68 72 00 61 6c       	push   $0x6c610072
 80488bb:	70 68                	jo     8048925 <_init-0x2e3>
 80488bd:	61                   	popa   
 80488be:	73 6f                	jae    804892f <_init-0x2d9>
 80488c0:	72 74                	jb     8048936 <_init-0x2d2>
 80488c2:	00 61 63             	add    %ah,0x63(%ecx)
 80488c5:	63 65 70             	arpl   %sp,0x70(%ebp)
 80488c8:	74 00                	je     80488ca <_init-0x33e>
 80488ca:	5f                   	pop    %edi
 80488cb:	5f                   	pop    %edi
 80488cc:	63 74 79 70          	arpl   %si,0x70(%ecx,%edi,2)
 80488d0:	65                   	gs
 80488d1:	5f                   	pop    %edi
 80488d2:	74 6f                	je     8048943 <_init-0x2c5>
 80488d4:	6c                   	insb   (%dx),%es:(%edi)
 80488d5:	6f                   	outsl  %ds:(%esi),(%dx)
 80488d6:	77 65                	ja     804893d <_init-0x2cb>
 80488d8:	72 5f                	jb     8048939 <_init-0x2cf>
 80488da:	6c                   	insb   (%dx),%es:(%edi)
 80488db:	6f                   	outsl  %ds:(%esi),(%dx)
 80488dc:	63 00                	arpl   %ax,(%eax)
 80488de:	5f                   	pop    %edi
 80488df:	5f                   	pop    %edi
 80488e0:	78 73                	js     8048955 <_init-0x2b3>
 80488e2:	74 61                	je     8048945 <_init-0x2c3>
 80488e4:	74 00                	je     80488e6 <_init-0x322>
 80488e6:	73 65                	jae    804894d <_init-0x2bb>
 80488e8:	74 67                	je     8048951 <_init-0x2b7>
 80488ea:	69 64 00 73 65 74 62 	imul   $0x75627465,0x73(%eax,%eax,1),%esp
 80488f1:	75 
 80488f2:	66                   	data16
 80488f3:	00 73 74             	add    %dh,0x74(%ebx)
 80488f6:	72 63                	jb     804895b <_init-0x2ad>
 80488f8:	6d                   	insl   (%dx),%es:(%edi)
 80488f9:	70 00                	jo     80488fb <_init-0x30d>
 80488fb:	5f                   	pop    %edi
 80488fc:	5f                   	pop    %edi
 80488fd:	6c                   	insb   (%dx),%es:(%edi)
 80488fe:	69 62 63 5f 73 74 61 	imul   $0x6174735f,0x63(%edx),%esp
 8048905:	72 74                	jb     804897b <_init-0x28d>
 8048907:	5f                   	pop    %edi
 8048908:	6d                   	insl   (%dx),%es:(%edi)
 8048909:	61                   	popa   
 804890a:	69 6e 00 73 65 74 65 	imul   $0x65746573,0x0(%esi),%ebp
 8048911:	6e                   	outsb  %ds:(%esi),(%dx)
 8048912:	76 00                	jbe    8048914 <_init-0x2f4>
 8048914:	63 6c 6f 73          	arpl   %bp,0x73(%edi,%ebp,2)
 8048918:	65                   	gs
 8048919:	6c                   	insb   (%dx),%es:(%edi)
 804891a:	6f                   	outsl  %ds:(%esi),(%dx)
 804891b:	67 00 47 4c          	addr16 add %al,0x4c(%bx)
 804891f:	49                   	dec    %ecx
 8048920:	42                   	inc    %edx
 8048921:	43                   	inc    %ebx
 8048922:	5f                   	pop    %edi
 8048923:	32 2e                	xor    (%esi),%ch
 8048925:	33 00                	xor    (%eax),%eax
 8048927:	47                   	inc    %edi
 8048928:	4c                   	dec    %esp
 8048929:	49                   	dec    %ecx
 804892a:	42                   	inc    %edx
 804892b:	43                   	inc    %ebx
 804892c:	5f                   	pop    %edi
 804892d:	32 2e                	xor    (%esi),%ch
 804892f:	31 00                	xor    %eax,(%eax)
 8048931:	47                   	inc    %edi
 8048932:	4c                   	dec    %esp
 8048933:	49                   	dec    %ecx
 8048934:	42                   	inc    %edx
 8048935:	43                   	inc    %ebx
 8048936:	5f                   	pop    %edi
 8048937:	32 2e                	xor    (%esi),%ch
 8048939:	30 00                	xor    %al,(%eax)
Disassembly of section .gnu.version:

0804893c <.gnu.version>:
 804893c:	00 00                	add    %al,(%eax)
 804893e:	02 00                	add    (%eax),%al
 8048940:	02 00                	add    (%eax),%al
 8048942:	02 00                	add    (%eax),%al
 8048944:	02 00                	add    (%eax),%al
 8048946:	02 00                	add    (%eax),%al
 8048948:	02 00                	add    (%eax),%al
 804894a:	02 00                	add    (%eax),%al
 804894c:	02 00                	add    (%eax),%al
 804894e:	00 00                	add    %al,(%eax)
 8048950:	02 00                	add    (%eax),%al
 8048952:	02 00                	add    (%eax),%al
 8048954:	02 00                	add    (%eax),%al
 8048956:	02 00                	add    (%eax),%al
 8048958:	02 00                	add    (%eax),%al
 804895a:	02 00                	add    (%eax),%al
 804895c:	02 00                	add    (%eax),%al
 804895e:	02 00                	add    (%eax),%al
 8048960:	02 00                	add    (%eax),%al
 8048962:	02 00                	add    (%eax),%al
 8048964:	02 00                	add    (%eax),%al
 8048966:	02 00                	add    (%eax),%al
 8048968:	02 00                	add    (%eax),%al
 804896a:	02 00                	add    (%eax),%al
 804896c:	02 00                	add    (%eax),%al
 804896e:	02 00                	add    (%eax),%al
 8048970:	02 00                	add    (%eax),%al
 8048972:	03 00                	add    (%eax),%eax
 8048974:	02 00                	add    (%eax),%al
 8048976:	02 00                	add    (%eax),%al
 8048978:	02 00                	add    (%eax),%al
 804897a:	03 00                	add    (%eax),%eax
 804897c:	02 00                	add    (%eax),%al
 804897e:	02 00                	add    (%eax),%al
 8048980:	02 00                	add    (%eax),%al
 8048982:	02 00                	add    (%eax),%al
 8048984:	02 00                	add    (%eax),%al
 8048986:	02 00                	add    (%eax),%al
 8048988:	02 00                	add    (%eax),%al
 804898a:	02 00                	add    (%eax),%al
 804898c:	02 00                	add    (%eax),%al
 804898e:	02 00                	add    (%eax),%al
 8048990:	02 00                	add    (%eax),%al
 8048992:	02 00                	add    (%eax),%al
 8048994:	02 00                	add    (%eax),%al
 8048996:	02 00                	add    (%eax),%al
 8048998:	04 00                	add    $0x0,%al
 804899a:	02 00                	add    (%eax),%al
 804899c:	02 00                	add    (%eax),%al
 804899e:	02 00                	add    (%eax),%al
 80489a0:	02 00                	add    (%eax),%al
 80489a2:	02 00                	add    (%eax),%al
 80489a4:	02 00                	add    (%eax),%al
 80489a6:	02 00                	add    (%eax),%al
 80489a8:	02 00                	add    (%eax),%al
 80489aa:	02 00                	add    (%eax),%al
 80489ac:	02 00                	add    (%eax),%al
 80489ae:	02 00                	add    (%eax),%al
 80489b0:	02 00                	add    (%eax),%al
 80489b2:	02 00                	add    (%eax),%al
 80489b4:	02 00                	add    (%eax),%al
 80489b6:	02 00                	add    (%eax),%al
 80489b8:	02 00                	add    (%eax),%al
 80489ba:	02 00                	add    (%eax),%al
 80489bc:	01 00                	add    %eax,(%eax)
 80489be:	02 00                	add    (%eax),%al
Disassembly of section .gnu.version_r:

080489c0 <.gnu.version_r>:
 80489c0:	01 00                	add    %eax,(%eax)
 80489c2:	03 00                	add    (%eax),%eax
 80489c4:	10 00                	adc    %al,(%eax)
 80489c6:	00 00                	add    %al,(%eax)
 80489c8:	10 00                	adc    %al,(%eax)
 80489ca:	00 00                	add    %al,(%eax)
 80489cc:	00 00                	add    %al,(%eax)
 80489ce:	00 00                	add    %al,(%eax)
 80489d0:	13 69 69             	adc    0x69(%ecx),%ebp
 80489d3:	0d 00 00 04 00       	or     $0x40000,%eax
 80489d8:	e1 01                	loope  80489db <_init-0x22d>
 80489da:	00 00                	add    %al,(%eax)
 80489dc:	10 00                	adc    %al,(%eax)
 80489de:	00 00                	add    %al,(%eax)
 80489e0:	11 69 69             	adc    %ebp,0x69(%ecx)
 80489e3:	0d 00 00 03 00       	or     $0x30000,%eax
 80489e8:	eb 01                	jmp    80489eb <_init-0x21d>
 80489ea:	00 00                	add    %al,(%eax)
 80489ec:	10 00                	adc    %al,(%eax)
 80489ee:	00 00                	add    %al,(%eax)
 80489f0:	10 69 69             	adc    %ch,0x69(%ecx)
 80489f3:	0d 00 00 02 00       	or     $0x20000,%eax
 80489f8:	f5                   	cmc    
 80489f9:	01 00                	add    %eax,(%eax)
 80489fb:	00 00                	add    %al,(%eax)
 80489fd:	00 00                	add    %al,(%eax)
	...
Disassembly of section .rel.dyn:

08048a00 <.rel.dyn>:
 8048a00:	f0 c2 04 08          	lock ret $0x804
 8048a04:	06                   	push   %es
 8048a05:	09 00                	or     %eax,(%eax)
 8048a07:	00 40 df             	add    %al,-0x21(%eax)
 8048a0a:	04 08                	add    $0x8,%al
 8048a0c:	05 41 00 00 60       	add    $0x60000041,%eax
 8048a11:	df 04 08             	fild   (%eax,%ecx,1)
 8048a14:	05                   	.byte 0x5
 8048a15:	3f                   	aas    
	...
Disassembly of section .rel.plt:

08048a18 <.rel.plt>:
 8048a18:	00 c3                	add    %al,%bl
 8048a1a:	04 08                	add    $0x8,%al
 8048a1c:	07                   	pop    %es
 8048a1d:	01 00                	add    %eax,(%eax)
 8048a1f:	00 04 c3             	add    %al,(%ebx,%eax,8)
 8048a22:	04 08                	add    $0x8,%al
 8048a24:	07                   	pop    %es
 8048a25:	02 00                	add    (%eax),%al
 8048a27:	00 08                	add    %cl,(%eax)
 8048a29:	c3                   	ret    
 8048a2a:	04 08                	add    $0x8,%al
 8048a2c:	07                   	pop    %es
 8048a2d:	03 00                	add    (%eax),%eax
 8048a2f:	00 0c c3             	add    %cl,(%ebx,%eax,8)
 8048a32:	04 08                	add    $0x8,%al
 8048a34:	07                   	pop    %es
 8048a35:	04 00                	add    $0x0,%al
 8048a37:	00 10                	add    %dl,(%eax)
 8048a39:	c3                   	ret    
 8048a3a:	04 08                	add    $0x8,%al
 8048a3c:	07                   	pop    %es
 8048a3d:	05 00 00 14 c3       	add    $0xc3140000,%eax
 8048a42:	04 08                	add    $0x8,%al
 8048a44:	07                   	pop    %es
 8048a45:	06                   	push   %es
 8048a46:	00 00                	add    %al,(%eax)
 8048a48:	18 c3                	sbb    %al,%bl
 8048a4a:	04 08                	add    $0x8,%al
 8048a4c:	07                   	pop    %es
 8048a4d:	07                   	pop    %es
 8048a4e:	00 00                	add    %al,(%eax)
 8048a50:	1c c3                	sbb    $0xc3,%al
 8048a52:	04 08                	add    $0x8,%al
 8048a54:	07                   	pop    %es
 8048a55:	08 00                	or     %al,(%eax)
 8048a57:	00 20                	add    %ah,(%eax)
 8048a59:	c3                   	ret    
 8048a5a:	04 08                	add    $0x8,%al
 8048a5c:	07                   	pop    %es
 8048a5d:	09 00                	or     %eax,(%eax)
 8048a5f:	00 24 c3             	add    %ah,(%ebx,%eax,8)
 8048a62:	04 08                	add    $0x8,%al
 8048a64:	07                   	pop    %es
 8048a65:	0a 00                	or     (%eax),%al
 8048a67:	00 28                	add    %ch,(%eax)
 8048a69:	c3                   	ret    
 8048a6a:	04 08                	add    $0x8,%al
 8048a6c:	07                   	pop    %es
 8048a6d:	0b 00                	or     (%eax),%eax
 8048a6f:	00 2c c3             	add    %ch,(%ebx,%eax,8)
 8048a72:	04 08                	add    $0x8,%al
 8048a74:	07                   	pop    %es
 8048a75:	0c 00                	or     $0x0,%al
 8048a77:	00 30                	add    %dh,(%eax)
 8048a79:	c3                   	ret    
 8048a7a:	04 08                	add    $0x8,%al
 8048a7c:	07                   	pop    %es
 8048a7d:	0d 00 00 34 c3       	or     $0xc3340000,%eax
 8048a82:	04 08                	add    $0x8,%al
 8048a84:	07                   	pop    %es
 8048a85:	0e                   	push   %cs
 8048a86:	00 00                	add    %al,(%eax)
 8048a88:	38 c3                	cmp    %al,%bl
 8048a8a:	04 08                	add    $0x8,%al
 8048a8c:	07                   	pop    %es
 8048a8d:	0f 00 00             	sldt   (%eax)
 8048a90:	3c c3                	cmp    $0xc3,%al
 8048a92:	04 08                	add    $0x8,%al
 8048a94:	07                   	pop    %es
 8048a95:	10 00                	adc    %al,(%eax)
 8048a97:	00 40 c3             	add    %al,-0x3d(%eax)
 8048a9a:	04 08                	add    $0x8,%al
 8048a9c:	07                   	pop    %es
 8048a9d:	11 00                	adc    %eax,(%eax)
 8048a9f:	00 44 c3 04          	add    %al,0x4(%ebx,%eax,8)
 8048aa3:	08 07                	or     %al,(%edi)
 8048aa5:	12 00                	adc    (%eax),%al
 8048aa7:	00 48 c3             	add    %cl,-0x3d(%eax)
 8048aaa:	04 08                	add    $0x8,%al
 8048aac:	07                   	pop    %es
 8048aad:	13 00                	adc    (%eax),%eax
 8048aaf:	00 4c c3 04          	add    %cl,0x4(%ebx,%eax,8)
 8048ab3:	08 07                	or     %al,(%edi)
 8048ab5:	14 00                	adc    $0x0,%al
 8048ab7:	00 50 c3             	add    %dl,-0x3d(%eax)
 8048aba:	04 08                	add    $0x8,%al
 8048abc:	07                   	pop    %es
 8048abd:	15 00 00 54 c3       	adc    $0xc3540000,%eax
 8048ac2:	04 08                	add    $0x8,%al
 8048ac4:	07                   	pop    %es
 8048ac5:	16                   	push   %ss
 8048ac6:	00 00                	add    %al,(%eax)
 8048ac8:	58                   	pop    %eax
 8048ac9:	c3                   	ret    
 8048aca:	04 08                	add    $0x8,%al
 8048acc:	07                   	pop    %es
 8048acd:	17                   	pop    %ss
 8048ace:	00 00                	add    %al,(%eax)
 8048ad0:	5c                   	pop    %esp
 8048ad1:	c3                   	ret    
 8048ad2:	04 08                	add    $0x8,%al
 8048ad4:	07                   	pop    %es
 8048ad5:	18 00                	sbb    %al,(%eax)
 8048ad7:	00 60 c3             	add    %ah,-0x3d(%eax)
 8048ada:	04 08                	add    $0x8,%al
 8048adc:	07                   	pop    %es
 8048add:	19 00                	sbb    %eax,(%eax)
 8048adf:	00 64 c3 04          	add    %ah,0x4(%ebx,%eax,8)
 8048ae3:	08 07                	or     %al,(%edi)
 8048ae5:	1a 00                	sbb    (%eax),%al
 8048ae7:	00 68 c3             	add    %ch,-0x3d(%eax)
 8048aea:	04 08                	add    $0x8,%al
 8048aec:	07                   	pop    %es
 8048aed:	1b 00                	sbb    (%eax),%eax
 8048aef:	00 6c c3 04          	add    %ch,0x4(%ebx,%eax,8)
 8048af3:	08 07                	or     %al,(%edi)
 8048af5:	1c 00                	sbb    $0x0,%al
 8048af7:	00 70 c3             	add    %dh,-0x3d(%eax)
 8048afa:	04 08                	add    $0x8,%al
 8048afc:	07                   	pop    %es
 8048afd:	1d 00 00 74 c3       	sbb    $0xc3740000,%eax
 8048b02:	04 08                	add    $0x8,%al
 8048b04:	07                   	pop    %es
 8048b05:	1e                   	push   %ds
 8048b06:	00 00                	add    %al,(%eax)
 8048b08:	78 c3                	js     8048acd <_init-0x13b>
 8048b0a:	04 08                	add    $0x8,%al
 8048b0c:	07                   	pop    %es
 8048b0d:	1f                   	pop    %ds
 8048b0e:	00 00                	add    %al,(%eax)
 8048b10:	7c c3                	jl     8048ad5 <_init-0x133>
 8048b12:	04 08                	add    $0x8,%al
 8048b14:	07                   	pop    %es
 8048b15:	20 00                	and    %al,(%eax)
 8048b17:	00 80 c3 04 08 07    	add    %al,0x70804c3(%eax)
 8048b1d:	21 00                	and    %eax,(%eax)
 8048b1f:	00 84 c3 04 08 07 22 	add    %al,0x22070804(%ebx,%eax,8)
 8048b26:	00 00                	add    %al,(%eax)
 8048b28:	88 c3                	mov    %al,%bl
 8048b2a:	04 08                	add    $0x8,%al
 8048b2c:	07                   	pop    %es
 8048b2d:	23 00                	and    (%eax),%eax
 8048b2f:	00 8c c3 04 08 07 24 	add    %cl,0x24070804(%ebx,%eax,8)
 8048b36:	00 00                	add    %al,(%eax)
 8048b38:	90                   	nop    
 8048b39:	c3                   	ret    
 8048b3a:	04 08                	add    $0x8,%al
 8048b3c:	07                   	pop    %es
 8048b3d:	25 00 00 94 c3       	and    $0xc3940000,%eax
 8048b42:	04 08                	add    $0x8,%al
 8048b44:	07                   	pop    %es
 8048b45:	26 00 00             	add    %al,%es:(%eax)
 8048b48:	98                   	cwtl   
 8048b49:	c3                   	ret    
 8048b4a:	04 08                	add    $0x8,%al
 8048b4c:	07                   	pop    %es
 8048b4d:	3e 00 00             	add    %al,%ds:(%eax)
 8048b50:	9c                   	pushf  
 8048b51:	c3                   	ret    
 8048b52:	04 08                	add    $0x8,%al
 8048b54:	07                   	pop    %es
 8048b55:	27                   	daa    
 8048b56:	00 00                	add    %al,(%eax)
 8048b58:	a0 c3 04 08 07       	mov    0x70804c3,%al
 8048b5d:	28 00                	sub    %al,(%eax)
 8048b5f:	00 a4 c3 04 08 07 29 	add    %ah,0x29070804(%ebx,%eax,8)
 8048b66:	00 00                	add    %al,(%eax)
 8048b68:	a8 c3                	test   $0xc3,%al
 8048b6a:	04 08                	add    $0x8,%al
 8048b6c:	07                   	pop    %es
 8048b6d:	2a 00                	sub    (%eax),%al
 8048b6f:	00 ac c3 04 08 07 2b 	add    %ch,0x2b070804(%ebx,%eax,8)
 8048b76:	00 00                	add    %al,(%eax)
 8048b78:	b0 c3                	mov    $0xc3,%al
 8048b7a:	04 08                	add    $0x8,%al
 8048b7c:	07                   	pop    %es
 8048b7d:	2c 00                	sub    $0x0,%al
 8048b7f:	00 b4 c3 04 08 07 2d 	add    %dh,0x2d070804(%ebx,%eax,8)
 8048b86:	00 00                	add    %al,(%eax)
 8048b88:	b8 c3 04 08 07       	mov    $0x70804c3,%eax
 8048b8d:	2e 00 00             	add    %al,%cs:(%eax)
 8048b90:	bc c3 04 08 07       	mov    $0x70804c3,%esp
 8048b95:	2f                   	das    
 8048b96:	00 00                	add    %al,(%eax)
 8048b98:	c0 c3 04             	rol    $0x4,%bl
 8048b9b:	08 07                	or     %al,(%edi)
 8048b9d:	30 00                	xor    %al,(%eax)
 8048b9f:	00 c4                	add    %al,%ah
 8048ba1:	c3                   	ret    
 8048ba2:	04 08                	add    $0x8,%al
 8048ba4:	07                   	pop    %es
 8048ba5:	31 00                	xor    %eax,(%eax)
 8048ba7:	00 c8                	add    %cl,%al
 8048ba9:	c3                   	ret    
 8048baa:	04 08                	add    $0x8,%al
 8048bac:	07                   	pop    %es
 8048bad:	32 00                	xor    (%eax),%al
 8048baf:	00 cc                	add    %cl,%ah
 8048bb1:	c3                   	ret    
 8048bb2:	04 08                	add    $0x8,%al
 8048bb4:	07                   	pop    %es
 8048bb5:	33 00                	xor    (%eax),%eax
 8048bb7:	00 d0                	add    %dl,%al
 8048bb9:	c3                   	ret    
 8048bba:	04 08                	add    $0x8,%al
 8048bbc:	07                   	pop    %es
 8048bbd:	34 00                	xor    $0x0,%al
 8048bbf:	00 d4                	add    %dl,%ah
 8048bc1:	c3                   	ret    
 8048bc2:	04 08                	add    $0x8,%al
 8048bc4:	07                   	pop    %es
 8048bc5:	35 00 00 d8 c3       	xor    $0xc3d80000,%eax
 8048bca:	04 08                	add    $0x8,%al
 8048bcc:	07                   	pop    %es
 8048bcd:	36 00 00             	add    %al,%ss:(%eax)
 8048bd0:	dc c3                	fadd   %st,%st(3)
 8048bd2:	04 08                	add    $0x8,%al
 8048bd4:	07                   	pop    %es
 8048bd5:	37                   	aaa    
 8048bd6:	00 00                	add    %al,(%eax)
 8048bd8:	e0 c3                	loopne 8048b9d <_init-0x6b>
 8048bda:	04 08                	add    $0x8,%al
 8048bdc:	07                   	pop    %es
 8048bdd:	38 00                	cmp    %al,(%eax)
 8048bdf:	00 e4                	add    %ah,%ah
 8048be1:	c3                   	ret    
 8048be2:	04 08                	add    $0x8,%al
 8048be4:	07                   	pop    %es
 8048be5:	39 00                	cmp    %eax,(%eax)
 8048be7:	00 e8                	add    %ch,%al
 8048be9:	c3                   	ret    
 8048bea:	04 08                	add    $0x8,%al
 8048bec:	07                   	pop    %es
 8048bed:	3a 00                	cmp    (%eax),%al
 8048bef:	00 ec                	add    %ch,%ah
 8048bf1:	c3                   	ret    
 8048bf2:	04 08                	add    $0x8,%al
 8048bf4:	07                   	pop    %es
 8048bf5:	3b 00                	cmp    (%eax),%eax
 8048bf7:	00 f0                	add    %dh,%al
 8048bf9:	c3                   	ret    
 8048bfa:	04 08                	add    $0x8,%al
 8048bfc:	07                   	pop    %es
 8048bfd:	3c 00                	cmp    $0x0,%al
 8048bff:	00 f4                	add    %dh,%ah
 8048c01:	c3                   	ret    
 8048c02:	04 08                	add    $0x8,%al
 8048c04:	07                   	pop    %es
 8048c05:	3d                   	.byte 0x3d
	...
Disassembly of section .init:

08048c08 <_init>:
 8048c08:	55                   	push   %ebp
 8048c09:	89 e5                	mov    %esp,%ebp
 8048c0b:	53                   	push   %ebx
 8048c0c:	83 ec 04             	sub    $0x4,%esp
 8048c0f:	e8 00 00 00 00       	call   8048c14 <_init+0xc>
 8048c14:	5b                   	pop    %ebx
 8048c15:	81 c3 e0 36 00 00    	add    $0x36e0,%ebx
 8048c1b:	8b 93 fc ff ff ff    	mov    -0x4(%ebx),%edx
 8048c21:	85 d2                	test   %edx,%edx
 8048c23:	74 05                	je     8048c2a <_init+0x22>
 8048c25:	e8 9e 00 00 00       	call   8048cc8 <__gmon_start__@plt>
 8048c2a:	e8 61 04 00 00       	call   8049090 <frame_dummy>
 8048c2f:	e8 5c 1f 00 00       	call   804ab90 <__do_global_ctors_aux>
 8048c34:	58                   	pop    %eax
 8048c35:	5b                   	pop    %ebx
 8048c36:	c9                   	leave  
 8048c37:	c3                   	ret    
Disassembly of section .plt:

08048c38 <fputs@plt-0x10>:
 8048c38:	ff 35 f8 c2 04 08    	pushl  0x804c2f8
 8048c3e:	ff 25 fc c2 04 08    	jmp    *0x804c2fc
 8048c44:	00 00                	add    %al,(%eax)
	...

08048c48 <fputs@plt>:
 8048c48:	ff 25 00 c3 04 08    	jmp    *0x804c300
 8048c4e:	68 00 00 00 00       	push   $0x0
 8048c53:	e9 e0 ff ff ff       	jmp    8048c38 <_init+0x30>

08048c58 <sprintf@plt>:
 8048c58:	ff 25 04 c3 04 08    	jmp    *0x804c304
 8048c5e:	68 08 00 00 00       	push   $0x8
 8048c63:	e9 d0 ff ff ff       	jmp    8048c38 <_init+0x30>

08048c68 <getpid@plt>:
 8048c68:	ff 25 08 c3 04 08    	jmp    *0x804c308
 8048c6e:	68 10 00 00 00       	push   $0x10
 8048c73:	e9 c0 ff ff ff       	jmp    8048c38 <_init+0x30>

08048c78 <setbuf@plt>:
 8048c78:	ff 25 0c c3 04 08    	jmp    *0x804c30c
 8048c7e:	68 18 00 00 00       	push   $0x18
 8048c83:	e9 b0 ff ff ff       	jmp    8048c38 <_init+0x30>

08048c88 <inet_ntoa@plt>:
 8048c88:	ff 25 10 c3 04 08    	jmp    *0x804c310
 8048c8e:	68 20 00 00 00       	push   $0x20
 8048c93:	e9 a0 ff ff ff       	jmp    8048c38 <_init+0x30>

08048c98 <syslog@plt>:
 8048c98:	ff 25 14 c3 04 08    	jmp    *0x804c314
 8048c9e:	68 28 00 00 00       	push   $0x28
 8048ca3:	e9 90 ff ff ff       	jmp    8048c38 <_init+0x30>

08048ca8 <signal@plt>:
 8048ca8:	ff 25 18 c3 04 08    	jmp    *0x804c318
 8048cae:	68 30 00 00 00       	push   $0x30
 8048cb3:	e9 80 ff ff ff       	jmp    8048c38 <_init+0x30>

08048cb8 <__xstat@plt>:
 8048cb8:	ff 25 1c c3 04 08    	jmp    *0x804c31c
 8048cbe:	68 38 00 00 00       	push   $0x38
 8048cc3:	e9 70 ff ff ff       	jmp    8048c38 <_init+0x30>

08048cc8 <__gmon_start__@plt>:
 8048cc8:	ff 25 20 c3 04 08    	jmp    *0x804c320
 8048cce:	68 40 00 00 00       	push   $0x40
 8048cd3:	e9 60 ff ff ff       	jmp    8048c38 <_init+0x30>

08048cd8 <vsprintf@plt>:
 8048cd8:	ff 25 24 c3 04 08    	jmp    *0x804c324
 8048cde:	68 48 00 00 00       	push   $0x48
 8048ce3:	e9 50 ff ff ff       	jmp    8048c38 <_init+0x30>

08048ce8 <localtime@plt>:
 8048ce8:	ff 25 28 c3 04 08    	jmp    *0x804c328
 8048cee:	68 50 00 00 00       	push   $0x50
 8048cf3:	e9 40 ff ff ff       	jmp    8048c38 <_init+0x30>

08048cf8 <strchr@plt>:
 8048cf8:	ff 25 2c c3 04 08    	jmp    *0x804c32c
 8048cfe:	68 58 00 00 00       	push   $0x58
 8048d03:	e9 30 ff ff ff       	jmp    8048c38 <_init+0x30>

08048d08 <recv@plt>:
 8048d08:	ff 25 30 c3 04 08    	jmp    *0x804c330
 8048d0e:	68 60 00 00 00       	push   $0x60
 8048d13:	e9 20 ff ff ff       	jmp    8048c38 <_init+0x30>

08048d18 <listen@plt>:
 8048d18:	ff 25 34 c3 04 08    	jmp    *0x804c334
 8048d1e:	68 68 00 00 00       	push   $0x68
 8048d23:	e9 10 ff ff ff       	jmp    8048c38 <_init+0x30>

08048d28 <fgets@plt>:
 8048d28:	ff 25 38 c3 04 08    	jmp    *0x804c338
 8048d2e:	68 70 00 00 00       	push   $0x70
 8048d33:	e9 00 ff ff ff       	jmp    8048c38 <_init+0x30>

08048d38 <memset@plt>:
 8048d38:	ff 25 3c c3 04 08    	jmp    *0x804c33c
 8048d3e:	68 78 00 00 00       	push   $0x78
 8048d43:	e9 f0 fe ff ff       	jmp    8048c38 <_init+0x30>

08048d48 <scandir@plt>:
 8048d48:	ff 25 40 c3 04 08    	jmp    *0x804c340
 8048d4e:	68 80 00 00 00       	push   $0x80
 8048d53:	e9 e0 fe ff ff       	jmp    8048c38 <_init+0x30>

08048d58 <__libc_start_main@plt>:
 8048d58:	ff 25 44 c3 04 08    	jmp    *0x804c344
 8048d5e:	68 88 00 00 00       	push   $0x88
 8048d63:	e9 d0 fe ff ff       	jmp    8048c38 <_init+0x30>

08048d68 <perror@plt>:
 8048d68:	ff 25 48 c3 04 08    	jmp    *0x804c348
 8048d6e:	68 90 00 00 00       	push   $0x90
 8048d73:	e9 c0 fe ff ff       	jmp    8048c38 <_init+0x30>

08048d78 <strtol@plt>:
 8048d78:	ff 25 4c c3 04 08    	jmp    *0x804c34c
 8048d7e:	68 98 00 00 00       	push   $0x98
 8048d83:	e9 b0 fe ff ff       	jmp    8048c38 <_init+0x30>

08048d88 <openlog@plt>:
 8048d88:	ff 25 50 c3 04 08    	jmp    *0x804c350
 8048d8e:	68 a0 00 00 00       	push   $0xa0
 8048d93:	e9 a0 fe ff ff       	jmp    8048c38 <_init+0x30>

08048d98 <accept@plt>:
 8048d98:	ff 25 54 c3 04 08    	jmp    *0x804c354
 8048d9e:	68 a8 00 00 00       	push   $0xa8
 8048da3:	e9 90 fe ff ff       	jmp    8048c38 <_init+0x30>

08048da8 <socket@plt>:
 8048da8:	ff 25 58 c3 04 08    	jmp    *0x804c358
 8048dae:	68 b0 00 00 00       	push   $0xb0
 8048db3:	e9 80 fe ff ff       	jmp    8048c38 <_init+0x30>

08048db8 <dup2@plt>:
 8048db8:	ff 25 5c c3 04 08    	jmp    *0x804c35c
 8048dbe:	68 b8 00 00 00       	push   $0xb8
 8048dc3:	e9 70 fe ff ff       	jmp    8048c38 <_init+0x30>

08048dc8 <fseek@plt>:
 8048dc8:	ff 25 60 c3 04 08    	jmp    *0x804c360
 8048dce:	68 c0 00 00 00       	push   $0xc0
 8048dd3:	e9 60 fe ff ff       	jmp    8048c38 <_init+0x30>

08048dd8 <execlp@plt>:
 8048dd8:	ff 25 64 c3 04 08    	jmp    *0x804c364
 8048dde:	68 c8 00 00 00       	push   $0xc8
 8048de3:	e9 50 fe ff ff       	jmp    8048c38 <_init+0x30>

08048de8 <fclose@plt>:
 8048de8:	ff 25 68 c3 04 08    	jmp    *0x804c368
 8048dee:	68 d0 00 00 00       	push   $0xd0
 8048df3:	e9 40 fe ff ff       	jmp    8048c38 <_init+0x30>

08048df8 <setuid@plt>:
 8048df8:	ff 25 6c c3 04 08    	jmp    *0x804c36c
 8048dfe:	68 d8 00 00 00       	push   $0xd8
 8048e03:	e9 30 fe ff ff       	jmp    8048c38 <_init+0x30>

08048e08 <memcpy@plt>:
 8048e08:	ff 25 70 c3 04 08    	jmp    *0x804c370
 8048e0e:	68 e0 00 00 00       	push   $0xe0
 8048e13:	e9 20 fe ff ff       	jmp    8048c38 <_init+0x30>

08048e18 <strlen@plt>:
 8048e18:	ff 25 74 c3 04 08    	jmp    *0x804c374
 8048e1e:	68 e8 00 00 00       	push   $0xe8
 8048e23:	e9 10 fe ff ff       	jmp    8048c38 <_init+0x30>

08048e28 <fopen@plt>:
 8048e28:	ff 25 78 c3 04 08    	jmp    *0x804c378
 8048e2e:	68 f0 00 00 00       	push   $0xf0
 8048e33:	e9 00 fe ff ff       	jmp    8048c38 <_init+0x30>

08048e38 <waitpid@plt>:
 8048e38:	ff 25 7c c3 04 08    	jmp    *0x804c37c
 8048e3e:	68 f8 00 00 00       	push   $0xf8
 8048e43:	e9 f0 fd ff ff       	jmp    8048c38 <_init+0x30>

08048e48 <feof@plt>:
 8048e48:	ff 25 80 c3 04 08    	jmp    *0x804c380
 8048e4e:	68 00 01 00 00       	push   $0x100
 8048e53:	e9 e0 fd ff ff       	jmp    8048c38 <_init+0x30>

08048e58 <strcpy@plt>:
 8048e58:	ff 25 84 c3 04 08    	jmp    *0x804c384
 8048e5e:	68 08 01 00 00       	push   $0x108
 8048e63:	e9 d0 fd ff ff       	jmp    8048c38 <_init+0x30>

08048e68 <ftell@plt>:
 8048e68:	ff 25 88 c3 04 08    	jmp    *0x804c388
 8048e6e:	68 10 01 00 00       	push   $0x110
 8048e73:	e9 c0 fd ff ff       	jmp    8048c38 <_init+0x30>

08048e78 <printf@plt>:
 8048e78:	ff 25 8c c3 04 08    	jmp    *0x804c38c
 8048e7e:	68 18 01 00 00       	push   $0x118
 8048e83:	e9 b0 fd ff ff       	jmp    8048c38 <_init+0x30>

08048e88 <chdir@plt>:
 8048e88:	ff 25 90 c3 04 08    	jmp    *0x804c390
 8048e8e:	68 20 01 00 00       	push   $0x120
 8048e93:	e9 a0 fd ff ff       	jmp    8048c38 <_init+0x30>

08048e98 <bind@plt>:
 8048e98:	ff 25 94 c3 04 08    	jmp    *0x804c394
 8048e9e:	68 28 01 00 00       	push   $0x128
 8048ea3:	e9 90 fd ff ff       	jmp    8048c38 <_init+0x30>

08048ea8 <alphasort@plt>:
 8048ea8:	ff 25 98 c3 04 08    	jmp    *0x804c398
 8048eae:	68 30 01 00 00       	push   $0x130
 8048eb3:	e9 80 fd ff ff       	jmp    8048c38 <_init+0x30>

08048eb8 <select@plt>:
 8048eb8:	ff 25 9c c3 04 08    	jmp    *0x804c39c
 8048ebe:	68 38 01 00 00       	push   $0x138
 8048ec3:	e9 70 fd ff ff       	jmp    8048c38 <_init+0x30>

08048ec8 <close@plt>:
 8048ec8:	ff 25 a0 c3 04 08    	jmp    *0x804c3a0
 8048ece:	68 40 01 00 00       	push   $0x140
 8048ed3:	e9 60 fd ff ff       	jmp    8048c38 <_init+0x30>

08048ed8 <strstr@plt>:
 8048ed8:	ff 25 a4 c3 04 08    	jmp    *0x804c3a4
 8048ede:	68 48 01 00 00       	push   $0x148
 8048ee3:	e9 50 fd ff ff       	jmp    8048c38 <_init+0x30>

08048ee8 <time@plt>:
 8048ee8:	ff 25 a8 c3 04 08    	jmp    *0x804c3a8
 8048eee:	68 50 01 00 00       	push   $0x150
 8048ef3:	e9 40 fd ff ff       	jmp    8048c38 <_init+0x30>

08048ef8 <strncat@plt>:
 8048ef8:	ff 25 ac c3 04 08    	jmp    *0x804c3ac
 8048efe:	68 58 01 00 00       	push   $0x158
 8048f03:	e9 30 fd ff ff       	jmp    8048c38 <_init+0x30>

08048f08 <malloc@plt>:
 8048f08:	ff 25 b0 c3 04 08    	jmp    *0x804c3b0
 8048f0e:	68 60 01 00 00       	push   $0x160
 8048f13:	e9 20 fd ff ff       	jmp    8048c38 <_init+0x30>

08048f18 <strtok@plt>:
 8048f18:	ff 25 b4 c3 04 08    	jmp    *0x804c3b4
 8048f1e:	68 68 01 00 00       	push   $0x168
 8048f23:	e9 10 fd ff ff       	jmp    8048c38 <_init+0x30>

08048f28 <__ctype_tolower_loc@plt>:
 8048f28:	ff 25 b8 c3 04 08    	jmp    *0x804c3b8
 8048f2e:	68 70 01 00 00       	push   $0x170
 8048f33:	e9 00 fd ff ff       	jmp    8048c38 <_init+0x30>

08048f38 <strcat@plt>:
 8048f38:	ff 25 bc c3 04 08    	jmp    *0x804c3bc
 8048f3e:	68 78 01 00 00       	push   $0x178
 8048f43:	e9 f0 fc ff ff       	jmp    8048c38 <_init+0x30>

08048f48 <send@plt>:
 8048f48:	ff 25 c0 c3 04 08    	jmp    *0x804c3c0
 8048f4e:	68 80 01 00 00       	push   $0x180
 8048f53:	e9 e0 fc ff ff       	jmp    8048c38 <_init+0x30>

08048f58 <puts@plt>:
 8048f58:	ff 25 c4 c3 04 08    	jmp    *0x804c3c4
 8048f5e:	68 88 01 00 00       	push   $0x188
 8048f63:	e9 d0 fc ff ff       	jmp    8048c38 <_init+0x30>

08048f68 <fork@plt>:
 8048f68:	ff 25 c8 c3 04 08    	jmp    *0x804c3c8
 8048f6e:	68 90 01 00 00       	push   $0x190
 8048f73:	e9 c0 fc ff ff       	jmp    8048c38 <_init+0x30>

08048f78 <setsockopt@plt>:
 8048f78:	ff 25 cc c3 04 08    	jmp    *0x804c3cc
 8048f7e:	68 98 01 00 00       	push   $0x198
 8048f83:	e9 b0 fc ff ff       	jmp    8048c38 <_init+0x30>

08048f88 <strncmp@plt>:
 8048f88:	ff 25 d0 c3 04 08    	jmp    *0x804c3d0
 8048f8e:	68 a0 01 00 00       	push   $0x1a0
 8048f93:	e9 a0 fc ff ff       	jmp    8048c38 <_init+0x30>

08048f98 <fread@plt>:
 8048f98:	ff 25 d4 c3 04 08    	jmp    *0x804c3d4
 8048f9e:	68 a8 01 00 00       	push   $0x1a8
 8048fa3:	e9 90 fc ff ff       	jmp    8048c38 <_init+0x30>

08048fa8 <closelog@plt>:
 8048fa8:	ff 25 d8 c3 04 08    	jmp    *0x804c3d8
 8048fae:	68 b0 01 00 00       	push   $0x1b0
 8048fb3:	e9 80 fc ff ff       	jmp    8048c38 <_init+0x30>

08048fb8 <strftime@plt>:
 8048fb8:	ff 25 dc c3 04 08    	jmp    *0x804c3dc
 8048fbe:	68 b8 01 00 00       	push   $0x1b8
 8048fc3:	e9 70 fc ff ff       	jmp    8048c38 <_init+0x30>

08048fc8 <setgid@plt>:
 8048fc8:	ff 25 e0 c3 04 08    	jmp    *0x804c3e0
 8048fce:	68 c0 01 00 00       	push   $0x1c0
 8048fd3:	e9 60 fc ff ff       	jmp    8048c38 <_init+0x30>

08048fd8 <getpeername@plt>:
 8048fd8:	ff 25 e4 c3 04 08    	jmp    *0x804c3e4
 8048fde:	68 c8 01 00 00       	push   $0x1c8
 8048fe3:	e9 50 fc ff ff       	jmp    8048c38 <_init+0x30>

08048fe8 <getpwnam@plt>:
 8048fe8:	ff 25 e8 c3 04 08    	jmp    *0x804c3e8
 8048fee:	68 d0 01 00 00       	push   $0x1d0
 8048ff3:	e9 40 fc ff ff       	jmp    8048c38 <_init+0x30>

08048ff8 <strcmp@plt>:
 8048ff8:	ff 25 ec c3 04 08    	jmp    *0x804c3ec
 8048ffe:	68 d8 01 00 00       	push   $0x1d8
 8049003:	e9 30 fc ff ff       	jmp    8048c38 <_init+0x30>

08049008 <setenv@plt>:
 8049008:	ff 25 f0 c3 04 08    	jmp    *0x804c3f0
 804900e:	68 e0 01 00 00       	push   $0x1e0
 8049013:	e9 20 fc ff ff       	jmp    8048c38 <_init+0x30>

08049018 <exit@plt>:
 8049018:	ff 25 f4 c3 04 08    	jmp    *0x804c3f4
 804901e:	68 e8 01 00 00       	push   $0x1e8
 8049023:	e9 10 fc ff ff       	jmp    8048c38 <_init+0x30>
Disassembly of section .text:

08049030 <_start>:
 8049030:	31 ed                	xor    %ebp,%ebp
 8049032:	5e                   	pop    %esi
 8049033:	89 e1                	mov    %esp,%ecx
 8049035:	83 e4 f0             	and    $0xfffffff0,%esp
 8049038:	50                   	push   %eax
 8049039:	54                   	push   %esp
 804903a:	52                   	push   %edx
 804903b:	68 20 ab 04 08       	push   $0x804ab20
 8049040:	68 30 ab 04 08       	push   $0x804ab30
 8049045:	51                   	push   %ecx
 8049046:	56                   	push   %esi
 8049047:	68 f0 91 04 08       	push   $0x80491f0
 804904c:	e8 07 fd ff ff       	call   8048d58 <__libc_start_main@plt>
 8049051:	f4                   	hlt    
 8049052:	90                   	nop    
 8049053:	90                   	nop    
 8049054:	90                   	nop    
 8049055:	90                   	nop    
 8049056:	90                   	nop    
 8049057:	90                   	nop    
 8049058:	90                   	nop    
 8049059:	90                   	nop    
 804905a:	90                   	nop    
 804905b:	90                   	nop    
 804905c:	90                   	nop    
 804905d:	90                   	nop    
 804905e:	90                   	nop    
 804905f:	90                   	nop    

08049060 <__do_global_dtors_aux>:
 8049060:	55                   	push   %ebp
 8049061:	89 e5                	mov    %esp,%ebp
 8049063:	83 ec 08             	sub    $0x8,%esp
 8049066:	80 3d 64 df 04 08 00 	cmpb   $0x0,0x804df64
 804906d:	74 0c                	je     804907b <__do_global_dtors_aux+0x1b>
 804906f:	eb 1c                	jmp    804908d <__do_global_dtors_aux+0x2d>
 8049071:	83 c0 04             	add    $0x4,%eax
 8049074:	a3 08 c4 04 08       	mov    %eax,0x804c408
 8049079:	ff d2                	call   *%edx
 804907b:	a1 08 c4 04 08       	mov    0x804c408,%eax
 8049080:	8b 10                	mov    (%eax),%edx
 8049082:	85 d2                	test   %edx,%edx
 8049084:	75 eb                	jne    8049071 <__do_global_dtors_aux+0x11>
 8049086:	c6 05 64 df 04 08 01 	movb   $0x1,0x804df64
 804908d:	c9                   	leave  
 804908e:	c3                   	ret    
 804908f:	90                   	nop    

08049090 <frame_dummy>:
 8049090:	55                   	push   %ebp
 8049091:	89 e5                	mov    %esp,%ebp
 8049093:	83 ec 08             	sub    $0x8,%esp
 8049096:	a1 1c c2 04 08       	mov    0x804c21c,%eax
 804909b:	85 c0                	test   %eax,%eax
 804909d:	74 12                	je     80490b1 <frame_dummy+0x21>
 804909f:	b8 00 00 00 00       	mov    $0x0,%eax
 80490a4:	85 c0                	test   %eax,%eax
 80490a6:	74 09                	je     80490b1 <frame_dummy+0x21>
 80490a8:	c7 04 24 1c c2 04 08 	movl   $0x804c21c,(%esp)
 80490af:	ff d0                	call   *%eax
 80490b1:	c9                   	leave  
 80490b2:	c3                   	ret    
 80490b3:	90                   	nop    
 80490b4:	90                   	nop    
 80490b5:	90                   	nop    
 80490b6:	90                   	nop    
 80490b7:	90                   	nop    
 80490b8:	90                   	nop    
 80490b9:	90                   	nop    
 80490ba:	90                   	nop    
 80490bb:	90                   	nop    
 80490bc:	90                   	nop    
 80490bd:	90                   	nop    
 80490be:	90                   	nop    
 80490bf:	90                   	nop    

080490c0 <signal_handler>:
 80490c0:	55                   	push   %ebp
 80490c1:	89 e5                	mov    %esp,%ebp
 80490c3:	83 ec 18             	sub    $0x18,%esp
 80490c6:	8b 45 08             	mov    0x8(%ebp),%eax
 80490c9:	83 f8 11             	cmp    $0x11,%eax
 80490cc:	74 12                	je     80490e0 <signal_handler+0x20>
 80490ce:	83 e8 01             	sub    $0x1,%eax
 80490d1:	75 2f                	jne    8049102 <signal_handler+0x42>
 80490d3:	c9                   	leave  
 80490d4:	e9 07 17 00 00       	jmp    804a7e0 <readinconfig>
 80490d9:	8d b4 26 00 00 00 00 	lea    0x0(%esi),%esi
 80490e0:	c7 44 24 08 01 00 00 	movl   $0x1,0x8(%esp)
 80490e7:	00 
 80490e8:	c7 44 24 04 00 00 00 	movl   $0x0,0x4(%esp)
 80490ef:	00 
 80490f0:	c7 04 24 ff ff ff ff 	movl   $0xffffffff,(%esp)
 80490f7:	e8 3c fd ff ff       	call   8048e38 <waitpid@plt>
 80490fc:	85 c0                	test   %eax,%eax
 80490fe:	7f e0                	jg     80490e0 <signal_handler+0x20>
 8049100:	c9                   	leave  
 8049101:	c3                   	ret    
 8049102:	c7 44 24 08 01 00 00 	movl   $0x1,0x8(%esp)
 8049109:	00 
 804910a:	c7 44 24 04 00 00 00 	movl   $0x0,0x4(%esp)
 8049111:	00 
 8049112:	c7 04 24 ff ff ff ff 	movl   $0xffffffff,(%esp)
 8049119:	e8 1a fd ff ff       	call   8048e38 <waitpid@plt>
 804911e:	85 c0                	test   %eax,%eax
 8049120:	7f e0                	jg     8049102 <signal_handler+0x42>
 8049122:	c7 04 24 00 00 00 00 	movl   $0x0,(%esp)
 8049129:	e8 ea fe ff ff       	call   8049018 <exit@plt>
 804912e:	66 90                	xchg   %ax,%ax

08049130 <inetd_server>:
 8049130:	55                   	push   %ebp
 8049131:	89 e5                	mov    %esp,%ebp
 8049133:	53                   	push   %ebx
 8049134:	83 ec 34             	sub    $0x34,%esp
 8049137:	8d 45 e8             	lea    -0x18(%ebp),%eax
 804913a:	8d 55 f8             	lea    -0x8(%ebp),%edx
 804913d:	c7 45 f8 10 00 00 00 	movl   $0x10,-0x8(%ebp)
 8049144:	89 54 24 08          	mov    %edx,0x8(%esp)
 8049148:	89 44 24 04          	mov    %eax,0x4(%esp)
 804914c:	c7 04 24 00 00 00 00 	movl   $0x0,(%esp)
 8049153:	e8 80 fe ff ff       	call   8048fd8 <getpeername@plt>
 8049158:	85 c0                	test   %eax,%eax
 804915a:	78 7a                	js     80491d6 <inetd_server+0xa6>
 804915c:	c7 04 24 e0 ab 04 08 	movl   $0x804abe0,(%esp)
 8049163:	e8 80 fe ff ff       	call   8048fe8 <getpwnam@plt>
 8049168:	85 c0                	test   %eax,%eax
 804916a:	89 c3                	mov    %eax,%ebx
 804916c:	74 16                	je     8049184 <inetd_server+0x54>
 804916e:	8b 40 0c             	mov    0xc(%eax),%eax
 8049171:	89 04 24             	mov    %eax,(%esp)
 8049174:	e8 4f fe ff ff       	call   8048fc8 <setgid@plt>
 8049179:	8b 43 08             	mov    0x8(%ebx),%eax
 804917c:	89 04 24             	mov    %eax,(%esp)
 804917f:	e8 74 fc ff ff       	call   8048df8 <setuid@plt>
 8049184:	8b 45 ec             	mov    -0x14(%ebp),%eax
 8049187:	89 04 24             	mov    %eax,(%esp)
 804918a:	e8 f9 fa ff ff       	call   8048c88 <inet_ntoa@plt>
 804918f:	c7 04 24 e7 ab 04 08 	movl   $0x804abe7,(%esp)
 8049196:	89 44 24 04          	mov    %eax,0x4(%esp)
 804919a:	e8 61 11 00 00       	call   804a300 <Log>
 804919f:	8b 45 ec             	mov    -0x14(%ebp),%eax
 80491a2:	89 04 24             	mov    %eax,(%esp)
 80491a5:	e8 de fa ff ff       	call   8048c88 <inet_ntoa@plt>
 80491aa:	c7 44 24 08 01 00 00 	movl   $0x1,0x8(%esp)
 80491b1:	00 
 80491b2:	c7 04 24 fa ab 04 08 	movl   $0x804abfa,(%esp)
 80491b9:	89 44 24 04          	mov    %eax,0x4(%esp)
 80491bd:	e8 46 fe ff ff       	call   8049008 <setenv@plt>
 80491c2:	c7 04 24 00 00 00 00 	movl   $0x0,(%esp)
 80491c9:	e8 12 08 00 00       	call   80499e0 <serveconnection>
 80491ce:	83 c4 34             	add    $0x34,%esp
 80491d1:	31 c0                	xor    %eax,%eax
 80491d3:	5b                   	pop    %ebx
 80491d4:	5d                   	pop    %ebp
 80491d5:	c3                   	ret    
 80491d6:	c7 04 24 01 00 00 00 	movl   $0x1,(%esp)
 80491dd:	e8 36 fe ff ff       	call   8049018 <exit@plt>
 80491e2:	8d b4 26 00 00 00 00 	lea    0x0(%esi),%esi
 80491e9:	8d bc 27 00 00 00 00 	lea    0x0(%edi),%edi

080491f0 <main>:
 80491f0:	8d 4c 24 04          	lea    0x4(%esp),%ecx
 80491f4:	83 e4 f0             	and    $0xfffffff0,%esp
 80491f7:	ff 71 fc             	pushl  -0x4(%ecx)
 80491fa:	55                   	push   %ebp
 80491fb:	89 e5                	mov    %esp,%ebp
 80491fd:	57                   	push   %edi
 80491fe:	bf 06 ac 04 08       	mov    $0x804ac06,%edi
 8049203:	56                   	push   %esi
 8049204:	be 40 c4 04 08       	mov    $0x804c440,%esi
 8049209:	53                   	push   %ebx
 804920a:	51                   	push   %ecx
 804920b:	81 ec 58 01 00 00    	sub    $0x158,%esp
 8049211:	c7 05 7f e0 04 08 2f 	movl   $0x7273752f,0x804e07f
 8049218:	75 73 72 
 804921b:	c7 05 83 e0 04 08 2f 	movl   $0x636f6c2f,0x804e083
 8049222:	6c 6f 63 
 8049225:	c7 05 87 e0 04 08 61 	movl   $0x672f6c61,0x804e087
 804922c:	6c 2f 67 
 804922f:	c7 05 8b e0 04 08 68 	movl   $0x70747468,0x804e08b
 8049236:	74 74 70 
 8049239:	c7 05 8f e0 04 08 64 	movl   $0x74682f64,0x804e08f
 8049240:	2f 68 74 
 8049243:	c7 05 93 e0 04 08 64 	movl   $0x73636f64,0x804e093
 804924a:	6f 63 73 
 804924d:	c6 05 97 e0 04 08 00 	movb   $0x0,0x804e097
 8049254:	c7 05 7e e1 04 08 69 	movl   $0x65646e69,0x804e17e
 804925b:	6e 64 65 
 804925e:	c7 05 82 e1 04 08 78 	movl   $0x74682e78,0x804e182
 8049265:	2e 68 74 
 8049268:	66 c7 05 86 e1 04 08 	movw   $0x6c6d,0x804e186
 804926f:	6d 6c 
 8049271:	c6 05 88 e1 04 08 00 	movb   $0x0,0x804e188
 8049278:	c7 05 7d e2 04 08 2f 	movl   $0x6967632f,0x804e27d
 804927f:	63 67 69 
 8049282:	c7 05 81 e2 04 08 2d 	movl   $0x6e69622d,0x804e281
 8049289:	62 69 6e 
 804928c:	c6 05 85 e2 04 08 00 	movb   $0x0,0x804e285
 8049293:	c7 05 7c e3 04 08 2f 	movl   $0x7273752f,0x804e37c
 804929a:	75 73 72 
 804929d:	c7 05 80 e3 04 08 2f 	movl   $0x636f6c2f,0x804e380
 80492a4:	6c 6f 63 
 80492a7:	c7 05 84 e3 04 08 61 	movl   $0x672f6c61,0x804e384
 80492ae:	6c 2f 67 
 80492b1:	c7 05 88 e3 04 08 68 	movl   $0x70747468,0x804e388
 80492b8:	74 74 70 
 80492bb:	c7 05 8c e3 04 08 64 	movl   $0x67632f64,0x804e38c
 80492c2:	2f 63 67 
 80492c5:	c7 05 90 e3 04 08 69 	movl   $0x69622d69,0x804e390
 80492cc:	2d 62 69 
 80492cf:	66 c7 05 94 e3 04 08 	movw   $0x6e,0x804e394
 80492d6:	6e 00 
 80492d8:	e8 33 17 00 00       	call   804aa10 <count_vhosts>
 80492dd:	a3 68 df 04 08       	mov    %eax,0x804df68
 80492e2:	83 c0 01             	add    $0x1,%eax
 80492e5:	69 c0 fb 04 00 00    	imul   $0x4fb,%eax,%eax
 80492eb:	89 04 24             	mov    %eax,(%esp)
 80492ee:	e8 15 fc ff ff       	call   8048f08 <malloc@plt>
 80492f3:	a3 6c df 04 08       	mov    %eax,0x804df6c
 80492f8:	e8 e3 14 00 00       	call   804a7e0 <readinconfig>
 80492fd:	b9 06 00 00 00       	mov    $0x6,%ecx
 8049302:	fc                   	cld    
 8049303:	f3 a6                	repz cmpsb %es:(%edi),%ds:(%esi)
 8049305:	0f 84 4a 01 00 00    	je     8049455 <main+0x265>
 804930b:	c7 44 24 08 18 00 00 	movl   $0x18,0x8(%esp)
 8049312:	00 
 8049313:	c7 44 24 04 00 00 00 	movl   $0x0,0x4(%esp)
 804931a:	00 
 804931b:	c7 04 24 0c ac 04 08 	movl   $0x804ac0c,(%esp)
 8049322:	e8 61 fa ff ff       	call   8048d88 <openlog@plt>
 8049327:	c7 44 24 08 00 00 00 	movl   $0x0,0x8(%esp)
 804932e:	00 
 804932f:	c7 44 24 04 01 00 00 	movl   $0x1,0x4(%esp)
 8049336:	00 
 8049337:	c7 04 24 02 00 00 00 	movl   $0x2,(%esp)
 804933e:	e8 65 fa ff ff       	call   8048da8 <socket@plt>
 8049343:	83 f8 ff             	cmp    $0xffffffff,%eax
 8049346:	89 c6                	mov    %eax,%esi
 8049348:	0f 84 1b 01 00 00    	je     8049469 <main+0x279>
 804934e:	8d 45 e8             	lea    -0x18(%ebp),%eax
 8049351:	c7 45 e8 01 00 00 00 	movl   $0x1,-0x18(%ebp)
 8049358:	c7 44 24 10 01 00 00 	movl   $0x1,0x10(%esp)
 804935f:	00 
 8049360:	89 44 24 0c          	mov    %eax,0xc(%esp)
 8049364:	c7 44 24 08 02 00 00 	movl   $0x2,0x8(%esp)
 804936b:	00 
 804936c:	c7 44 24 04 01 00 00 	movl   $0x1,0x4(%esp)
 8049373:	00 
 8049374:	89 34 24             	mov    %esi,(%esp)
 8049377:	e8 fc fb ff ff       	call   8048f78 <setsockopt@plt>
 804937c:	a1 20 c4 04 08       	mov    0x804c420,%eax
 8049381:	66 c1 c8 08          	ror    $0x8,%ax
 8049385:	66 89 45 d2          	mov    %ax,-0x2e(%ebp)
 8049389:	8d 45 d0             	lea    -0x30(%ebp),%eax
 804938c:	c7 45 d4 00 00 00 00 	movl   $0x0,-0x2c(%ebp)
 8049393:	66 c7 45 d0 02 00    	movw   $0x2,-0x30(%ebp)
 8049399:	c7 45 d8 00 00 00 00 	movl   $0x0,-0x28(%ebp)
 80493a0:	c7 45 dc 00 00 00 00 	movl   $0x0,-0x24(%ebp)
 80493a7:	c7 44 24 08 10 00 00 	movl   $0x10,0x8(%esp)
 80493ae:	00 
 80493af:	89 44 24 04          	mov    %eax,0x4(%esp)
 80493b3:	89 34 24             	mov    %esi,(%esp)
 80493b6:	e8 dd fa ff ff       	call   8048e98 <bind@plt>
 80493bb:	83 c0 01             	add    $0x1,%eax
 80493be:	0f 84 d6 00 00 00    	je     804949a <main+0x2aa>
 80493c4:	c7 44 24 04 96 00 00 	movl   $0x96,0x4(%esp)
 80493cb:	00 
 80493cc:	89 34 24             	mov    %esi,(%esp)
 80493cf:	e8 44 f9 ff ff       	call   8048d18 <listen@plt>
 80493d4:	83 c0 01             	add    $0x1,%eax
 80493d7:	0f 84 d3 00 00 00    	je     80494b0 <main+0x2c0>
 80493dd:	c7 44 24 04 c0 90 04 	movl   $0x80490c0,0x4(%esp)
 80493e4:	08 
 80493e5:	c7 04 24 0f 00 00 00 	movl   $0xf,(%esp)
 80493ec:	e8 b7 f8 ff ff       	call   8048ca8 <signal@plt>
 80493f1:	c7 44 24 04 c0 90 04 	movl   $0x80490c0,0x4(%esp)
 80493f8:	08 
 80493f9:	c7 04 24 01 00 00 00 	movl   $0x1,(%esp)
 8049400:	e8 a3 f8 ff ff       	call   8048ca8 <signal@plt>
 8049405:	c7 44 24 04 c0 90 04 	movl   $0x80490c0,0x4(%esp)
 804940c:	08 
 804940d:	c7 04 24 02 00 00 00 	movl   $0x2,(%esp)
 8049414:	e8 8f f8 ff ff       	call   8048ca8 <signal@plt>
 8049419:	c7 44 24 04 c0 90 04 	movl   $0x80490c0,0x4(%esp)
 8049420:	08 
 8049421:	c7 04 24 11 00 00 00 	movl   $0x11,(%esp)
 8049428:	e8 7b f8 ff ff       	call   8048ca8 <signal@plt>
 804942d:	e8 36 fb ff ff       	call   8048f68 <fork@plt>
 8049432:	83 f8 ff             	cmp    $0xffffffff,%eax
 8049435:	0f 84 8b 00 00 00    	je     80494c6 <main+0x2d6>
 804943b:	85 c0                	test   %eax,%eax
 804943d:	8d 76 00             	lea    0x0(%esi),%esi
 8049440:	0f 84 96 00 00 00    	je     80494dc <main+0x2ec>
 8049446:	c7 04 24 00 00 00 00 	movl   $0x0,(%esp)
 804944d:	8d 76 00             	lea    0x0(%esi),%esi
 8049450:	e8 c3 fb ff ff       	call   8049018 <exit@plt>
 8049455:	e8 d6 fc ff ff       	call   8049130 <inetd_server>
 804945a:	81 c4 58 01 00 00    	add    $0x158,%esp
 8049460:	59                   	pop    %ecx
 8049461:	5b                   	pop    %ebx
 8049462:	5e                   	pop    %esi
 8049463:	5f                   	pop    %edi
 8049464:	5d                   	pop    %ebp
 8049465:	8d 61 fc             	lea    -0x4(%ecx),%esp
 8049468:	c3                   	ret    
 8049469:	c7 04 24 13 ac 04 08 	movl   $0x804ac13,(%esp)
 8049470:	e8 f3 f8 ff ff       	call   8048d68 <perror@plt>
 8049475:	c7 44 24 04 40 ac 04 	movl   $0x804ac40,0x4(%esp)
 804947c:	08 
 804947d:	c7 04 24 02 00 00 00 	movl   $0x2,(%esp)
 8049484:	e8 0f f8 ff ff       	call   8048c98 <syslog@plt>
 8049489:	e8 1a fb ff ff       	call   8048fa8 <closelog@plt>
 804948e:	c7 04 24 01 00 00 00 	movl   $0x1,(%esp)
 8049495:	e8 7e fb ff ff       	call   8049018 <exit@plt>
 804949a:	c7 04 24 1a ac 04 08 	movl   $0x804ac1a,(%esp)
 80494a1:	e8 c2 f8 ff ff       	call   8048d68 <perror@plt>
 80494a6:	c7 44 24 04 60 ac 04 	movl   $0x804ac60,0x4(%esp)
 80494ad:	08 
 80494ae:	eb cd                	jmp    804947d <main+0x28d>
 80494b0:	c7 04 24 1f ac 04 08 	movl   $0x804ac1f,(%esp)
 80494b7:	e8 ac f8 ff ff       	call   8048d68 <perror@plt>
 80494bc:	c7 44 24 04 26 ac 04 	movl   $0x804ac26,0x4(%esp)
 80494c3:	08 
 80494c4:	eb b7                	jmp    804947d <main+0x28d>
 80494c6:	c7 04 24 84 ac 04 08 	movl   $0x804ac84,(%esp)
 80494cd:	e8 86 fa ff ff       	call   8048f58 <puts@plt>
 80494d2:	c7 44 24 04 bc ac 04 	movl   $0x804acbc,0x4(%esp)
 80494d9:	08 
 80494da:	eb a1                	jmp    804947d <main+0x28d>
 80494dc:	e8 87 f7 ff ff       	call   8048c68 <getpid@plt>
 80494e1:	c7 04 24 e8 ac 04 08 	movl   $0x804ace8,(%esp)
 80494e8:	89 44 24 04          	mov    %eax,0x4(%esp)
 80494ec:	e8 87 f9 ff ff       	call   8048e78 <printf@plt>
 80494f1:	e8 b2 fa ff ff       	call   8048fa8 <closelog@plt>
 80494f6:	c7 04 24 e0 ab 04 08 	movl   $0x804abe0,(%esp)
 80494fd:	e8 e6 fa ff ff       	call   8048fe8 <getpwnam@plt>
 8049502:	85 c0                	test   %eax,%eax
 8049504:	89 c3                	mov    %eax,%ebx
 8049506:	74 16                	je     804951e <main+0x32e>
 8049508:	8b 40 0c             	mov    0xc(%eax),%eax
 804950b:	89 04 24             	mov    %eax,(%esp)
 804950e:	e8 b5 fa ff ff       	call   8048fc8 <setgid@plt>
 8049513:	8b 43 08             	mov    0x8(%ebx),%eax
 8049516:	89 04 24             	mov    %eax,(%esp)
 8049519:	e8 da f8 ff ff       	call   8048df8 <setuid@plt>
 804951e:	8d 7d c0             	lea    -0x40(%ebp),%edi
 8049521:	8d 45 ec             	lea    -0x14(%ebp),%eax
 8049524:	c7 45 ec 10 00 00 00 	movl   $0x10,-0x14(%ebp)
 804952b:	89 44 24 08          	mov    %eax,0x8(%esp)
 804952f:	89 7c 24 04          	mov    %edi,0x4(%esp)
 8049533:	89 34 24             	mov    %esi,(%esp)
 8049536:	e8 5d f8 ff ff       	call   8048d98 <accept@plt>
 804953b:	83 f8 ff             	cmp    $0xffffffff,%eax
 804953e:	89 c3                	mov    %eax,%ebx
 8049540:	74 df                	je     8049521 <main+0x331>
 8049542:	e8 21 fa ff ff       	call   8048f68 <fork@plt>
 8049547:	85 c0                	test   %eax,%eax
 8049549:	74 2a                	je     8049575 <main+0x385>
 804954b:	89 1c 24             	mov    %ebx,(%esp)
 804954e:	e8 75 f9 ff ff       	call   8048ec8 <close@plt>
 8049553:	c7 44 24 08 01 00 00 	movl   $0x1,0x8(%esp)
 804955a:	00 
 804955b:	c7 44 24 04 00 00 00 	movl   $0x0,0x4(%esp)
 8049562:	00 
 8049563:	c7 04 24 ff ff ff ff 	movl   $0xffffffff,(%esp)
 804956a:	e8 c9 f8 ff ff       	call   8048e38 <waitpid@plt>
 804956f:	85 c0                	test   %eax,%eax
 8049571:	7f e0                	jg     8049553 <main+0x363>
 8049573:	eb ac                	jmp    8049521 <main+0x331>
 8049575:	89 d8                	mov    %ebx,%eax
 8049577:	8d 4b 01             	lea    0x1(%ebx),%ecx
 804957a:	83 e0 1f             	and    $0x1f,%eax
 804957d:	89 85 b8 fe ff ff    	mov    %eax,-0x148(%ebp)
 8049583:	b8 01 00 00 00       	mov    $0x1,%eax
 8049588:	89 8d bc fe ff ff    	mov    %ecx,-0x144(%ebp)
 804958e:	0f b6 8d b8 fe ff ff 	movzbl -0x148(%ebp),%ecx
 8049595:	d3 e0                	shl    %cl,%eax
 8049597:	89 85 b4 fe ff ff    	mov    %eax,-0x14c(%ebp)
 804959d:	89 34 24             	mov    %esi,(%esp)
 80495a0:	e8 23 f9 ff ff       	call   8048ec8 <close@plt>
 80495a5:	b8 02 00 00 00       	mov    $0x2,%eax
 80495aa:	c7 85 40 ff ff ff 00 	movl   $0x0,-0xc0(%ebp)
 80495b1:	00 00 00 
 80495b4:	c7 84 85 3c ff ff ff 	movl   $0x0,-0xc4(%ebp,%eax,4)
 80495bb:	00 00 00 00 
 80495bf:	83 c0 01             	add    $0x1,%eax
 80495c2:	83 f8 21             	cmp    $0x21,%eax
 80495c5:	75 ed                	jne    80495b4 <main+0x3c4>
 80495c7:	89 df                	mov    %ebx,%edi
 80495c9:	8b 95 b4 fe ff ff    	mov    -0x14c(%ebp),%edx
 80495cf:	b0 02                	mov    $0x2,%al
 80495d1:	c1 ef 05             	shr    $0x5,%edi
 80495d4:	0b 94 bd 40 ff ff ff 	or     -0xc0(%ebp,%edi,4),%edx
 80495db:	c7 85 c0 fe ff ff 00 	movl   $0x0,-0x140(%ebp)
 80495e2:	00 00 00 
 80495e5:	c7 84 85 bc fe ff ff 	movl   $0x0,-0x144(%ebp,%eax,4)
 80495ec:	00 00 00 00 
 80495f0:	83 c0 01             	add    $0x1,%eax
 80495f3:	83 f8 21             	cmp    $0x21,%eax
 80495f6:	75 ed                	jne    80495e5 <main+0x3f5>
 80495f8:	8b 8d b4 fe ff ff    	mov    -0x14c(%ebp),%ecx
 80495fe:	8d 45 e0             	lea    -0x20(%ebp),%eax
 8049601:	09 8c bd c0 fe ff ff 	or     %ecx,-0x140(%ebp,%edi,4)
 8049608:	8d 8d c0 fe ff ff    	lea    -0x140(%ebp),%ecx
 804960e:	c7 45 e0 05 00 00 00 	movl   $0x5,-0x20(%ebp)
 8049615:	c7 45 e4 00 00 00 00 	movl   $0x0,-0x1c(%ebp)
 804961c:	89 94 bd 40 ff ff ff 	mov    %edx,-0xc0(%ebp,%edi,4)
 8049623:	89 44 24 10          	mov    %eax,0x10(%esp)
 8049627:	8d 85 40 ff ff ff    	lea    -0xc0(%ebp),%eax
 804962d:	89 4c 24 0c          	mov    %ecx,0xc(%esp)
 8049631:	c7 44 24 08 00 00 00 	movl   $0x0,0x8(%esp)
 8049638:	00 
 8049639:	89 44 24 04          	mov    %eax,0x4(%esp)
 804963d:	8b 8d bc fe ff ff    	mov    -0x144(%ebp),%ecx
 8049643:	89 0c 24             	mov    %ecx,(%esp)
 8049646:	e8 6d f8 ff ff       	call   8048eb8 <select@plt>
 804964b:	8b 84 bd c0 fe ff ff 	mov    -0x140(%ebp,%edi,4),%eax
 8049652:	0f b6 8d b8 fe ff ff 	movzbl -0x148(%ebp),%ecx
 8049659:	d3 f8                	sar    %cl,%eax
 804965b:	a8 01                	test   $0x1,%al
 804965d:	75 41                	jne    80496a0 <main+0x4b0>
 804965f:	8b 84 bd 40 ff ff ff 	mov    -0xc0(%ebp,%edi,4),%eax
 8049666:	d3 f8                	sar    %cl,%eax
 8049668:	a8 01                	test   $0x1,%al
 804966a:	74 34                	je     80496a0 <main+0x4b0>
 804966c:	8b 45 c4             	mov    -0x3c(%ebp),%eax
 804966f:	89 04 24             	mov    %eax,(%esp)
 8049672:	e8 11 f6 ff ff       	call   8048c88 <inet_ntoa@plt>
 8049677:	c7 44 24 08 01 00 00 	movl   $0x1,0x8(%esp)
 804967e:	00 
 804967f:	c7 04 24 fa ab 04 08 	movl   $0x804abfa,(%esp)
 8049686:	89 44 24 04          	mov    %eax,0x4(%esp)
 804968a:	e8 79 f9 ff ff       	call   8049008 <setenv@plt>
 804968f:	89 1c 24             	mov    %ebx,(%esp)
 8049692:	e8 49 03 00 00       	call   80499e0 <serveconnection>
 8049697:	83 c0 01             	add    $0x1,%eax
 804969a:	0f 85 fd fe ff ff    	jne    804959d <main+0x3ad>
 80496a0:	89 1c 24             	mov    %ebx,(%esp)
 80496a3:	e8 20 f8 ff ff       	call   8048ec8 <close@plt>
 80496a8:	e9 99 fd ff ff       	jmp    8049446 <main+0x256>
 80496ad:	90                   	nop    
 80496ae:	90                   	nop    
 80496af:	90                   	nop    

080496b0 <showdir>:
 80496b0:	55                   	push   %ebp
 80496b1:	89 e5                	mov    %esp,%ebp
 80496b3:	57                   	push   %edi
 80496b4:	56                   	push   %esi
 80496b5:	53                   	push   %ebx
 80496b6:	81 ec fc 09 00 00    	sub    $0x9fc,%esp
 80496bc:	8b 75 08             	mov    0x8(%ebp),%esi
 80496bf:	8d 9d 32 f6 ff ff    	lea    -0x9ce(%ebp),%ebx
 80496c5:	8d 85 31 ff ff ff    	lea    -0xcf(%ebp),%eax
 80496cb:	c7 44 24 08 bf 00 00 	movl   $0xbf,0x8(%esp)
 80496d2:	00 
 80496d3:	c7 44 24 04 e8 ae 04 	movl   $0x804aee8,0x4(%esp)
 80496da:	08 
 80496db:	89 04 24             	mov    %eax,(%esp)
 80496de:	e8 25 f7 ff ff       	call   8048e08 <memcpy@plt>
 80496e3:	c7 44 24 08 00 08 00 	movl   $0x800,0x8(%esp)
 80496ea:	00 
 80496eb:	c7 44 24 04 00 00 00 	movl   $0x0,0x4(%esp)
 80496f2:	00 
 80496f3:	89 1c 24             	mov    %ebx,(%esp)
 80496f6:	e8 3d f6 ff ff       	call   8048d38 <memset@plt>
 80496fb:	8b 45 10             	mov    0x10(%ebp),%eax
 80496fe:	05 ff 00 00 00       	add    $0xff,%eax
 8049703:	89 85 14 f6 ff ff    	mov    %eax,-0x9ec(%ebp)
 8049709:	89 04 24             	mov    %eax,(%esp)
 804970c:	e8 07 f7 ff ff       	call   8048e18 <strlen@plt>
 8049711:	c7 44 24 04 14 ad 04 	movl   $0x804ad14,0x4(%esp)
 8049718:	08 
 8049719:	89 1c 24             	mov    %ebx,(%esp)
 804971c:	01 f0                	add    %esi,%eax
 804971e:	89 44 24 08          	mov    %eax,0x8(%esp)
 8049722:	e8 31 f5 ff ff       	call   8048c58 <sprintf@plt>
 8049727:	c7 44 24 0c 00 00 00 	movl   $0x0,0xc(%esp)
 804972e:	00 
 804972f:	c7 44 24 08 00 08 00 	movl   $0x800,0x8(%esp)
 8049736:	00 
 8049737:	89 5c 24 04          	mov    %ebx,0x4(%esp)
 804973b:	8b 45 0c             	mov    0xc(%ebp),%eax
 804973e:	89 04 24             	mov    %eax,(%esp)
 8049741:	e8 02 f8 ff ff       	call   8048f48 <send@plt>
 8049746:	83 c0 01             	add    $0x1,%eax
 8049749:	0f 84 28 01 00 00    	je     8049877 <showdir+0x1c7>
 804974f:	8d 45 f0             	lea    -0x10(%ebp),%eax
 8049752:	c7 44 24 0c a8 8e 04 	movl   $0x8048ea8,0xc(%esp)
 8049759:	08 
 804975a:	c7 44 24 08 00 00 00 	movl   $0x0,0x8(%esp)
 8049761:	00 
 8049762:	89 44 24 04          	mov    %eax,0x4(%esp)
 8049766:	89 34 24             	mov    %esi,(%esp)
 8049769:	e8 da f5 ff ff       	call   8048d48 <scandir@plt>
 804976e:	89 85 18 f6 ff ff    	mov    %eax,-0x9e8(%ebp)
 8049774:	8b 85 14 f6 ff ff    	mov    -0x9ec(%ebp),%eax
 804977a:	89 04 24             	mov    %eax,(%esp)
 804977d:	e8 96 f6 ff ff       	call   8048e18 <strlen@plt>
 8049782:	01 f0                	add    %esi,%eax
 8049784:	83 bd 18 f6 ff ff 00 	cmpl   $0x0,-0x9e8(%ebp)
 804978b:	89 85 20 f6 ff ff    	mov    %eax,-0x9e0(%ebp)
 8049791:	0f 8c eb 00 00 00    	jl     8049882 <showdir+0x1d2>
 8049797:	0f 84 f1 00 00 00    	je     804988e <showdir+0x1de>
 804979d:	8d bd 32 fe ff ff    	lea    -0x1ce(%ebp),%edi
 80497a3:	c7 85 1c f6 ff ff 00 	movl   $0x0,-0x9e4(%ebp)
 80497aa:	00 00 00 
 80497ad:	eb 1a                	jmp    80497c9 <showdir+0x119>
 80497af:	90                   	nop    
 80497b0:	83 85 1c f6 ff ff 01 	addl   $0x1,-0x9e4(%ebp)
 80497b7:	8b 85 18 f6 ff ff    	mov    -0x9e8(%ebp),%eax
 80497bd:	39 85 1c f6 ff ff    	cmp    %eax,-0x9e4(%ebp)
 80497c3:	0f 84 c5 00 00 00    	je     804988e <showdir+0x1de>
 80497c9:	8b b5 1c f6 ff ff    	mov    -0x9e4(%ebp),%esi
 80497cf:	8b 45 f0             	mov    -0x10(%ebp),%eax
 80497d2:	c1 e6 02             	shl    $0x2,%esi
 80497d5:	8b 04 30             	mov    (%eax,%esi,1),%eax
 80497d8:	83 c0 0b             	add    $0xb,%eax
 80497db:	89 44 24 10          	mov    %eax,0x10(%esp)
 80497df:	8b 85 20 f6 ff ff    	mov    -0x9e0(%ebp),%eax
 80497e5:	89 44 24 0c          	mov    %eax,0xc(%esp)
 80497e9:	8b 85 14 f6 ff ff    	mov    -0x9ec(%ebp),%eax
 80497ef:	c7 44 24 04 9c b0 04 	movl   $0x804b09c,0x4(%esp)
 80497f6:	08 
 80497f7:	89 3c 24             	mov    %edi,(%esp)
 80497fa:	89 44 24 08          	mov    %eax,0x8(%esp)
 80497fe:	e8 55 f4 ff ff       	call   8048c58 <sprintf@plt>
 8049803:	89 3c 24             	mov    %edi,(%esp)
 8049806:	e8 15 0d 00 00       	call   804a520 <get_file_size>
 804980b:	89 3c 24             	mov    %edi,(%esp)
 804980e:	89 c3                	mov    %eax,%ebx
 8049810:	e8 cb 0c 00 00       	call   804a4e0 <isDirectory>
 8049815:	8b 55 f0             	mov    -0x10(%ebp),%edx
 8049818:	8b 14 32             	mov    (%edx,%esi,1),%edx
 804981b:	83 f8 01             	cmp    $0x1,%eax
 804981e:	19 c0                	sbb    %eax,%eax
 8049820:	21 d8                	and    %ebx,%eax
 8049822:	83 c2 0b             	add    $0xb,%edx
 8049825:	89 54 24 10          	mov    %edx,0x10(%esp)
 8049829:	89 54 24 0c          	mov    %edx,0xc(%esp)
 804982d:	89 44 24 14          	mov    %eax,0x14(%esp)
 8049831:	8b 85 20 f6 ff ff    	mov    -0x9e0(%ebp),%eax
 8049837:	c7 44 24 04 90 ae 04 	movl   $0x804ae90,0x4(%esp)
 804983e:	08 
 804983f:	89 3c 24             	mov    %edi,(%esp)
 8049842:	89 44 24 08          	mov    %eax,0x8(%esp)
 8049846:	e8 0d f4 ff ff       	call   8048c58 <sprintf@plt>
 804984b:	89 3c 24             	mov    %edi,(%esp)
 804984e:	e8 c5 f5 ff ff       	call   8048e18 <strlen@plt>
 8049853:	c7 44 24 0c 00 00 00 	movl   $0x0,0xc(%esp)
 804985a:	00 
 804985b:	89 7c 24 04          	mov    %edi,0x4(%esp)
 804985f:	89 44 24 08          	mov    %eax,0x8(%esp)
 8049863:	8b 45 0c             	mov    0xc(%ebp),%eax
 8049866:	89 04 24             	mov    %eax,(%esp)
 8049869:	e8 da f6 ff ff       	call   8048f48 <send@plt>
 804986e:	83 c0 01             	add    $0x1,%eax
 8049871:	0f 85 39 ff ff ff    	jne    80497b0 <showdir+0x100>
 8049877:	81 c4 fc 09 00 00    	add    $0x9fc,%esp
 804987d:	5b                   	pop    %ebx
 804987e:	5e                   	pop    %esi
 804987f:	5f                   	pop    %edi
 8049880:	5d                   	pop    %ebp
 8049881:	c3                   	ret    
 8049882:	c7 04 24 94 b0 04 08 	movl   $0x804b094,(%esp)
 8049889:	e8 da f4 ff ff       	call   8048d68 <perror@plt>
 804988e:	8d 85 31 ff ff ff    	lea    -0xcf(%ebp),%eax
 8049894:	c7 44 24 0c 00 00 00 	movl   $0x0,0xc(%esp)
 804989b:	00 
 804989c:	c7 44 24 08 bf 00 00 	movl   $0xbf,0x8(%esp)
 80498a3:	00 
 80498a4:	89 44 24 04          	mov    %eax,0x4(%esp)
 80498a8:	8b 45 0c             	mov    0xc(%ebp),%eax
 80498ab:	89 04 24             	mov    %eax,(%esp)
 80498ae:	e8 95 f6 ff ff       	call   8048f48 <send@plt>
 80498b3:	81 c4 fc 09 00 00    	add    $0x9fc,%esp
 80498b9:	5b                   	pop    %ebx
 80498ba:	5e                   	pop    %esi
 80498bb:	5f                   	pop    %edi
 80498bc:	5d                   	pop    %ebp
 80498bd:	c3                   	ret    
 80498be:	66 90                	xchg   %ax,%ax

080498c0 <getmimetype>:
 80498c0:	55                   	push   %ebp
 80498c1:	b9 0c 00 00 00       	mov    $0xc,%ecx
 80498c6:	89 e5                	mov    %esp,%ebp
 80498c8:	31 c0                	xor    %eax,%eax
 80498ca:	57                   	push   %edi
 80498cb:	56                   	push   %esi
 80498cc:	53                   	push   %ebx
 80498cd:	fc                   	cld    
 80498ce:	8d 5d c2             	lea    -0x3e(%ebp),%ebx
 80498d1:	83 ec 7c             	sub    $0x7c,%esp
 80498d4:	8b 75 08             	mov    0x8(%ebp),%esi
 80498d7:	89 df                	mov    %ebx,%edi
 80498d9:	f3 ab                	rep stos %eax,%es:(%edi)
 80498db:	66 c7 07 00 00       	movw   $0x0,(%edi)
 80498e0:	bf 01 00 00 00       	mov    $0x1,%edi
 80498e5:	eb 11                	jmp    80498f8 <getmimetype+0x38>
 80498e7:	29 f8                	sub    %edi,%eax
 80498e9:	0f b6 04 30          	movzbl (%eax,%esi,1),%eax
 80498ed:	3c 2e                	cmp    $0x2e,%al
 80498ef:	74 13                	je     8049904 <getmimetype+0x44>
 80498f1:	88 44 1f ff          	mov    %al,-0x1(%edi,%ebx,1)
 80498f5:	83 c7 01             	add    $0x1,%edi
 80498f8:	89 34 24             	mov    %esi,(%esp)
 80498fb:	e8 18 f5 ff ff       	call   8048e18 <strlen@plt>
 8049900:	39 c7                	cmp    %eax,%edi
 8049902:	72 e3                	jb     80498e7 <getmimetype+0x27>
 8049904:	31 ff                	xor    %edi,%edi
 8049906:	8d 75 90             	lea    -0x70(%ebp),%esi
 8049909:	eb 12                	jmp    804991d <getmimetype+0x5d>
 804990b:	90                   	nop    
 804990c:	8d 74 26 00          	lea    0x0(%esi),%esi
 8049910:	29 f8                	sub    %edi,%eax
 8049912:	0f b6 44 05 c1       	movzbl -0x3f(%ebp,%eax,1),%eax
 8049917:	88 04 37             	mov    %al,(%edi,%esi,1)
 804991a:	83 c7 01             	add    $0x1,%edi
 804991d:	89 1c 24             	mov    %ebx,(%esp)
 8049920:	e8 f3 f4 ff ff       	call   8048e18 <strlen@plt>
 8049925:	39 c7                	cmp    %eax,%edi
 8049927:	72 e7                	jb     8049910 <getmimetype+0x50>
 8049929:	0f b6 35 b7 b0 04 08 	movzbl 0x804b0b7,%esi
 8049930:	31 d2                	xor    %edx,%edx
 8049932:	0f b6 05 40 c6 04 08 	movzbl 0x804c640,%eax
 8049939:	c6 44 3d 90 00       	movb   $0x0,-0x70(%ebp,%edi,1)
 804993e:	39 f0                	cmp    %esi,%eax
 8049940:	74 3e                	je     8049980 <getmimetype+0xc0>
 8049942:	31 db                	xor    %ebx,%ebx
 8049944:	b9 40 c6 04 08       	mov    $0x804c640,%ecx
 8049949:	bf c8 00 00 00       	mov    $0xc8,%edi
 804994e:	eb 1b                	jmp    804996b <getmimetype+0xab>
 8049950:	0f b6 87 40 c6 04 08 	movzbl 0x804c640(%edi),%eax
 8049957:	8d 8f 40 c6 04 08    	lea    0x804c640(%edi),%ecx
 804995d:	8d 97 c8 00 00 00    	lea    0xc8(%edi),%edx
 8049963:	39 f0                	cmp    %esi,%eax
 8049965:	74 71                	je     80499d8 <getmimetype+0x118>
 8049967:	89 fb                	mov    %edi,%ebx
 8049969:	89 d7                	mov    %edx,%edi
 804996b:	8d 45 90             	lea    -0x70(%ebp),%eax
 804996e:	89 44 24 04          	mov    %eax,0x4(%esp)
 8049972:	89 0c 24             	mov    %ecx,(%esp)
 8049975:	e8 7e f6 ff ff       	call   8048ff8 <strcmp@plt>
 804997a:	85 c0                	test   %eax,%eax
 804997c:	75 d2                	jne    8049950 <getmimetype+0x90>
 804997e:	89 da                	mov    %ebx,%edx
 8049980:	8d 82 a4 c6 04 08    	lea    0x804c6a4(%edx),%eax
 8049986:	8b 55 0c             	mov    0xc(%ebp),%edx
 8049989:	89 44 24 04          	mov    %eax,0x4(%esp)
 804998d:	89 14 24             	mov    %edx,(%esp)
 8049990:	e8 c3 f4 ff ff       	call   8048e58 <strcpy@plt>
 8049995:	8b 55 0c             	mov    0xc(%ebp),%edx
 8049998:	0f b6 05 b7 b0 04 08 	movzbl 0x804b0b7,%eax
 804999f:	3a 02                	cmp    (%edx),%al
 80499a1:	75 2d                	jne    80499d0 <getmimetype+0x110>
 80499a3:	c7 02 61 70 70 6c    	movl   $0x6c707061,(%edx)
 80499a9:	c7 42 04 69 63 61 74 	movl   $0x74616369,0x4(%edx)
 80499b0:	c7 42 08 69 6f 6e 2f 	movl   $0x2f6e6f69,0x8(%edx)
 80499b7:	c7 42 0c 6f 63 74 65 	movl   $0x6574636f,0xc(%edx)
 80499be:	c7 42 10 74 2d 73 74 	movl   $0x74732d74,0x10(%edx)
 80499c5:	c7 42 14 72 65 61 6d 	movl   $0x6d616572,0x14(%edx)
 80499cc:	c6 42 18 00          	movb   $0x0,0x18(%edx)
 80499d0:	83 c4 7c             	add    $0x7c,%esp
 80499d3:	5b                   	pop    %ebx
 80499d4:	5e                   	pop    %esi
 80499d5:	5f                   	pop    %edi
 80499d6:	5d                   	pop    %ebp
 80499d7:	c3                   	ret    
 80499d8:	89 fa                	mov    %edi,%edx
 80499da:	eb a4                	jmp    8049980 <getmimetype+0xc0>
 80499dc:	8d 74 26 00          	lea    0x0(%esi),%esi

080499e0 <serveconnection>:
 80499e0:	55                   	push   %ebp
 80499e1:	89 e5                	mov    %esp,%ebp
 80499e3:	57                   	push   %edi
 80499e4:	56                   	push   %esi
 80499e5:	53                   	push   %ebx
 80499e6:	31 db                	xor    %ebx,%ebx
 80499e8:	81 ec 7c 41 00 00    	sub    $0x417c,%esp
 80499ee:	8d bd af de ff ff    	lea    -0x2151(%ebp),%edi
 80499f4:	c7 45 f0 10 00 00 00 	movl   $0x10,-0x10(%ebp)
 80499fb:	90                   	nop    
 80499fc:	8d 74 26 00          	lea    0x0(%esi),%esi
 8049a00:	c7 44 24 04 a4 b0 04 	movl   $0x804b0a4,0x4(%esp)
 8049a07:	08 
 8049a08:	89 3c 24             	mov    %edi,(%esp)
 8049a0b:	e8 c8 f4 ff ff       	call   8048ed8 <strstr@plt>
 8049a10:	85 c0                	test   %eax,%eax
 8049a12:	75 50                	jne    8049a64 <serveconnection+0x84>
 8049a14:	c7 44 24 04 05 b1 04 	movl   $0x804b105,0x4(%esp)
 8049a1b:	08 
 8049a1c:	89 3c 24             	mov    %edi,(%esp)
 8049a1f:	e8 b4 f4 ff ff       	call   8048ed8 <strstr@plt>
 8049a24:	85 c0                	test   %eax,%eax
 8049a26:	75 3c                	jne    8049a64 <serveconnection+0x84>
 8049a28:	b8 00 10 00 00       	mov    $0x1000,%eax
 8049a2d:	29 d8                	sub    %ebx,%eax
 8049a2f:	89 44 24 08          	mov    %eax,0x8(%esp)
 8049a33:	8d 04 1f             	lea    (%edi,%ebx,1),%eax
 8049a36:	c7 44 24 0c 00 00 00 	movl   $0x0,0xc(%esp)
 8049a3d:	00 
 8049a3e:	89 44 24 04          	mov    %eax,0x4(%esp)
 8049a42:	8b 45 08             	mov    0x8(%ebp),%eax
 8049a45:	89 04 24             	mov    %eax,(%esp)
 8049a48:	e8 bb f2 ff ff       	call   8048d08 <recv@plt>
 8049a4d:	83 f8 ff             	cmp    $0xffffffff,%eax
 8049a50:	89 c3                	mov    %eax,%ebx
 8049a52:	75 ac                	jne    8049a00 <serveconnection+0x20>
 8049a54:	b8 ff ff ff ff       	mov    $0xffffffff,%eax
 8049a59:	81 c4 7c 41 00 00    	add    $0x417c,%esp
 8049a5f:	5b                   	pop    %ebx
 8049a60:	5e                   	pop    %esi
 8049a61:	5f                   	pop    %edi
 8049a62:	5d                   	pop    %ebp
 8049a63:	c3                   	ret    
 8049a64:	31 d2                	xor    %edx,%edx
 8049a66:	eb 16                	jmp    8049a7e <serveconnection+0x9e>
 8049a68:	3c 0d                	cmp    $0xd,%al
 8049a6a:	74 1a                	je     8049a86 <serveconnection+0xa6>
 8049a6c:	88 84 2a af be ff ff 	mov    %al,-0x4151(%edx,%ebp,1)
 8049a73:	83 c2 01             	add    $0x1,%edx
 8049a76:	81 fa 00 10 00 00    	cmp    $0x1000,%edx
 8049a7c:	74 08                	je     8049a86 <serveconnection+0xa6>
 8049a7e:	0f b6 04 3a          	movzbl (%edx,%edi,1),%eax
 8049a82:	3c 0a                	cmp    $0xa,%al
 8049a84:	75 e2                	jne    8049a68 <serveconnection+0x88>
 8049a86:	c6 84 15 af be ff ff 	movb   $0x0,-0x4151(%ebp,%edx,1)
 8049a8d:	00 
 8049a8e:	8d 95 af be ff ff    	lea    -0x4151(%ebp),%edx
 8049a94:	c7 44 24 04 91 b1 04 	movl   $0x804b191,0x4(%esp)
 8049a9b:	08 
 8049a9c:	89 14 24             	mov    %edx,(%esp)
 8049a9f:	e8 74 f4 ff ff       	call   8048f18 <strtok@plt>
 8049aa4:	85 c0                	test   %eax,%eax
 8049aa6:	89 c3                	mov    %eax,%ebx
 8049aa8:	74 aa                	je     8049a54 <serveconnection+0x74>
 8049aaa:	0f b6 05 a9 b0 04 08 	movzbl 0x804b0a9,%eax
 8049ab1:	3a 03                	cmp    (%ebx),%al
 8049ab3:	75 10                	jne    8049ac5 <serveconnection+0xe5>
 8049ab5:	0f b6 05 aa b0 04 08 	movzbl 0x804b0aa,%eax
 8049abc:	3a 43 01             	cmp    0x1(%ebx),%al
 8049abf:	0f 84 33 02 00 00    	je     8049cf8 <serveconnection+0x318>
 8049ac5:	8b 45 e4             	mov    -0x1c(%ebp),%eax
 8049ac8:	89 04 24             	mov    %eax,(%esp)
 8049acb:	e8 b8 f1 ff ff       	call   8048c88 <inet_ntoa@plt>
 8049ad0:	89 5c 24 08          	mov    %ebx,0x8(%esp)
 8049ad4:	c7 04 24 a8 af 04 08 	movl   $0x804afa8,(%esp)
 8049adb:	89 44 24 04          	mov    %eax,0x4(%esp)
 8049adf:	e8 1c 08 00 00       	call   804a300 <Log>
 8049ae4:	8d 85 af fe ff ff    	lea    -0x151(%ebp),%eax
 8049aea:	c7 44 24 04 40 c5 04 	movl   $0x804c540,0x4(%esp)
 8049af1:	08 
 8049af2:	89 04 24             	mov    %eax,(%esp)
 8049af5:	e8 5e f3 ff ff       	call   8048e58 <strcpy@plt>
 8049afa:	8d 95 af fe ff ff    	lea    -0x151(%ebp),%edx
 8049b00:	89 14 24             	mov    %edx,(%esp)
 8049b03:	e8 10 f3 ff ff       	call   8048e18 <strlen@plt>
 8049b08:	8d 95 af fe ff ff    	lea    -0x151(%ebp),%edx
 8049b0e:	8d 04 02             	lea    (%edx,%eax,1),%eax
 8049b11:	c7 00 2f 63 6d 64    	movl   $0x646d632f,(%eax)
 8049b17:	c7 40 04 65 72 72 6f 	movl   $0x6f727265,0x4(%eax)
 8049b1e:	c7 40 08 72 2e 68 74 	movl   $0x74682e72,0x8(%eax)
 8049b25:	66 c7 40 0c 6d 6c    	movw   $0x6c6d,0xc(%eax)
 8049b2b:	c6 40 0e 00          	movb   $0x0,0xe(%eax)
 8049b2f:	8d 85 af fe ff ff    	lea    -0x151(%ebp),%eax
 8049b35:	c7 44 24 04 de b0 04 	movl   $0x804b0de,0x4(%esp)
 8049b3c:	08 
 8049b3d:	89 04 24             	mov    %eax,(%esp)
 8049b40:	e8 e3 f2 ff ff       	call   8048e28 <fopen@plt>
 8049b45:	85 c0                	test   %eax,%eax
 8049b47:	89 c6                	mov    %eax,%esi
 8049b49:	0f 84 05 ff ff ff    	je     8049a54 <serveconnection+0x74>
 8049b4f:	c7 44 24 08 02 00 00 	movl   $0x2,0x8(%esp)
 8049b56:	00 
 8049b57:	c7 44 24 04 00 00 00 	movl   $0x0,0x4(%esp)
 8049b5e:	00 
 8049b5f:	89 04 24             	mov    %eax,(%esp)
 8049b62:	e8 61 f2 ff ff       	call   8048dc8 <fseek@plt>
 8049b67:	c7 44 24 0c 00 00 00 	movl   $0x0,0xc(%esp)
 8049b6e:	00 
 8049b6f:	c7 44 24 08 10 00 00 	movl   $0x10,0x8(%esp)
 8049b76:	00 
 8049b77:	c7 44 24 04 c0 b0 04 	movl   $0x804b0c0,0x4(%esp)
 8049b7e:	08 
 8049b7f:	8b 55 08             	mov    0x8(%ebp),%edx
 8049b82:	89 14 24             	mov    %edx,(%esp)
 8049b85:	e8 be f3 ff ff       	call   8048f48 <send@plt>
 8049b8a:	83 c0 01             	add    $0x1,%eax
 8049b8d:	0f 84 4d 01 00 00    	je     8049ce0 <serveconnection+0x300>
 8049b93:	c7 44 24 0c 00 00 00 	movl   $0x0,0xc(%esp)
 8049b9a:	00 
 8049b9b:	c7 44 24 08 22 00 00 	movl   $0x22,0x8(%esp)
 8049ba2:	00 
 8049ba3:	c7 44 24 04 44 b0 04 	movl   $0x804b044,0x4(%esp)
 8049baa:	08 
 8049bab:	8b 45 08             	mov    0x8(%ebp),%eax
 8049bae:	89 04 24             	mov    %eax,(%esp)
 8049bb1:	e8 92 f3 ff ff       	call   8048f48 <send@plt>
 8049bb6:	83 c0 01             	add    $0x1,%eax
 8049bb9:	0f 84 21 01 00 00    	je     8049ce0 <serveconnection+0x300>
 8049bbf:	89 34 24             	mov    %esi,(%esp)
 8049bc2:	e8 a1 f2 ff ff       	call   8048e68 <ftell@plt>
 8049bc7:	8d 95 af be ff ff    	lea    -0x4151(%ebp),%edx
 8049bcd:	89 14 24             	mov    %edx,(%esp)
 8049bd0:	c7 44 24 04 e1 b0 04 	movl   $0x804b0e1,0x4(%esp)
 8049bd7:	08 
 8049bd8:	89 44 24 08          	mov    %eax,0x8(%esp)
 8049bdc:	e8 77 f0 ff ff       	call   8048c58 <sprintf@plt>
 8049be1:	8d 85 af be ff ff    	lea    -0x4151(%ebp),%eax
 8049be7:	89 04 24             	mov    %eax,(%esp)
 8049bea:	e8 29 f2 ff ff       	call   8048e18 <strlen@plt>
 8049bef:	8d 95 af be ff ff    	lea    -0x4151(%ebp),%edx
 8049bf5:	c7 44 24 0c 00 00 00 	movl   $0x0,0xc(%esp)
 8049bfc:	00 
 8049bfd:	89 54 24 04          	mov    %edx,0x4(%esp)
 8049c01:	89 44 24 08          	mov    %eax,0x8(%esp)
 8049c05:	8b 45 08             	mov    0x8(%ebp),%eax
 8049c08:	89 04 24             	mov    %eax,(%esp)
 8049c0b:	e8 38 f3 ff ff       	call   8048f48 <send@plt>
 8049c10:	83 c0 01             	add    $0x1,%eax
 8049c13:	0f 84 c7 00 00 00    	je     8049ce0 <serveconnection+0x300>
 8049c19:	8d 95 af fe ff ff    	lea    -0x151(%ebp),%edx
 8049c1f:	8d 5d ae             	lea    -0x52(%ebp),%ebx
 8049c22:	89 14 24             	mov    %edx,(%esp)
 8049c25:	89 5c 24 04          	mov    %ebx,0x4(%esp)
 8049c29:	e8 92 fc ff ff       	call   80498c0 <getmimetype>
 8049c2e:	8d 85 af be ff ff    	lea    -0x4151(%ebp),%eax
 8049c34:	89 5c 24 08          	mov    %ebx,0x8(%esp)
 8049c38:	c7 44 24 04 f5 b0 04 	movl   $0x804b0f5,0x4(%esp)
 8049c3f:	08 
 8049c40:	89 04 24             	mov    %eax,(%esp)
 8049c43:	e8 10 f0 ff ff       	call   8048c58 <sprintf@plt>
 8049c48:	8d 95 af be ff ff    	lea    -0x4151(%ebp),%edx
 8049c4e:	89 14 24             	mov    %edx,(%esp)
 8049c51:	e8 c2 f1 ff ff       	call   8048e18 <strlen@plt>
 8049c56:	c7 44 24 0c 00 00 00 	movl   $0x0,0xc(%esp)
 8049c5d:	00 
 8049c5e:	89 44 24 08          	mov    %eax,0x8(%esp)
 8049c62:	8d 85 af be ff ff    	lea    -0x4151(%ebp),%eax
 8049c68:	89 44 24 04          	mov    %eax,0x4(%esp)
 8049c6c:	8b 55 08             	mov    0x8(%ebp),%edx
 8049c6f:	89 14 24             	mov    %edx,(%esp)
 8049c72:	e8 d1 f2 ff ff       	call   8048f48 <send@plt>
 8049c77:	83 c0 01             	add    $0x1,%eax
 8049c7a:	74 64                	je     8049ce0 <serveconnection+0x300>
 8049c7c:	c7 44 24 08 00 00 00 	movl   $0x0,0x8(%esp)
 8049c83:	00 
 8049c84:	c7 44 24 04 00 00 00 	movl   $0x0,0x4(%esp)
 8049c8b:	00 
 8049c8c:	89 34 24             	mov    %esi,(%esp)
 8049c8f:	e8 34 f1 ff ff       	call   8048dc8 <fseek@plt>
 8049c94:	89 34 24             	mov    %esi,(%esp)
 8049c97:	e8 ac f1 ff ff       	call   8048e48 <feof@plt>
 8049c9c:	85 c0                	test   %eax,%eax
 8049c9e:	0f 85 a9 01 00 00    	jne    8049e4d <serveconnection+0x46d>
 8049ca4:	89 74 24 0c          	mov    %esi,0xc(%esp)
 8049ca8:	c7 44 24 08 00 04 00 	movl   $0x400,0x8(%esp)
 8049caf:	00 
 8049cb0:	c7 44 24 04 01 00 00 	movl   $0x1,0x4(%esp)
 8049cb7:	00 
 8049cb8:	89 3c 24             	mov    %edi,(%esp)
 8049cbb:	e8 d8 f2 ff ff       	call   8048f98 <fread@plt>
 8049cc0:	c7 44 24 0c 00 00 00 	movl   $0x0,0xc(%esp)
 8049cc7:	00 
 8049cc8:	89 7c 24 04          	mov    %edi,0x4(%esp)
 8049ccc:	89 44 24 08          	mov    %eax,0x8(%esp)
 8049cd0:	8b 45 08             	mov    0x8(%ebp),%eax
 8049cd3:	89 04 24             	mov    %eax,(%esp)
 8049cd6:	e8 6d f2 ff ff       	call   8048f48 <send@plt>
 8049cdb:	83 c0 01             	add    $0x1,%eax
 8049cde:	75 b4                	jne    8049c94 <serveconnection+0x2b4>
 8049ce0:	89 34 24             	mov    %esi,(%esp)
 8049ce3:	e8 00 f1 ff ff       	call   8048de8 <fclose@plt>
 8049ce8:	81 c4 7c 41 00 00    	add    $0x417c,%esp
 8049cee:	b8 ff ff ff ff       	mov    $0xffffffff,%eax
 8049cf3:	5b                   	pop    %ebx
 8049cf4:	5e                   	pop    %esi
 8049cf5:	5f                   	pop    %edi
 8049cf6:	5d                   	pop    %ebp
 8049cf7:	c3                   	ret    
 8049cf8:	0f b6 05 ab b0 04 08 	movzbl 0x804b0ab,%eax
 8049cff:	3a 43 02             	cmp    0x2(%ebx),%al
 8049d02:	0f 85 bd fd ff ff    	jne    8049ac5 <serveconnection+0xe5>
 8049d08:	0f b6 05 ac b0 04 08 	movzbl 0x804b0ac,%eax
 8049d0f:	3a 43 03             	cmp    0x3(%ebx),%al
 8049d12:	0f 85 ad fd ff ff    	jne    8049ac5 <serveconnection+0xe5>
 8049d18:	c7 44 24 04 91 b1 04 	movl   $0x804b191,0x4(%esp)
 8049d1f:	08 
 8049d20:	c7 04 24 00 00 00 00 	movl   $0x0,(%esp)
 8049d27:	e8 ec f1 ff ff       	call   8048f18 <strtok@plt>
 8049d2c:	85 c0                	test   %eax,%eax
 8049d2e:	89 85 a0 be ff ff    	mov    %eax,-0x4160(%ebp)
 8049d34:	0f 84 2d 01 00 00    	je     8049e67 <serveconnection+0x487>
 8049d3a:	c7 44 24 04 ad b0 04 	movl   $0x804b0ad,0x4(%esp)
 8049d41:	08 
 8049d42:	89 3c 24             	mov    %edi,(%esp)
 8049d45:	e8 8e f1 ff ff       	call   8048ed8 <strstr@plt>
 8049d4a:	c7 85 9c be ff ff 80 	movl   $0x804df80,-0x4164(%ebp)
 8049d51:	df 04 08 
 8049d54:	85 c0                	test   %eax,%eax
 8049d56:	74 6d                	je     8049dc5 <serveconnection+0x3e5>
 8049d58:	83 c0 06             	add    $0x6,%eax
 8049d5b:	c7 44 24 04 b3 b0 04 	movl   $0x804b0b3,0x4(%esp)
 8049d62:	08 
 8049d63:	89 04 24             	mov    %eax,(%esp)
 8049d66:	e8 ad f1 ff ff       	call   8048f18 <strtok@plt>
 8049d6b:	c7 85 9c be ff ff 80 	movl   $0x804df80,-0x4164(%ebp)
 8049d72:	df 04 08 
 8049d75:	89 85 94 be ff ff    	mov    %eax,-0x416c(%ebp)
 8049d7b:	a1 68 df 04 08       	mov    0x804df68,%eax
 8049d80:	85 c0                	test   %eax,%eax
 8049d82:	74 41                	je     8049dc5 <serveconnection+0x3e5>
 8049d84:	31 f6                	xor    %esi,%esi
 8049d86:	31 db                	xor    %ebx,%ebx
 8049d88:	8b 85 94 be ff ff    	mov    -0x416c(%ebp),%eax
 8049d8e:	89 44 24 04          	mov    %eax,0x4(%esp)
 8049d92:	89 d8                	mov    %ebx,%eax
 8049d94:	03 05 6c df 04 08    	add    0x804df6c,%eax
 8049d9a:	89 04 24             	mov    %eax,(%esp)
 8049d9d:	e8 7e 06 00 00       	call   804a420 <gstricmp>
 8049da2:	85 c0                	test   %eax,%eax
 8049da4:	75 0e                	jne    8049db4 <serveconnection+0x3d4>
 8049da6:	8b 15 6c df 04 08    	mov    0x804df6c,%edx
 8049dac:	01 da                	add    %ebx,%edx
 8049dae:	89 95 9c be ff ff    	mov    %edx,-0x4164(%ebp)
 8049db4:	83 c6 01             	add    $0x1,%esi
 8049db7:	81 c3 fb 04 00 00    	add    $0x4fb,%ebx
 8049dbd:	39 35 68 df 04 08    	cmp    %esi,0x804df68
 8049dc3:	77 c3                	ja     8049d88 <serveconnection+0x3a8>
 8049dc5:	c7 44 24 04 b8 b0 04 	movl   $0x804b0b8,0x4(%esp)
 8049dcc:	08 
 8049dcd:	8b 85 a0 be ff ff    	mov    -0x4160(%ebp),%eax
 8049dd3:	89 04 24             	mov    %eax,(%esp)
 8049dd6:	e8 fd f0 ff ff       	call   8048ed8 <strstr@plt>
 8049ddb:	85 c0                	test   %eax,%eax
 8049ddd:	0f 84 c8 00 00 00    	je     8049eab <serveconnection+0x4cb>
 8049de3:	8b 45 e4             	mov    -0x1c(%ebp),%eax
 8049de6:	89 04 24             	mov    %eax,(%esp)
 8049de9:	e8 9a ee ff ff       	call   8048c88 <inet_ntoa@plt>
 8049dee:	8b 95 a0 be ff ff    	mov    -0x4160(%ebp),%edx
 8049df4:	c7 04 24 f8 af 04 08 	movl   $0x804aff8,(%esp)
 8049dfb:	89 54 24 08          	mov    %edx,0x8(%esp)
 8049dff:	89 44 24 04          	mov    %eax,0x4(%esp)
 8049e03:	e8 f8 04 00 00       	call   804a300 <Log>
 8049e08:	8d 85 af fe ff ff    	lea    -0x151(%ebp),%eax
 8049e0e:	c7 44 24 04 40 c5 04 	movl   $0x804c540,0x4(%esp)
 8049e15:	08 
 8049e16:	89 04 24             	mov    %eax,(%esp)
 8049e19:	e8 3a f0 ff ff       	call   8048e58 <strcpy@plt>
 8049e1e:	8d 95 af fe ff ff    	lea    -0x151(%ebp),%edx
 8049e24:	89 14 24             	mov    %edx,(%esp)
 8049e27:	e8 ec ef ff ff       	call   8048e18 <strlen@plt>
 8049e2c:	8d 95 af fe ff ff    	lea    -0x151(%ebp),%edx
 8049e32:	8d 04 02             	lea    (%edx,%eax,1),%eax
 8049e35:	c7 00 2f 34 30 34    	movl   $0x3430342f,(%eax)
 8049e3b:	c7 40 04 2e 68 74 6d 	movl   $0x6d74682e,0x4(%eax)
 8049e42:	66 c7 40 08 6c 00    	movw   $0x6c,0x8(%eax)
 8049e48:	e9 e2 fc ff ff       	jmp    8049b2f <serveconnection+0x14f>
 8049e4d:	89 34 24             	mov    %esi,(%esp)
 8049e50:	e8 93 ef ff ff       	call   8048de8 <fclose@plt>
 8049e55:	8b 55 08             	mov    0x8(%ebp),%edx
 8049e58:	89 14 24             	mov    %edx,(%esp)
 8049e5b:	e8 68 f0 ff ff       	call   8048ec8 <close@plt>
 8049e60:	31 c0                	xor    %eax,%eax
 8049e62:	e9 f2 fb ff ff       	jmp    8049a59 <serveconnection+0x79>
 8049e67:	8b 45 e4             	mov    -0x1c(%ebp),%eax
 8049e6a:	89 04 24             	mov    %eax,(%esp)
 8049e6d:	e8 16 ee ff ff       	call   8048c88 <inet_ntoa@plt>
 8049e72:	c7 04 24 d0 af 04 08 	movl   $0x804afd0,(%esp)
 8049e79:	89 44 24 04          	mov    %eax,0x4(%esp)
 8049e7d:	e8 7e 04 00 00       	call   804a300 <Log>
 8049e82:	8d 85 af fe ff ff    	lea    -0x151(%ebp),%eax
 8049e88:	c7 44 24 04 40 c5 04 	movl   $0x804c540,0x4(%esp)
 8049e8f:	08 
 8049e90:	89 04 24             	mov    %eax,(%esp)
 8049e93:	e8 c0 ef ff ff       	call   8048e58 <strcpy@plt>
 8049e98:	8d 95 af fe ff ff    	lea    -0x151(%ebp),%edx
 8049e9e:	89 14 24             	mov    %edx,(%esp)
 8049ea1:	e8 72 ef ff ff       	call   8048e18 <strlen@plt>
 8049ea6:	e9 5d fc ff ff       	jmp    8049b08 <serveconnection+0x128>
 8049eab:	8d 55 e0             	lea    -0x20(%ebp),%edx
 8049eae:	8d 45 f0             	lea    -0x10(%ebp),%eax
 8049eb1:	89 54 24 04          	mov    %edx,0x4(%esp)
 8049eb5:	89 44 24 08          	mov    %eax,0x8(%esp)
 8049eb9:	8b 45 08             	mov    0x8(%ebp),%eax
 8049ebc:	89 04 24             	mov    %eax,(%esp)
 8049ebf:	e8 14 f1 ff ff       	call   8048fd8 <getpeername@plt>
 8049ec4:	8b 45 e4             	mov    -0x1c(%ebp),%eax
 8049ec7:	89 04 24             	mov    %eax,(%esp)
 8049eca:	e8 b9 ed ff ff       	call   8048c88 <inet_ntoa@plt>
 8049ecf:	8b 95 a0 be ff ff    	mov    -0x4160(%ebp),%edx
 8049ed5:	c7 04 24 1c b0 04 08 	movl   $0x804b01c,(%esp)
 8049edc:	89 54 24 08          	mov    %edx,0x8(%esp)
 8049ee0:	89 44 24 04          	mov    %eax,0x4(%esp)
 8049ee4:	e8 17 04 00 00       	call   804a300 <Log>
 8049ee9:	eb 15                	jmp    8049f00 <serveconnection+0x520>
 8049eeb:	8d 42 03             	lea    0x3(%edx),%eax
 8049eee:	c6 02 20             	movb   $0x20,(%edx)
 8049ef1:	89 44 24 04          	mov    %eax,0x4(%esp)
 8049ef5:	8d 42 01             	lea    0x1(%edx),%eax
 8049ef8:	89 04 24             	mov    %eax,(%esp)
 8049efb:	e8 58 ef ff ff       	call   8048e58 <strcpy@plt>
 8049f00:	c7 44 24 04 bc b0 04 	movl   $0x804b0bc,0x4(%esp)
 8049f07:	08 
 8049f08:	8b 85 a0 be ff ff    	mov    -0x4160(%ebp),%eax
 8049f0e:	89 04 24             	mov    %eax,(%esp)
 8049f11:	e8 c2 ef ff ff       	call   8048ed8 <strstr@plt>
 8049f16:	85 c0                	test   %eax,%eax
 8049f18:	89 c2                	mov    %eax,%edx
 8049f1a:	75 cf                	jne    8049eeb <serveconnection+0x50b>
 8049f1c:	8b 9d 9c be ff ff    	mov    -0x4164(%ebp),%ebx
 8049f22:	81 c3 fd 02 00 00    	add    $0x2fd,%ebx
 8049f28:	89 1c 24             	mov    %ebx,(%esp)
 8049f2b:	e8 e8 ee ff ff       	call   8048e18 <strlen@plt>
 8049f30:	89 5c 24 04          	mov    %ebx,0x4(%esp)
 8049f34:	89 44 24 08          	mov    %eax,0x8(%esp)
 8049f38:	8b 95 a0 be ff ff    	mov    -0x4160(%ebp),%edx
 8049f3e:	89 14 24             	mov    %edx,(%esp)
 8049f41:	e8 42 f0 ff ff       	call   8048f88 <strncmp@plt>
 8049f46:	85 c0                	test   %eax,%eax
 8049f48:	0f 85 23 01 00 00    	jne    804a071 <serveconnection+0x691>
 8049f4e:	c7 44 24 04 3f 00 00 	movl   $0x3f,0x4(%esp)
 8049f55:	00 
 8049f56:	8b 85 a0 be ff ff    	mov    -0x4160(%ebp),%eax
 8049f5c:	89 04 24             	mov    %eax,(%esp)
 8049f5f:	e8 94 ed ff ff       	call   8048cf8 <strchr@plt>
 8049f64:	c7 85 98 be ff ff 00 	movl   $0x0,-0x4168(%ebp)
 8049f6b:	00 00 00 
 8049f6e:	85 c0                	test   %eax,%eax
 8049f70:	89 c6                	mov    %eax,%esi
 8049f72:	74 0d                	je     8049f81 <serveconnection+0x5a1>
 8049f74:	c6 00 00             	movb   $0x0,(%eax)
 8049f77:	c7 85 98 be ff ff 01 	movl   $0x1,-0x4168(%ebp)
 8049f7e:	00 00 00 
 8049f81:	8b 95 9c be ff ff    	mov    -0x4164(%ebp),%edx
 8049f87:	8d 85 af fe ff ff    	lea    -0x151(%ebp),%eax
 8049f8d:	81 c2 fc 03 00 00    	add    $0x3fc,%edx
 8049f93:	89 95 90 be ff ff    	mov    %edx,-0x4170(%ebp)
 8049f99:	89 54 24 04          	mov    %edx,0x4(%esp)
 8049f9d:	89 04 24             	mov    %eax,(%esp)
 8049fa0:	e8 b3 ee ff ff       	call   8048e58 <strcpy@plt>
 8049fa5:	8d 95 af fe ff ff    	lea    -0x151(%ebp),%edx
 8049fab:	89 14 24             	mov    %edx,(%esp)
 8049fae:	e8 65 ee ff ff       	call   8048e18 <strlen@plt>
 8049fb3:	ba ff 00 00 00       	mov    $0xff,%edx
 8049fb8:	89 1c 24             	mov    %ebx,(%esp)
 8049fbb:	29 c2                	sub    %eax,%edx
 8049fbd:	89 54 24 08          	mov    %edx,0x8(%esp)
 8049fc1:	e8 52 ee ff ff       	call   8048e18 <strlen@plt>
 8049fc6:	03 85 a0 be ff ff    	add    -0x4160(%ebp),%eax
 8049fcc:	89 44 24 04          	mov    %eax,0x4(%esp)
 8049fd0:	8d 85 af fe ff ff    	lea    -0x151(%ebp),%eax
 8049fd6:	89 04 24             	mov    %eax,(%esp)
 8049fd9:	e8 1a ef ff ff       	call   8048ef8 <strncat@plt>
 8049fde:	8d 95 af fe ff ff    	lea    -0x151(%ebp),%edx
 8049fe4:	89 14 24             	mov    %edx,(%esp)
 8049fe7:	e8 e4 0a 00 00       	call   804aad0 <does_file_exist>
 8049fec:	83 e8 01             	sub    $0x1,%eax
 8049fef:	0f 84 a6 01 00 00    	je     804a19b <serveconnection+0x7bb>
 8049ff5:	8b 45 e4             	mov    -0x1c(%ebp),%eax
 8049ff8:	89 04 24             	mov    %eax,(%esp)
 8049ffb:	e8 88 ec ff ff       	call   8048c88 <inet_ntoa@plt>
 804a000:	8d 56 01             	lea    0x1(%esi),%edx
 804a003:	89 54 24 0c          	mov    %edx,0xc(%esp)
 804a007:	8d 95 af fe ff ff    	lea    -0x151(%ebp),%edx
 804a00d:	89 54 24 08          	mov    %edx,0x8(%esp)
 804a011:	c7 04 24 68 b0 04 08 	movl   $0x804b068,(%esp)
 804a018:	89 44 24 04          	mov    %eax,0x4(%esp)
 804a01c:	e8 df 02 00 00       	call   804a300 <Log>
 804a021:	8d 85 af fe ff ff    	lea    -0x151(%ebp),%eax
 804a027:	c7 44 24 04 40 c5 04 	movl   $0x804c540,0x4(%esp)
 804a02e:	08 
 804a02f:	89 04 24             	mov    %eax,(%esp)
 804a032:	e8 21 ee ff ff       	call   8048e58 <strcpy@plt>
 804a037:	8d 95 af fe ff ff    	lea    -0x151(%ebp),%edx
 804a03d:	89 14 24             	mov    %edx,(%esp)
 804a040:	e8 d3 ed ff ff       	call   8048e18 <strlen@plt>
 804a045:	8d 95 af fe ff ff    	lea    -0x151(%ebp),%edx
 804a04b:	8d 04 02             	lea    (%edx,%eax,1),%eax
 804a04e:	c7 00 2f 63 67 69    	movl   $0x6967632f,(%eax)
 804a054:	c7 40 04 65 72 72 6f 	movl   $0x6f727265,0x4(%eax)
 804a05b:	c7 40 08 72 2e 68 74 	movl   $0x74682e72,0x8(%eax)
 804a062:	66 c7 40 0c 6d 6c    	movw   $0x6c6d,0xc(%eax)
 804a068:	c6 40 0e 00          	movb   $0x0,0xe(%eax)
 804a06c:	e9 be fa ff ff       	jmp    8049b2f <serveconnection+0x14f>
 804a071:	8b 85 9c be ff ff    	mov    -0x4164(%ebp),%eax
 804a077:	05 ff 00 00 00       	add    $0xff,%eax
 804a07c:	89 44 24 04          	mov    %eax,0x4(%esp)
 804a080:	8d 85 af fe ff ff    	lea    -0x151(%ebp),%eax
 804a086:	89 04 24             	mov    %eax,(%esp)
 804a089:	e8 ca ed ff ff       	call   8048e58 <strcpy@plt>
 804a08e:	8d 95 af fe ff ff    	lea    -0x151(%ebp),%edx
 804a094:	89 14 24             	mov    %edx,(%esp)
 804a097:	e8 7c ed ff ff       	call   8048e18 <strlen@plt>
 804a09c:	ba ff 00 00 00       	mov    $0xff,%edx
 804a0a1:	29 c2                	sub    %eax,%edx
 804a0a3:	89 54 24 08          	mov    %edx,0x8(%esp)
 804a0a7:	8b 85 a0 be ff ff    	mov    -0x4160(%ebp),%eax
 804a0ad:	8d 95 af fe ff ff    	lea    -0x151(%ebp),%edx
 804a0b3:	89 14 24             	mov    %edx,(%esp)
 804a0b6:	89 44 24 04          	mov    %eax,0x4(%esp)
 804a0ba:	e8 39 ee ff ff       	call   8048ef8 <strncat@plt>
 804a0bf:	8d 85 af fe ff ff    	lea    -0x151(%ebp),%eax
 804a0c5:	89 04 24             	mov    %eax,(%esp)
 804a0c8:	e8 03 0a 00 00       	call   804aad0 <does_file_exist>
 804a0cd:	85 c0                	test   %eax,%eax
 804a0cf:	0f 85 5a fa ff ff    	jne    8049b2f <serveconnection+0x14f>
 804a0d5:	8d 95 af fe ff ff    	lea    -0x151(%ebp),%edx
 804a0db:	89 14 24             	mov    %edx,(%esp)
 804a0de:	e8 35 ed ff ff       	call   8048e18 <strlen@plt>
 804a0e3:	80 bc 05 ae fe ff ff 	cmpb   $0x2f,-0x152(%ebp,%eax,1)
 804a0ea:	2f 
 804a0eb:	74 18                	je     804a105 <serveconnection+0x725>
 804a0ed:	8d 95 af fe ff ff    	lea    -0x151(%ebp),%edx
 804a0f3:	89 14 24             	mov    %edx,(%esp)
 804a0f6:	e8 1d ed ff ff       	call   8048e18 <strlen@plt>
 804a0fb:	66 c7 84 05 af fe ff 	movw   $0x2f,-0x151(%ebp,%eax,1)
 804a102:	ff 2f 00 
 804a105:	8b b5 9c be ff ff    	mov    -0x4164(%ebp),%esi
 804a10b:	8d 85 af fe ff ff    	lea    -0x151(%ebp),%eax
 804a111:	89 04 24             	mov    %eax,(%esp)
 804a114:	81 c6 fe 01 00 00    	add    $0x1fe,%esi
 804a11a:	89 74 24 04          	mov    %esi,0x4(%esp)
 804a11e:	e8 15 ee ff ff       	call   8048f38 <strcat@plt>
 804a123:	8d 95 af fe ff ff    	lea    -0x151(%ebp),%edx
 804a129:	89 14 24             	mov    %edx,(%esp)
 804a12c:	e8 9f 09 00 00       	call   804aad0 <does_file_exist>
 804a131:	85 c0                	test   %eax,%eax
 804a133:	0f 85 f6 f9 ff ff    	jne    8049b2f <serveconnection+0x14f>
 804a139:	8d 85 af fe ff ff    	lea    -0x151(%ebp),%eax
 804a13f:	89 04 24             	mov    %eax,(%esp)
 804a142:	e8 d1 ec ff ff       	call   8048e18 <strlen@plt>
 804a147:	89 34 24             	mov    %esi,(%esp)
 804a14a:	89 c3                	mov    %eax,%ebx
 804a14c:	e8 c7 ec ff ff       	call   8048e18 <strlen@plt>
 804a151:	8d 95 af fe ff ff    	lea    -0x151(%ebp),%edx
 804a157:	29 c3                	sub    %eax,%ebx
 804a159:	c6 84 1d ae fe ff ff 	movb   $0x0,-0x152(%ebp,%ebx,1)
 804a160:	00 
 804a161:	89 14 24             	mov    %edx,(%esp)
 804a164:	e8 77 03 00 00       	call   804a4e0 <isDirectory>
 804a169:	83 e8 01             	sub    $0x1,%eax
 804a16c:	0f 84 60 01 00 00    	je     804a2d2 <serveconnection+0x8f2>
 804a172:	8d 95 af fe ff ff    	lea    -0x151(%ebp),%edx
 804a178:	c7 44 24 04 40 c5 04 	movl   $0x804c540,0x4(%esp)
 804a17f:	08 
 804a180:	89 14 24             	mov    %edx,(%esp)
 804a183:	e8 d0 ec ff ff       	call   8048e58 <strcpy@plt>
 804a188:	8d 85 af fe ff ff    	lea    -0x151(%ebp),%eax
 804a18e:	89 04 24             	mov    %eax,(%esp)
 804a191:	e8 82 ec ff ff       	call   8048e18 <strlen@plt>
 804a196:	e9 91 fc ff ff       	jmp    8049e2c <serveconnection+0x44c>
 804a19b:	8d 85 af fe ff ff    	lea    -0x151(%ebp),%eax
 804a1a1:	89 04 24             	mov    %eax,(%esp)
 804a1a4:	e8 37 03 00 00       	call   804a4e0 <isDirectory>
 804a1a9:	85 c0                	test   %eax,%eax
 804a1ab:	0f 85 44 fe ff ff    	jne    8049ff5 <serveconnection+0x615>
 804a1b1:	c7 44 24 0c 00 00 00 	movl   $0x0,0xc(%esp)
 804a1b8:	00 
 804a1b9:	c7 44 24 08 10 00 00 	movl   $0x10,0x8(%esp)
 804a1c0:	00 
 804a1c1:	c7 44 24 04 c0 b0 04 	movl   $0x804b0c0,0x4(%esp)
 804a1c8:	08 
 804a1c9:	8b 55 08             	mov    0x8(%ebp),%edx
 804a1cc:	89 14 24             	mov    %edx,(%esp)
 804a1cf:	e8 74 ed ff ff       	call   8048f48 <send@plt>
 804a1d4:	83 c0 01             	add    $0x1,%eax
 804a1d7:	0f 84 e3 00 00 00    	je     804a2c0 <serveconnection+0x8e0>
 804a1dd:	c7 44 24 0c 00 00 00 	movl   $0x0,0xc(%esp)
 804a1e4:	00 
 804a1e5:	c7 44 24 08 22 00 00 	movl   $0x22,0x8(%esp)
 804a1ec:	00 
 804a1ed:	c7 44 24 04 44 b0 04 	movl   $0x804b044,0x4(%esp)
 804a1f4:	08 
 804a1f5:	8b 45 08             	mov    0x8(%ebp),%eax
 804a1f8:	89 04 24             	mov    %eax,(%esp)
 804a1fb:	e8 48 ed ff ff       	call   8048f48 <send@plt>
 804a200:	83 c0 01             	add    $0x1,%eax
 804a203:	0f 84 b7 00 00 00    	je     804a2c0 <serveconnection+0x8e0>
 804a209:	c7 44 24 04 00 00 00 	movl   $0x0,0x4(%esp)
 804a210:	00 
 804a211:	8b 55 08             	mov    0x8(%ebp),%edx
 804a214:	89 14 24             	mov    %edx,(%esp)
 804a217:	e8 9c eb ff ff       	call   8048db8 <dup2@plt>
 804a21c:	85 c0                	test   %eax,%eax
 804a21e:	0f 85 30 f8 ff ff    	jne    8049a54 <serveconnection+0x74>
 804a224:	c7 44 24 04 01 00 00 	movl   $0x1,0x4(%esp)
 804a22b:	00 
 804a22c:	8b 45 08             	mov    0x8(%ebp),%eax
 804a22f:	89 04 24             	mov    %eax,(%esp)
 804a232:	e8 81 eb ff ff       	call   8048db8 <dup2@plt>
 804a237:	83 e8 01             	sub    $0x1,%eax
 804a23a:	0f 85 14 f8 ff ff    	jne    8049a54 <serveconnection+0x74>
 804a240:	a1 40 df 04 08       	mov    0x804df40,%eax
 804a245:	c7 44 24 04 00 00 00 	movl   $0x0,0x4(%esp)
 804a24c:	00 
 804a24d:	89 04 24             	mov    %eax,(%esp)
 804a250:	e8 23 ea ff ff       	call   8048c78 <setbuf@plt>
 804a255:	a1 60 df 04 08       	mov    0x804df60,%eax
 804a25a:	c7 44 24 04 00 00 00 	movl   $0x0,0x4(%esp)
 804a261:	00 
 804a262:	89 04 24             	mov    %eax,(%esp)
 804a265:	e8 0e ea ff ff       	call   8048c78 <setbuf@plt>
 804a26a:	83 bd 98 be ff ff 01 	cmpl   $0x1,-0x4168(%ebp)
 804a271:	75 1b                	jne    804a28e <serveconnection+0x8ae>
 804a273:	8d 46 01             	lea    0x1(%esi),%eax
 804a276:	c7 44 24 08 01 00 00 	movl   $0x1,0x8(%esp)
 804a27d:	00 
 804a27e:	89 44 24 04          	mov    %eax,0x4(%esp)
 804a282:	c7 04 24 d1 b0 04 08 	movl   $0x804b0d1,(%esp)
 804a289:	e8 7a ed ff ff       	call   8049008 <setenv@plt>
 804a28e:	8b 95 90 be ff ff    	mov    -0x4170(%ebp),%edx
 804a294:	89 14 24             	mov    %edx,(%esp)
 804a297:	e8 ec eb ff ff       	call   8048e88 <chdir@plt>
 804a29c:	8d 85 af fe ff ff    	lea    -0x151(%ebp),%eax
 804a2a2:	c7 44 24 04 00 00 00 	movl   $0x0,0x4(%esp)
 804a2a9:	00 
 804a2aa:	89 04 24             	mov    %eax,(%esp)
 804a2ad:	e8 26 eb ff ff       	call   8048dd8 <execlp@plt>
 804a2b2:	31 c0                	xor    %eax,%eax
 804a2b4:	e9 a0 f7 ff ff       	jmp    8049a59 <serveconnection+0x79>
 804a2b9:	8d b4 26 00 00 00 00 	lea    0x0(%esi),%esi
 804a2c0:	89 1c 24             	mov    %ebx,(%esp)
 804a2c3:	e8 20 eb ff ff       	call   8048de8 <fclose@plt>
 804a2c8:	b8 ff ff ff ff       	mov    $0xffffffff,%eax
 804a2cd:	e9 87 f7 ff ff       	jmp    8049a59 <serveconnection+0x79>
 804a2d2:	8b 85 9c be ff ff    	mov    -0x4164(%ebp),%eax
 804a2d8:	89 44 24 08          	mov    %eax,0x8(%esp)
 804a2dc:	8b 55 08             	mov    0x8(%ebp),%edx
 804a2df:	8d 85 af fe ff ff    	lea    -0x151(%ebp),%eax
 804a2e5:	89 04 24             	mov    %eax,(%esp)
 804a2e8:	89 54 24 04          	mov    %edx,0x4(%esp)
 804a2ec:	e8 bf f3 ff ff       	call   80496b0 <showdir>
 804a2f1:	31 c0                	xor    %eax,%eax
 804a2f3:	e9 61 f7 ff ff       	jmp    8049a59 <serveconnection+0x79>
 804a2f8:	90                   	nop    
 804a2f9:	90                   	nop    
 804a2fa:	90                   	nop    
 804a2fb:	90                   	nop    
 804a2fc:	90                   	nop    
 804a2fd:	90                   	nop    
 804a2fe:	90                   	nop    
 804a2ff:	90                   	nop    

0804a300 <Log>:
 804a300:	55                   	push   %ebp
 804a301:	89 e5                	mov    %esp,%ebp
 804a303:	57                   	push   %edi
 804a304:	56                   	push   %esi
 804a305:	53                   	push   %ebx
 804a306:	81 ec 4c 03 00 00    	sub    $0x34c,%esp
 804a30c:	a1 22 b1 04 08       	mov    0x804b122,%eax
 804a311:	8d 5d f0             	lea    -0x10(%ebp),%ebx
 804a314:	8d bd 8e fe ff ff    	lea    -0x172(%ebp),%edi
 804a31a:	89 3c 24             	mov    %edi,(%esp)
 804a31d:	89 45 d6             	mov    %eax,-0x2a(%ebp)
 804a320:	a1 26 b1 04 08       	mov    0x804b126,%eax
 804a325:	89 45 da             	mov    %eax,-0x26(%ebp)
 804a328:	a1 2a b1 04 08       	mov    0x804b12a,%eax
 804a32d:	89 45 de             	mov    %eax,-0x22(%ebp)
 804a330:	a1 2e b1 04 08       	mov    0x804b12e,%eax
 804a335:	89 45 e2             	mov    %eax,-0x1e(%ebp)
 804a338:	a1 32 b1 04 08       	mov    0x804b132,%eax
 804a33d:	89 45 e6             	mov    %eax,-0x1a(%ebp)
 804a340:	0f b7 05 36 b1 04 08 	movzwl 0x804b136,%eax
 804a347:	66 89 45 ea          	mov    %ax,-0x16(%ebp)
 804a34b:	8d 45 0c             	lea    0xc(%ebp),%eax
 804a34e:	89 45 ec             	mov    %eax,-0x14(%ebp)
 804a351:	89 44 24 08          	mov    %eax,0x8(%esp)
 804a355:	8b 45 08             	mov    0x8(%ebp),%eax
 804a358:	89 44 24 04          	mov    %eax,0x4(%esp)
 804a35c:	e8 77 e9 ff ff       	call   8048cd8 <vsprintf@plt>
 804a361:	89 1c 24             	mov    %ebx,(%esp)
 804a364:	e8 7f eb ff ff       	call   8048ee8 <time@plt>
 804a369:	89 1c 24             	mov    %ebx,(%esp)
 804a36c:	8d 9d 56 ff ff ff    	lea    -0xaa(%ebp),%ebx
 804a372:	e8 71 e9 ff ff       	call   8048ce8 <localtime@plt>
 804a377:	89 1c 24             	mov    %ebx,(%esp)
 804a37a:	c7 44 24 08 80 00 00 	movl   $0x80,0x8(%esp)
 804a381:	00 
 804a382:	c7 44 24 04 00 00 00 	movl   $0x0,0x4(%esp)
 804a389:	00 
 804a38a:	89 c6                	mov    %eax,%esi
 804a38c:	e8 a7 e9 ff ff       	call   8048d38 <memset@plt>
 804a391:	8d 45 d6             	lea    -0x2a(%ebp),%eax
 804a394:	89 74 24 0c          	mov    %esi,0xc(%esp)
 804a398:	8d b5 c6 fd ff ff    	lea    -0x23a(%ebp),%esi
 804a39e:	89 1c 24             	mov    %ebx,(%esp)
 804a3a1:	89 44 24 08          	mov    %eax,0x8(%esp)
 804a3a5:	c7 44 24 04 7f 00 00 	movl   $0x7f,0x4(%esp)
 804a3ac:	00 
 804a3ad:	e8 06 ec ff ff       	call   8048fb8 <strftime@plt>
 804a3b2:	89 5c 24 08          	mov    %ebx,0x8(%esp)
 804a3b6:	8d 9d c7 fc ff ff    	lea    -0x339(%ebp),%ebx
 804a3bc:	89 7c 24 0c          	mov    %edi,0xc(%esp)
 804a3c0:	c7 44 24 04 08 b1 04 	movl   $0x804b108,0x4(%esp)
 804a3c7:	08 
 804a3c8:	89 34 24             	mov    %esi,(%esp)
 804a3cb:	e8 88 e8 ff ff       	call   8048c58 <sprintf@plt>
 804a3d0:	89 1c 24             	mov    %ebx,(%esp)
 804a3d3:	c7 44 24 08 40 c5 04 	movl   $0x804c540,0x8(%esp)
 804a3da:	08 
 804a3db:	c7 44 24 04 11 b1 04 	movl   $0x804b111,0x4(%esp)
 804a3e2:	08 
 804a3e3:	e8 70 e8 ff ff       	call   8048c58 <sprintf@plt>
 804a3e8:	89 1c 24             	mov    %ebx,(%esp)
 804a3eb:	c7 44 24 04 1f b1 04 	movl   $0x804b11f,0x4(%esp)
 804a3f2:	08 
 804a3f3:	e8 30 ea ff ff       	call   8048e28 <fopen@plt>
 804a3f8:	85 c0                	test   %eax,%eax
 804a3fa:	89 c3                	mov    %eax,%ebx
 804a3fc:	74 14                	je     804a412 <Log+0x112>
 804a3fe:	89 44 24 04          	mov    %eax,0x4(%esp)
 804a402:	89 34 24             	mov    %esi,(%esp)
 804a405:	e8 3e e8 ff ff       	call   8048c48 <fputs@plt>
 804a40a:	89 1c 24             	mov    %ebx,(%esp)
 804a40d:	e8 d6 e9 ff ff       	call   8048de8 <fclose@plt>
 804a412:	81 c4 4c 03 00 00    	add    $0x34c,%esp
 804a418:	5b                   	pop    %ebx
 804a419:	5e                   	pop    %esi
 804a41a:	5f                   	pop    %edi
 804a41b:	5d                   	pop    %ebp
 804a41c:	c3                   	ret    
 804a41d:	8d 76 00             	lea    0x0(%esi),%esi

0804a420 <gstricmp>:
 804a420:	55                   	push   %ebp
 804a421:	89 e5                	mov    %esp,%ebp
 804a423:	56                   	push   %esi
 804a424:	53                   	push   %ebx
 804a425:	8b 5d 08             	mov    0x8(%ebp),%ebx
 804a428:	8b 75 0c             	mov    0xc(%ebp),%esi
 804a42b:	85 db                	test   %ebx,%ebx
 804a42d:	74 33                	je     804a462 <gstricmp+0x42>
 804a42f:	85 f6                	test   %esi,%esi
 804a431:	74 2f                	je     804a462 <gstricmp+0x42>
 804a433:	e8 f0 ea ff ff       	call   8048f28 <__ctype_tolower_loc@plt>
 804a438:	8b 08                	mov    (%eax),%ecx
 804a43a:	eb 0a                	jmp    804a446 <gstricmp+0x26>
 804a43c:	8d 74 26 00          	lea    0x0(%esi),%esi
 804a440:	83 c3 01             	add    $0x1,%ebx
 804a443:	83 c6 01             	add    $0x1,%esi
 804a446:	0f b6 03             	movzbl (%ebx),%eax
 804a449:	84 c0                	test   %al,%al
 804a44b:	74 1e                	je     804a46b <gstricmp+0x4b>
 804a44d:	0f b6 16             	movzbl (%esi),%edx
 804a450:	84 d2                	test   %dl,%dl
 804a452:	74 1a                	je     804a46e <gstricmp+0x4e>
 804a454:	0f be c0             	movsbl %al,%eax
 804a457:	0f be d2             	movsbl %dl,%edx
 804a45a:	8b 04 81             	mov    (%ecx,%eax,4),%eax
 804a45d:	3b 04 91             	cmp    (%ecx,%edx,4),%eax
 804a460:	74 de                	je     804a440 <gstricmp+0x20>
 804a462:	5b                   	pop    %ebx
 804a463:	b8 01 00 00 00       	mov    $0x1,%eax
 804a468:	5e                   	pop    %esi
 804a469:	5d                   	pop    %ebp
 804a46a:	c3                   	ret    
 804a46b:	0f b6 16             	movzbl (%esi),%edx
 804a46e:	0f be c0             	movsbl %al,%eax
 804a471:	0f be d2             	movsbl %dl,%edx
 804a474:	8b 04 81             	mov    (%ecx,%eax,4),%eax
 804a477:	3b 04 91             	cmp    (%ecx,%edx,4),%eax
 804a47a:	5b                   	pop    %ebx
 804a47b:	5e                   	pop    %esi
 804a47c:	5d                   	pop    %ebp
 804a47d:	0f 95 c0             	setne  %al
 804a480:	0f b6 c0             	movzbl %al,%eax
 804a483:	c3                   	ret    
 804a484:	8d b6 00 00 00 00    	lea    0x0(%esi),%esi
 804a48a:	8d bf 00 00 00 00    	lea    0x0(%edi),%edi

0804a490 <gstrlwr>:
 804a490:	55                   	push   %ebp
 804a491:	89 e5                	mov    %esp,%ebp
 804a493:	57                   	push   %edi
 804a494:	56                   	push   %esi
 804a495:	be 01 00 00 00       	mov    $0x1,%esi
 804a49a:	53                   	push   %ebx
 804a49b:	83 ec 0c             	sub    $0xc,%esp
 804a49e:	8b 7d 08             	mov    0x8(%ebp),%edi
 804a4a1:	85 ff                	test   %edi,%edi
 804a4a3:	75 1e                	jne    804a4c3 <gstrlwr+0x33>
 804a4a5:	eb 25                	jmp    804a4cc <gstrlwr+0x3c>
 804a4a7:	e8 7c ea ff ff       	call   8048f28 <__ctype_tolower_loc@plt>
 804a4ac:	0f be d3             	movsbl %bl,%edx
 804a4af:	8b 00                	mov    (%eax),%eax
 804a4b1:	8b 04 90             	mov    (%eax,%edx,4),%eax
 804a4b4:	88 44 3e ff          	mov    %al,-0x1(%esi,%edi,1)
 804a4b8:	83 c6 01             	add    $0x1,%esi
 804a4bb:	81 fe 00 01 00 00    	cmp    $0x100,%esi
 804a4c1:	74 09                	je     804a4cc <gstrlwr+0x3c>
 804a4c3:	0f b6 5c 3e ff       	movzbl -0x1(%esi,%edi,1),%ebx
 804a4c8:	84 db                	test   %bl,%bl
 804a4ca:	75 db                	jne    804a4a7 <gstrlwr+0x17>
 804a4cc:	83 c4 0c             	add    $0xc,%esp
 804a4cf:	5b                   	pop    %ebx
 804a4d0:	5e                   	pop    %esi
 804a4d1:	5f                   	pop    %edi
 804a4d2:	5d                   	pop    %ebp
 804a4d3:	c3                   	ret    
 804a4d4:	8d b6 00 00 00 00    	lea    0x0(%esi),%esi
 804a4da:	8d bf 00 00 00 00    	lea    0x0(%edi),%edi

0804a4e0 <isDirectory>:
 804a4e0:	55                   	push   %ebp
 804a4e1:	89 e5                	mov    %esp,%ebp
 804a4e3:	83 ec 78             	sub    $0x78,%esp
 804a4e6:	8d 45 a8             	lea    -0x58(%ebp),%eax
 804a4e9:	89 44 24 08          	mov    %eax,0x8(%esp)
 804a4ed:	8b 45 08             	mov    0x8(%ebp),%eax
 804a4f0:	c7 04 24 03 00 00 00 	movl   $0x3,(%esp)
 804a4f7:	89 44 24 04          	mov    %eax,0x4(%esp)
 804a4fb:	e8 b8 e7 ff ff       	call   8048cb8 <__xstat@plt>
 804a500:	31 d2                	xor    %edx,%edx
 804a502:	85 c0                	test   %eax,%eax
 804a504:	75 12                	jne    804a518 <isDirectory+0x38>
 804a506:	8b 45 b8             	mov    -0x48(%ebp),%eax
 804a509:	31 d2                	xor    %edx,%edx
 804a50b:	25 00 f0 00 00       	and    $0xf000,%eax
 804a510:	3d 00 40 00 00       	cmp    $0x4000,%eax
 804a515:	0f 94 c2             	sete   %dl
 804a518:	c9                   	leave  
 804a519:	89 d0                	mov    %edx,%eax
 804a51b:	c3                   	ret    
 804a51c:	8d 74 26 00          	lea    0x0(%esi),%esi

0804a520 <get_file_size>:
 804a520:	55                   	push   %ebp
 804a521:	89 e5                	mov    %esp,%ebp
 804a523:	83 ec 78             	sub    $0x78,%esp
 804a526:	8d 45 a8             	lea    -0x58(%ebp),%eax
 804a529:	89 44 24 08          	mov    %eax,0x8(%esp)
 804a52d:	8b 45 08             	mov    0x8(%ebp),%eax
 804a530:	c7 04 24 03 00 00 00 	movl   $0x3,(%esp)
 804a537:	89 44 24 04          	mov    %eax,0x4(%esp)
 804a53b:	e8 78 e7 ff ff       	call   8048cb8 <__xstat@plt>
 804a540:	83 f8 01             	cmp    $0x1,%eax
 804a543:	19 c0                	sbb    %eax,%eax
 804a545:	23 45 d4             	and    -0x2c(%ebp),%eax
 804a548:	c9                   	leave  
 804a549:	c3                   	ret    
 804a54a:	8d b6 00 00 00 00    	lea    0x0(%esi),%esi

0804a550 <getfileline>:
 804a550:	55                   	push   %ebp
 804a551:	89 e5                	mov    %esp,%ebp
 804a553:	53                   	push   %ebx
 804a554:	83 ec 14             	sub    $0x14,%esp
 804a557:	8b 5d 08             	mov    0x8(%ebp),%ebx
 804a55a:	8b 45 0c             	mov    0xc(%ebp),%eax
 804a55d:	c7 44 24 04 ff 00 00 	movl   $0xff,0x4(%esp)
 804a564:	00 
 804a565:	89 1c 24             	mov    %ebx,(%esp)
 804a568:	89 44 24 08          	mov    %eax,0x8(%esp)
 804a56c:	e8 b7 e7 ff ff       	call   8048d28 <fgets@plt>
 804a571:	ba 01 00 00 00       	mov    $0x1,%edx
 804a576:	eb 0f                	jmp    804a587 <getfileline+0x37>
 804a578:	3c 0a                	cmp    $0xa,%al
 804a57a:	74 18                	je     804a594 <getfileline+0x44>
 804a57c:	83 c2 01             	add    $0x1,%edx
 804a57f:	81 fa 00 01 00 00    	cmp    $0x100,%edx
 804a585:	74 1d                	je     804a5a4 <getfileline+0x54>
 804a587:	0f b6 44 1a ff       	movzbl -0x1(%edx,%ebx,1),%eax
 804a58c:	84 c0                	test   %al,%al
 804a58e:	74 14                	je     804a5a4 <getfileline+0x54>
 804a590:	3c 0d                	cmp    $0xd,%al
 804a592:	75 e4                	jne    804a578 <getfileline+0x28>
 804a594:	c6 44 1a ff 00       	movb   $0x0,-0x1(%edx,%ebx,1)
 804a599:	83 c2 01             	add    $0x1,%edx
 804a59c:	81 fa 00 01 00 00    	cmp    $0x100,%edx
 804a5a2:	75 e3                	jne    804a587 <getfileline+0x37>
 804a5a4:	83 c4 14             	add    $0x14,%esp
 804a5a7:	5b                   	pop    %ebx
 804a5a8:	5d                   	pop    %ebp
 804a5a9:	c3                   	ret    
 804a5aa:	8d b6 00 00 00 00    	lea    0x0(%esi),%esi

0804a5b0 <VirtualHostDefinition>:
 804a5b0:	55                   	push   %ebp
 804a5b1:	89 e5                	mov    %esp,%ebp
 804a5b3:	57                   	push   %edi
 804a5b4:	56                   	push   %esi
 804a5b5:	53                   	push   %ebx
 804a5b6:	81 ec 1c 01 00 00    	sub    $0x11c,%esp
 804a5bc:	8b 7d 08             	mov    0x8(%ebp),%edi
 804a5bf:	69 05 68 df 04 08 fb 	imul   $0x4fb,0x804df68,%eax
 804a5c6:	04 00 00 
 804a5c9:	89 85 f0 fe ff ff    	mov    %eax,-0x110(%ebp)
 804a5cf:	a1 6c df 04 08       	mov    0x804df6c,%eax
 804a5d4:	01 85 f0 fe ff ff    	add    %eax,-0x110(%ebp)
 804a5da:	8b 85 f0 fe ff ff    	mov    -0x110(%ebp),%eax
 804a5e0:	c6 00 00             	movb   $0x0,(%eax)
 804a5e3:	05 ff 00 00 00       	add    $0xff,%eax
 804a5e8:	89 85 e0 fe ff ff    	mov    %eax,-0x120(%ebp)
 804a5ee:	c7 44 24 04 7f e0 04 	movl   $0x804e07f,0x4(%esp)
 804a5f5:	08 
 804a5f6:	89 04 24             	mov    %eax,(%esp)
 804a5f9:	e8 5a e8 ff ff       	call   8048e58 <strcpy@plt>
 804a5fe:	8b 85 f0 fe ff ff    	mov    -0x110(%ebp),%eax
 804a604:	c7 44 24 04 7e e1 04 	movl   $0x804e17e,0x4(%esp)
 804a60b:	08 
 804a60c:	05 fe 01 00 00       	add    $0x1fe,%eax
 804a611:	89 85 e4 fe ff ff    	mov    %eax,-0x11c(%ebp)
 804a617:	89 04 24             	mov    %eax,(%esp)
 804a61a:	e8 39 e8 ff ff       	call   8048e58 <strcpy@plt>
 804a61f:	8b 85 f0 fe ff ff    	mov    -0x110(%ebp),%eax
 804a625:	c7 44 24 04 7d e2 04 	movl   $0x804e27d,0x4(%esp)
 804a62c:	08 
 804a62d:	05 fd 02 00 00       	add    $0x2fd,%eax
 804a632:	89 85 e8 fe ff ff    	mov    %eax,-0x118(%ebp)
 804a638:	89 04 24             	mov    %eax,(%esp)
 804a63b:	e8 18 e8 ff ff       	call   8048e58 <strcpy@plt>
 804a640:	8b 85 f0 fe ff ff    	mov    -0x110(%ebp),%eax
 804a646:	c7 44 24 04 7c e3 04 	movl   $0x804e37c,0x4(%esp)
 804a64d:	08 
 804a64e:	05 fc 03 00 00       	add    $0x3fc,%eax
 804a653:	89 85 ec fe ff ff    	mov    %eax,-0x114(%ebp)
 804a659:	89 04 24             	mov    %eax,(%esp)
 804a65c:	e8 f7 e7 ff ff       	call   8048e58 <strcpy@plt>
 804a661:	89 3c 24             	mov    %edi,(%esp)
 804a664:	e8 df e7 ff ff       	call   8048e48 <feof@plt>
 804a669:	85 c0                	test   %eax,%eax
 804a66b:	0f 85 ad 00 00 00    	jne    804a71e <VirtualHostDefinition+0x16e>
 804a671:	8d 85 f5 fe ff ff    	lea    -0x10b(%ebp),%eax
 804a677:	89 04 24             	mov    %eax,(%esp)
 804a67a:	89 7c 24 04          	mov    %edi,0x4(%esp)
 804a67e:	e8 cd fe ff ff       	call   804a550 <getfileline>
 804a683:	89 3c 24             	mov    %edi,(%esp)
 804a686:	e8 bd e7 ff ff       	call   8048e48 <feof@plt>
 804a68b:	85 c0                	test   %eax,%eax
 804a68d:	0f 85 8b 00 00 00    	jne    804a71e <VirtualHostDefinition+0x16e>
 804a693:	8d 85 f5 fe ff ff    	lea    -0x10b(%ebp),%eax
 804a699:	c7 44 24 04 38 b1 04 	movl   $0x804b138,0x4(%esp)
 804a6a0:	08 
 804a6a1:	89 04 24             	mov    %eax,(%esp)
 804a6a4:	e8 6f e8 ff ff       	call   8048f18 <strtok@plt>
 804a6a9:	c7 44 24 04 38 b1 04 	movl   $0x804b138,0x4(%esp)
 804a6b0:	08 
 804a6b1:	c7 04 24 00 00 00 00 	movl   $0x0,(%esp)
 804a6b8:	89 c3                	mov    %eax,%ebx
 804a6ba:	e8 59 e8 ff ff       	call   8048f18 <strtok@plt>
 804a6bf:	85 db                	test   %ebx,%ebx
 804a6c1:	89 c6                	mov    %eax,%esi
 804a6c3:	74 9c                	je     804a661 <VirtualHostDefinition+0xb1>
 804a6c5:	0f b6 03             	movzbl (%ebx),%eax
 804a6c8:	3c 3c                	cmp    $0x3c,%al
 804a6ca:	74 04                	je     804a6d0 <VirtualHostDefinition+0x120>
 804a6cc:	85 f6                	test   %esi,%esi
 804a6ce:	74 91                	je     804a661 <VirtualHostDefinition+0xb1>
 804a6d0:	3c 23                	cmp    $0x23,%al
 804a6d2:	74 8d                	je     804a661 <VirtualHostDefinition+0xb1>
 804a6d4:	c7 44 24 04 3c b1 04 	movl   $0x804b13c,0x4(%esp)
 804a6db:	08 
 804a6dc:	89 1c 24             	mov    %ebx,(%esp)
 804a6df:	e8 3c fd ff ff       	call   804a420 <gstricmp>
 804a6e4:	85 c0                	test   %eax,%eax
 804a6e6:	74 36                	je     804a71e <VirtualHostDefinition+0x16e>
 804a6e8:	c7 44 24 04 4b b1 04 	movl   $0x804b14b,0x4(%esp)
 804a6ef:	08 
 804a6f0:	89 1c 24             	mov    %ebx,(%esp)
 804a6f3:	e8 28 fd ff ff       	call   804a420 <gstricmp>
 804a6f8:	85 c0                	test   %eax,%eax
 804a6fa:	75 34                	jne    804a730 <VirtualHostDefinition+0x180>
 804a6fc:	8b 85 f0 fe ff ff    	mov    -0x110(%ebp),%eax
 804a702:	89 74 24 04          	mov    %esi,0x4(%esp)
 804a706:	89 04 24             	mov    %eax,(%esp)
 804a709:	e8 4a e7 ff ff       	call   8048e58 <strcpy@plt>
 804a70e:	89 3c 24             	mov    %edi,(%esp)
 804a711:	e8 32 e7 ff ff       	call   8048e48 <feof@plt>
 804a716:	85 c0                	test   %eax,%eax
 804a718:	0f 84 53 ff ff ff    	je     804a671 <VirtualHostDefinition+0xc1>
 804a71e:	83 05 68 df 04 08 01 	addl   $0x1,0x804df68
 804a725:	81 c4 1c 01 00 00    	add    $0x11c,%esp
 804a72b:	5b                   	pop    %ebx
 804a72c:	5e                   	pop    %esi
 804a72d:	5f                   	pop    %edi
 804a72e:	5d                   	pop    %ebp
 804a72f:	c3                   	ret    
 804a730:	c7 44 24 04 50 b1 04 	movl   $0x804b150,0x4(%esp)
 804a737:	08 
 804a738:	89 1c 24             	mov    %ebx,(%esp)
 804a73b:	e8 e0 fc ff ff       	call   804a420 <gstricmp>
 804a740:	85 c0                	test   %eax,%eax
 804a742:	75 17                	jne    804a75b <VirtualHostDefinition+0x1ab>
 804a744:	8b 85 e0 fe ff ff    	mov    -0x120(%ebp),%eax
 804a74a:	89 74 24 04          	mov    %esi,0x4(%esp)
 804a74e:	89 04 24             	mov    %eax,(%esp)
 804a751:	e8 02 e7 ff ff       	call   8048e58 <strcpy@plt>
 804a756:	e9 06 ff ff ff       	jmp    804a661 <VirtualHostDefinition+0xb1>
 804a75b:	c7 44 24 04 5d b1 04 	movl   $0x804b15d,0x4(%esp)
 804a762:	08 
 804a763:	89 1c 24             	mov    %ebx,(%esp)
 804a766:	e8 b5 fc ff ff       	call   804a420 <gstricmp>
 804a76b:	85 c0                	test   %eax,%eax
 804a76d:	75 17                	jne    804a786 <VirtualHostDefinition+0x1d6>
 804a76f:	8b 85 e4 fe ff ff    	mov    -0x11c(%ebp),%eax
 804a775:	89 74 24 04          	mov    %esi,0x4(%esp)
 804a779:	89 04 24             	mov    %eax,(%esp)
 804a77c:	e8 d7 e6 ff ff       	call   8048e58 <strcpy@plt>
 804a781:	e9 db fe ff ff       	jmp    804a661 <VirtualHostDefinition+0xb1>
 804a786:	c7 44 24 04 69 b1 04 	movl   $0x804b169,0x4(%esp)
 804a78d:	08 
 804a78e:	89 1c 24             	mov    %ebx,(%esp)
 804a791:	e8 8a fc ff ff       	call   804a420 <gstricmp>
 804a796:	85 c0                	test   %eax,%eax
 804a798:	74 2f                	je     804a7c9 <VirtualHostDefinition+0x219>
 804a79a:	c7 44 24 04 73 b1 04 	movl   $0x804b173,0x4(%esp)
 804a7a1:	08 
 804a7a2:	89 1c 24             	mov    %ebx,(%esp)
 804a7a5:	e8 76 fc ff ff       	call   804a420 <gstricmp>
 804a7aa:	85 c0                	test   %eax,%eax
 804a7ac:	0f 85 af fe ff ff    	jne    804a661 <VirtualHostDefinition+0xb1>
 804a7b2:	8b 85 ec fe ff ff    	mov    -0x114(%ebp),%eax
 804a7b8:	89 74 24 04          	mov    %esi,0x4(%esp)
 804a7bc:	89 04 24             	mov    %eax,(%esp)
 804a7bf:	e8 94 e6 ff ff       	call   8048e58 <strcpy@plt>
 804a7c4:	e9 98 fe ff ff       	jmp    804a661 <VirtualHostDefinition+0xb1>
 804a7c9:	8b 85 e8 fe ff ff    	mov    -0x118(%ebp),%eax
 804a7cf:	89 74 24 04          	mov    %esi,0x4(%esp)
 804a7d3:	89 04 24             	mov    %eax,(%esp)
 804a7d6:	e8 7d e6 ff ff       	call   8048e58 <strcpy@plt>
 804a7db:	e9 81 fe ff ff       	jmp    804a661 <VirtualHostDefinition+0xb1>

0804a7e0 <readinconfig>:
 804a7e0:	55                   	push   %ebp
 804a7e1:	89 e5                	mov    %esp,%ebp
 804a7e3:	57                   	push   %edi
 804a7e4:	56                   	push   %esi
 804a7e5:	53                   	push   %ebx
 804a7e6:	81 ec 0c 01 00 00    	sub    $0x10c,%esp
 804a7ec:	c7 44 24 04 a6 b1 04 	movl   $0x804b1a6,0x4(%esp)
 804a7f3:	08 
 804a7f4:	c7 04 24 7e b1 04 08 	movl   $0x804b17e,(%esp)
 804a7fb:	e8 28 e6 ff ff       	call   8048e28 <fopen@plt>
 804a800:	85 c0                	test   %eax,%eax
 804a802:	89 c7                	mov    %eax,%edi
 804a804:	0f 84 b5 00 00 00    	je     804a8bf <readinconfig+0xdf>
 804a80a:	c7 05 68 df 04 08 00 	movl   $0x0,0x804df68
 804a811:	00 00 00 
 804a814:	89 3c 24             	mov    %edi,(%esp)
 804a817:	e8 2c e6 ff ff       	call   8048e48 <feof@plt>
 804a81c:	85 c0                	test   %eax,%eax
 804a81e:	0f 85 93 00 00 00    	jne    804a8b7 <readinconfig+0xd7>
 804a824:	8d 85 f5 fe ff ff    	lea    -0x10b(%ebp),%eax
 804a82a:	89 04 24             	mov    %eax,(%esp)
 804a82d:	89 7c 24 04          	mov    %edi,0x4(%esp)
 804a831:	e8 1a fd ff ff       	call   804a550 <getfileline>
 804a836:	89 3c 24             	mov    %edi,(%esp)
 804a839:	e8 0a e6 ff ff       	call   8048e48 <feof@plt>
 804a83e:	85 c0                	test   %eax,%eax
 804a840:	75 75                	jne    804a8b7 <readinconfig+0xd7>
 804a842:	8d 85 f5 fe ff ff    	lea    -0x10b(%ebp),%eax
 804a848:	c7 44 24 04 8f b1 04 	movl   $0x804b18f,0x4(%esp)
 804a84f:	08 
 804a850:	89 04 24             	mov    %eax,(%esp)
 804a853:	e8 c0 e6 ff ff       	call   8048f18 <strtok@plt>
 804a858:	c7 44 24 04 8f b1 04 	movl   $0x804b18f,0x4(%esp)
 804a85f:	08 
 804a860:	c7 04 24 00 00 00 00 	movl   $0x0,(%esp)
 804a867:	89 c3                	mov    %eax,%ebx
 804a869:	e8 aa e6 ff ff       	call   8048f18 <strtok@plt>
 804a86e:	85 db                	test   %ebx,%ebx
 804a870:	89 c6                	mov    %eax,%esi
 804a872:	74 a0                	je     804a814 <readinconfig+0x34>
 804a874:	0f b6 03             	movzbl (%ebx),%eax
 804a877:	3c 3c                	cmp    $0x3c,%al
 804a879:	74 04                	je     804a87f <readinconfig+0x9f>
 804a87b:	85 f6                	test   %esi,%esi
 804a87d:	74 95                	je     804a814 <readinconfig+0x34>
 804a87f:	3c 23                	cmp    $0x23,%al
 804a881:	74 91                	je     804a814 <readinconfig+0x34>
 804a883:	c7 44 24 04 93 b1 04 	movl   $0x804b193,0x4(%esp)
 804a88a:	08 
 804a88b:	89 1c 24             	mov    %ebx,(%esp)
 804a88e:	e8 8d fb ff ff       	call   804a420 <gstricmp>
 804a893:	85 c0                	test   %eax,%eax
 804a895:	75 33                	jne    804a8ca <readinconfig+0xea>
 804a897:	89 74 24 04          	mov    %esi,0x4(%esp)
 804a89b:	c7 04 24 40 c5 04 08 	movl   $0x804c540,(%esp)
 804a8a2:	e8 b1 e5 ff ff       	call   8048e58 <strcpy@plt>
 804a8a7:	89 3c 24             	mov    %edi,(%esp)
 804a8aa:	e8 99 e5 ff ff       	call   8048e48 <feof@plt>
 804a8af:	85 c0                	test   %eax,%eax
 804a8b1:	0f 84 6d ff ff ff    	je     804a824 <readinconfig+0x44>
 804a8b7:	89 3c 24             	mov    %edi,(%esp)
 804a8ba:	e8 29 e5 ff ff       	call   8048de8 <fclose@plt>
 804a8bf:	81 c4 0c 01 00 00    	add    $0x10c,%esp
 804a8c5:	5b                   	pop    %ebx
 804a8c6:	5e                   	pop    %esi
 804a8c7:	5f                   	pop    %edi
 804a8c8:	5d                   	pop    %ebp
 804a8c9:	c3                   	ret    
 804a8ca:	c7 44 24 04 50 b1 04 	movl   $0x804b150,0x4(%esp)
 804a8d1:	08 
 804a8d2:	89 1c 24             	mov    %ebx,(%esp)
 804a8d5:	e8 46 fb ff ff       	call   804a420 <gstricmp>
 804a8da:	85 c0                	test   %eax,%eax
 804a8dc:	74 29                	je     804a907 <readinconfig+0x127>
 804a8de:	c7 44 24 04 5d b1 04 	movl   $0x804b15d,0x4(%esp)
 804a8e5:	08 
 804a8e6:	89 1c 24             	mov    %ebx,(%esp)
 804a8e9:	e8 32 fb ff ff       	call   804a420 <gstricmp>
 804a8ee:	85 c0                	test   %eax,%eax
 804a8f0:	75 2a                	jne    804a91c <readinconfig+0x13c>
 804a8f2:	89 74 24 04          	mov    %esi,0x4(%esp)
 804a8f6:	c7 04 24 7e e1 04 08 	movl   $0x804e17e,(%esp)
 804a8fd:	e8 56 e5 ff ff       	call   8048e58 <strcpy@plt>
 804a902:	e9 0d ff ff ff       	jmp    804a814 <readinconfig+0x34>
 804a907:	89 74 24 04          	mov    %esi,0x4(%esp)
 804a90b:	c7 04 24 7f e0 04 08 	movl   $0x804e07f,(%esp)
 804a912:	e8 41 e5 ff ff       	call   8048e58 <strcpy@plt>
 804a917:	e9 f8 fe ff ff       	jmp    804a814 <readinconfig+0x34>
 804a91c:	c7 44 24 04 69 b1 04 	movl   $0x804b169,0x4(%esp)
 804a923:	08 
 804a924:	89 1c 24             	mov    %ebx,(%esp)
 804a927:	e8 f4 fa ff ff       	call   804a420 <gstricmp>
 804a92c:	85 c0                	test   %eax,%eax
 804a92e:	74 29                	je     804a959 <readinconfig+0x179>
 804a930:	c7 44 24 04 73 b1 04 	movl   $0x804b173,0x4(%esp)
 804a937:	08 
 804a938:	89 1c 24             	mov    %ebx,(%esp)
 804a93b:	e8 e0 fa ff ff       	call   804a420 <gstricmp>
 804a940:	85 c0                	test   %eax,%eax
 804a942:	75 2a                	jne    804a96e <readinconfig+0x18e>
 804a944:	89 74 24 04          	mov    %esi,0x4(%esp)
 804a948:	c7 04 24 7c e3 04 08 	movl   $0x804e37c,(%esp)
 804a94f:	e8 04 e5 ff ff       	call   8048e58 <strcpy@plt>
 804a954:	e9 bb fe ff ff       	jmp    804a814 <readinconfig+0x34>
 804a959:	89 74 24 04          	mov    %esi,0x4(%esp)
 804a95d:	c7 04 24 7d e2 04 08 	movl   $0x804e27d,(%esp)
 804a964:	e8 ef e4 ff ff       	call   8048e58 <strcpy@plt>
 804a969:	e9 a6 fe ff ff       	jmp    804a814 <readinconfig+0x34>
 804a96e:	c7 44 24 04 9e b1 04 	movl   $0x804b19e,0x4(%esp)
 804a975:	08 
 804a976:	89 1c 24             	mov    %ebx,(%esp)
 804a979:	e8 a2 fa ff ff       	call   804a420 <gstricmp>
 804a97e:	85 c0                	test   %eax,%eax
 804a980:	74 29                	je     804a9ab <readinconfig+0x1cb>
 804a982:	c7 44 24 04 a9 b1 04 	movl   $0x804b1a9,0x4(%esp)
 804a989:	08 
 804a98a:	89 1c 24             	mov    %ebx,(%esp)
 804a98d:	e8 8e fa ff ff       	call   804a420 <gstricmp>
 804a992:	85 c0                	test   %eax,%eax
 804a994:	75 37                	jne    804a9cd <readinconfig+0x1ed>
 804a996:	89 74 24 04          	mov    %esi,0x4(%esp)
 804a99a:	c7 04 24 40 c4 04 08 	movl   $0x804c440,(%esp)
 804a9a1:	e8 b2 e4 ff ff       	call   8048e58 <strcpy@plt>
 804a9a6:	e9 69 fe ff ff       	jmp    804a814 <readinconfig+0x34>
 804a9ab:	c7 44 24 08 0a 00 00 	movl   $0xa,0x8(%esp)
 804a9b2:	00 
 804a9b3:	c7 44 24 04 00 00 00 	movl   $0x0,0x4(%esp)
 804a9ba:	00 
 804a9bb:	89 34 24             	mov    %esi,(%esp)
 804a9be:	e8 b5 e3 ff ff       	call   8048d78 <strtol@plt>
 804a9c3:	a3 20 c4 04 08       	mov    %eax,0x804c420
 804a9c8:	e9 47 fe ff ff       	jmp    804a814 <readinconfig+0x34>
 804a9cd:	c7 44 24 04 b4 b1 04 	movl   $0x804b1b4,0x4(%esp)
 804a9d4:	08 
 804a9d5:	89 1c 24             	mov    %ebx,(%esp)
 804a9d8:	e8 43 fa ff ff       	call   804a420 <gstricmp>
 804a9dd:	85 c0                	test   %eax,%eax
 804a9df:	75 0d                	jne    804a9ee <readinconfig+0x20e>
 804a9e1:	89 3c 24             	mov    %edi,(%esp)
 804a9e4:	e8 c7 fb ff ff       	call   804a5b0 <VirtualHostDefinition>
 804a9e9:	e9 26 fe ff ff       	jmp    804a814 <readinconfig+0x34>
 804a9ee:	89 5c 24 04          	mov    %ebx,0x4(%esp)
 804a9f2:	c7 04 24 d8 b1 04 08 	movl   $0x804b1d8,(%esp)
 804a9f9:	e8 7a e4 ff ff       	call   8048e78 <printf@plt>
 804a9fe:	e9 11 fe ff ff       	jmp    804a814 <readinconfig+0x34>
 804aa03:	8d b6 00 00 00 00    	lea    0x0(%esi),%esi
 804aa09:	8d bc 27 00 00 00 00 	lea    0x0(%edi),%edi

0804aa10 <count_vhosts>:
 804aa10:	55                   	push   %ebp
 804aa11:	89 e5                	mov    %esp,%ebp
 804aa13:	57                   	push   %edi
 804aa14:	31 ff                	xor    %edi,%edi
 804aa16:	56                   	push   %esi
 804aa17:	53                   	push   %ebx
 804aa18:	81 ec 0c 01 00 00    	sub    $0x10c,%esp
 804aa1e:	c7 44 24 04 a6 b1 04 	movl   $0x804b1a6,0x4(%esp)
 804aa25:	08 
 804aa26:	8d b5 f5 fe ff ff    	lea    -0x10b(%ebp),%esi
 804aa2c:	c7 04 24 7e b1 04 08 	movl   $0x804b17e,(%esp)
 804aa33:	e8 f0 e3 ff ff       	call   8048e28 <fopen@plt>
 804aa38:	85 c0                	test   %eax,%eax
 804aa3a:	89 c3                	mov    %eax,%ebx
 804aa3c:	74 7c                	je     804aaba <count_vhosts+0xaa>
 804aa3e:	66 90                	xchg   %ax,%ax
 804aa40:	89 1c 24             	mov    %ebx,(%esp)
 804aa43:	e8 00 e4 ff ff       	call   8048e48 <feof@plt>
 804aa48:	85 c0                	test   %eax,%eax
 804aa4a:	75 66                	jne    804aab2 <count_vhosts+0xa2>
 804aa4c:	c7 44 24 08 ff 00 00 	movl   $0xff,0x8(%esp)
 804aa53:	00 
 804aa54:	c7 44 24 04 00 00 00 	movl   $0x0,0x4(%esp)
 804aa5b:	00 
 804aa5c:	89 34 24             	mov    %esi,(%esp)
 804aa5f:	e8 d4 e2 ff ff       	call   8048d38 <memset@plt>
 804aa64:	89 5c 24 04          	mov    %ebx,0x4(%esp)
 804aa68:	89 34 24             	mov    %esi,(%esp)
 804aa6b:	e8 e0 fa ff ff       	call   804a550 <getfileline>
 804aa70:	89 1c 24             	mov    %ebx,(%esp)
 804aa73:	e8 d0 e3 ff ff       	call   8048e48 <feof@plt>
 804aa78:	85 c0                	test   %eax,%eax
 804aa7a:	75 36                	jne    804aab2 <count_vhosts+0xa2>
 804aa7c:	c7 44 24 04 c2 b1 04 	movl   $0x804b1c2,0x4(%esp)
 804aa83:	08 
 804aa84:	89 34 24             	mov    %esi,(%esp)
 804aa87:	e8 8c e4 ff ff       	call   8048f18 <strtok@plt>
 804aa8c:	85 c0                	test   %eax,%eax
 804aa8e:	74 b0                	je     804aa40 <count_vhosts+0x30>
 804aa90:	c7 44 24 04 c7 b1 04 	movl   $0x804b1c7,0x4(%esp)
 804aa97:	08 
 804aa98:	89 04 24             	mov    %eax,(%esp)
 804aa9b:	e8 80 f9 ff ff       	call   804a420 <gstricmp>
 804aaa0:	89 1c 24             	mov    %ebx,(%esp)
 804aaa3:	83 f8 01             	cmp    $0x1,%eax
 804aaa6:	83 d7 00             	adc    $0x0,%edi
 804aaa9:	e8 9a e3 ff ff       	call   8048e48 <feof@plt>
 804aaae:	85 c0                	test   %eax,%eax
 804aab0:	74 9a                	je     804aa4c <count_vhosts+0x3c>
 804aab2:	89 1c 24             	mov    %ebx,(%esp)
 804aab5:	e8 2e e3 ff ff       	call   8048de8 <fclose@plt>
 804aaba:	81 c4 0c 01 00 00    	add    $0x10c,%esp
 804aac0:	89 f8                	mov    %edi,%eax
 804aac2:	5b                   	pop    %ebx
 804aac3:	5e                   	pop    %esi
 804aac4:	5f                   	pop    %edi
 804aac5:	5d                   	pop    %ebp
 804aac6:	c3                   	ret    
 804aac7:	89 f6                	mov    %esi,%esi
 804aac9:	8d bc 27 00 00 00 00 	lea    0x0(%edi),%edi

0804aad0 <does_file_exist>:
 804aad0:	55                   	push   %ebp
 804aad1:	89 e5                	mov    %esp,%ebp
 804aad3:	53                   	push   %ebx
 804aad4:	83 ec 74             	sub    $0x74,%esp
 804aad7:	8b 5d 08             	mov    0x8(%ebp),%ebx
 804aada:	8d 45 a4             	lea    -0x5c(%ebp),%eax
 804aadd:	89 44 24 08          	mov    %eax,0x8(%esp)
 804aae1:	c7 04 24 03 00 00 00 	movl   $0x3,(%esp)
 804aae8:	89 5c 24 04          	mov    %ebx,0x4(%esp)
 804aaec:	e8 c7 e1 ff ff       	call   8048cb8 <__xstat@plt>
 804aaf1:	31 d2                	xor    %edx,%edx
 804aaf3:	85 c0                	test   %eax,%eax
 804aaf5:	74 09                	je     804ab00 <does_file_exist+0x30>
 804aaf7:	83 c4 74             	add    $0x74,%esp
 804aafa:	89 d0                	mov    %edx,%eax
 804aafc:	5b                   	pop    %ebx
 804aafd:	5d                   	pop    %ebp
 804aafe:	c3                   	ret    
 804aaff:	90                   	nop    
 804ab00:	89 1c 24             	mov    %ebx,(%esp)
 804ab03:	e8 d8 f9 ff ff       	call   804a4e0 <isDirectory>
 804ab08:	31 d2                	xor    %edx,%edx
 804ab0a:	85 c0                	test   %eax,%eax
 804ab0c:	0f 94 c2             	sete   %dl
 804ab0f:	83 c4 74             	add    $0x74,%esp
 804ab12:	5b                   	pop    %ebx
 804ab13:	89 d0                	mov    %edx,%eax
 804ab15:	5d                   	pop    %ebp
 804ab16:	c3                   	ret    
 804ab17:	90                   	nop    
 804ab18:	90                   	nop    
 804ab19:	90                   	nop    
 804ab1a:	90                   	nop    
 804ab1b:	90                   	nop    
 804ab1c:	90                   	nop    
 804ab1d:	90                   	nop    
 804ab1e:	90                   	nop    
 804ab1f:	90                   	nop    

0804ab20 <__libc_csu_fini>:
 804ab20:	55                   	push   %ebp
 804ab21:	89 e5                	mov    %esp,%ebp
 804ab23:	5d                   	pop    %ebp
 804ab24:	c3                   	ret    
 804ab25:	8d 74 26 00          	lea    0x0(%esi),%esi
 804ab29:	8d bc 27 00 00 00 00 	lea    0x0(%edi),%edi

0804ab30 <__libc_csu_init>:
 804ab30:	55                   	push   %ebp
 804ab31:	89 e5                	mov    %esp,%ebp
 804ab33:	57                   	push   %edi
 804ab34:	56                   	push   %esi
 804ab35:	53                   	push   %ebx
 804ab36:	e8 4f 00 00 00       	call   804ab8a <__i686.get_pc_thunk.bx>
 804ab3b:	81 c3 b9 17 00 00    	add    $0x17b9,%ebx
 804ab41:	83 ec 0c             	sub    $0xc,%esp
 804ab44:	e8 bf e0 ff ff       	call   8048c08 <_init>
 804ab49:	8d bb 18 ff ff ff    	lea    -0xe8(%ebx),%edi
 804ab4f:	8d 83 18 ff ff ff    	lea    -0xe8(%ebx),%eax
 804ab55:	29 c7                	sub    %eax,%edi
 804ab57:	c1 ff 02             	sar    $0x2,%edi
 804ab5a:	85 ff                	test   %edi,%edi
 804ab5c:	74 24                	je     804ab82 <__libc_csu_init+0x52>
 804ab5e:	31 f6                	xor    %esi,%esi
 804ab60:	8b 45 10             	mov    0x10(%ebp),%eax
 804ab63:	89 44 24 08          	mov    %eax,0x8(%esp)
 804ab67:	8b 45 0c             	mov    0xc(%ebp),%eax
 804ab6a:	89 44 24 04          	mov    %eax,0x4(%esp)
 804ab6e:	8b 45 08             	mov    0x8(%ebp),%eax
 804ab71:	89 04 24             	mov    %eax,(%esp)
 804ab74:	ff 94 b3 18 ff ff ff 	call   *-0xe8(%ebx,%esi,4)
 804ab7b:	83 c6 01             	add    $0x1,%esi
 804ab7e:	39 f7                	cmp    %esi,%edi
 804ab80:	75 de                	jne    804ab60 <__libc_csu_init+0x30>
 804ab82:	83 c4 0c             	add    $0xc,%esp
 804ab85:	5b                   	pop    %ebx
 804ab86:	5e                   	pop    %esi
 804ab87:	5f                   	pop    %edi
 804ab88:	5d                   	pop    %ebp
 804ab89:	c3                   	ret    

0804ab8a <__i686.get_pc_thunk.bx>:
 804ab8a:	8b 1c 24             	mov    (%esp),%ebx
 804ab8d:	c3                   	ret    
 804ab8e:	90                   	nop    
 804ab8f:	90                   	nop    

0804ab90 <__do_global_ctors_aux>:
 804ab90:	55                   	push   %ebp
 804ab91:	89 e5                	mov    %esp,%ebp
 804ab93:	53                   	push   %ebx
 804ab94:	83 ec 04             	sub    $0x4,%esp
 804ab97:	a1 0c c2 04 08       	mov    0x804c20c,%eax
 804ab9c:	83 f8 ff             	cmp    $0xffffffff,%eax
 804ab9f:	74 12                	je     804abb3 <__do_global_ctors_aux+0x23>
 804aba1:	31 db                	xor    %ebx,%ebx
 804aba3:	ff d0                	call   *%eax
 804aba5:	8b 83 08 c2 04 08    	mov    0x804c208(%ebx),%eax
 804abab:	83 eb 04             	sub    $0x4,%ebx
 804abae:	83 f8 ff             	cmp    $0xffffffff,%eax
 804abb1:	75 f0                	jne    804aba3 <__do_global_ctors_aux+0x13>
 804abb3:	83 c4 04             	add    $0x4,%esp
 804abb6:	5b                   	pop    %ebx
 804abb7:	5d                   	pop    %ebp
 804abb8:	c3                   	ret    
 804abb9:	90                   	nop    
 804abba:	90                   	nop    
 804abbb:	90                   	nop    
Disassembly of section .fini:

0804abbc <_fini>:
 804abbc:	55                   	push   %ebp
 804abbd:	89 e5                	mov    %esp,%ebp
 804abbf:	53                   	push   %ebx
 804abc0:	83 ec 04             	sub    $0x4,%esp
 804abc3:	e8 00 00 00 00       	call   804abc8 <_fini+0xc>
 804abc8:	5b                   	pop    %ebx
 804abc9:	81 c3 2c 17 00 00    	add    $0x172c,%ebx
 804abcf:	e8 8c e4 ff ff       	call   8049060 <__do_global_dtors_aux>
 804abd4:	59                   	pop    %ecx
 804abd5:	5b                   	pop    %ebx
 804abd6:	c9                   	leave  
 804abd7:	c3                   	ret    
Disassembly of section .rodata:

0804abd8 <_fp_hw>:
 804abd8:	03 00                	add    (%eax),%eax
	...

0804abdc <_IO_stdin_used>:
 804abdc:	01 00                	add    %eax,(%eax)
 804abde:	02 00                	add    (%eax),%al
 804abe0:	6e                   	outsb  %ds:(%esi),(%dx)
 804abe1:	6f                   	outsl  %ds:(%esi),(%dx)
 804abe2:	62 6f 64             	bound  %ebp,0x64(%edi)
 804abe5:	79 00                	jns    804abe7 <_IO_stdin_used+0xb>
 804abe7:	43                   	inc    %ebx
 804abe8:	6f                   	outsl  %ds:(%esi),(%dx)
 804abe9:	6e                   	outsb  %ds:(%esi),(%dx)
 804abea:	6e                   	outsb  %ds:(%esi),(%dx)
 804abeb:	65 63 74 69 6f       	arpl   %si,%gs:0x6f(%ecx,%ebp,2)
 804abf0:	6e                   	outsb  %ds:(%esi),(%dx)
 804abf1:	20 66 72             	and    %ah,0x72(%esi)
 804abf4:	6f                   	outsl  %ds:(%esi),(%dx)
 804abf5:	6d                   	insl   (%dx),%es:(%edi)
 804abf6:	20 25 73 00 52 45    	and    %ah,0x45520073
 804abfc:	4d                   	dec    %ebp
 804abfd:	4f                   	dec    %edi
 804abfe:	54                   	push   %esp
 804abff:	45                   	inc    %ebp
 804ac00:	5f                   	pop    %edi
 804ac01:	41                   	inc    %ecx
 804ac02:	44                   	inc    %esp
 804ac03:	44                   	inc    %esp
 804ac04:	52                   	push   %edx
 804ac05:	00 69 6e             	add    %ch,0x6e(%ecx)
 804ac08:	65                   	gs
 804ac09:	74 64                	je     804ac6f <_IO_stdin_used+0x93>
 804ac0b:	00 67 68             	add    %ah,0x68(%edi)
 804ac0e:	74 74                	je     804ac84 <_IO_stdin_used+0xa8>
 804ac10:	70 64                	jo     804ac76 <_IO_stdin_used+0x9a>
 804ac12:	00 73 6f             	add    %dh,0x6f(%ebx)
 804ac15:	63 6b 65             	arpl   %bp,0x65(%ebx)
 804ac18:	74 00                	je     804ac1a <_IO_stdin_used+0x3e>
 804ac1a:	62 69 6e             	bound  %ebp,0x6e(%ecx)
 804ac1d:	64 00 6c 69 73       	add    %ch,%fs:0x73(%ecx,%ebp,2)
 804ac22:	74 65                	je     804ac89 <_IO_stdin_used+0xad>
 804ac24:	6e                   	outsb  %ds:(%esi),(%dx)
 804ac25:	00 55 6e             	add    %dl,0x6e(%ebp)
 804ac28:	61                   	popa   
 804ac29:	62 6c 65 20          	bound  %ebp,0x20(%ebp)
 804ac2d:	74 6f                	je     804ac9e <_IO_stdin_used+0xc2>
 804ac2f:	20 64 6f 20          	and    %ah,0x20(%edi,%ebp,2)
 804ac33:	61                   	popa   
 804ac34:	20 6c 69 73          	and    %ch,0x73(%ecx,%ebp,2)
 804ac38:	74 65                	je     804ac9f <_IO_stdin_used+0xc3>
 804ac3a:	6e                   	outsb  %ds:(%esi),(%dx)
 804ac3b:	28 29                	sub    %ch,(%ecx)
 804ac3d:	0a 00                	or     (%eax),%al
 804ac3f:	00 43 6f             	add    %al,0x6f(%ebx)
 804ac42:	75 6c                	jne    804acb0 <_IO_stdin_used+0xd4>
 804ac44:	64 20 63 72          	and    %ah,%fs:0x72(%ebx)
 804ac48:	65                   	gs
 804ac49:	61                   	popa   
 804ac4a:	74 65                	je     804acb1 <_IO_stdin_used+0xd5>
 804ac4c:	20 61 20             	and    %ah,0x20(%ecx)
 804ac4f:	73 6f                	jae    804acc0 <_IO_stdin_used+0xe4>
 804ac51:	63 6b 65             	arpl   %bp,0x65(%ebx)
 804ac54:	74 2c                	je     804ac82 <_IO_stdin_used+0xa6>
 804ac56:	20 65 78             	and    %ah,0x78(%ebp)
 804ac59:	69 74 69 6e 67 0a 00 	imul   $0x43000a67,0x6e(%ecx,%ebp,2),%esi
 804ac60:	43 
 804ac61:	6f                   	outsl  %ds:(%esi),(%dx)
 804ac62:	75 6c                	jne    804acd0 <_IO_stdin_used+0xf4>
 804ac64:	64 20 6e 6f          	and    %ch,%fs:0x6f(%esi)
 804ac68:	74 20                	je     804ac8a <_IO_stdin_used+0xae>
 804ac6a:	62 69 6e             	bound  %ebp,0x6e(%ecx)
 804ac6d:	64 20 74 6f 20       	and    %dh,%fs:0x20(%edi,%ebp,2)
 804ac72:	70 6f                	jo     804ace3 <_IO_stdin_used+0x107>
 804ac74:	72 74                	jb     804acea <_IO_stdin_used+0x10e>
 804ac76:	2c 20                	sub    $0x20,%al
 804ac78:	65                   	gs
 804ac79:	78 69                	js     804ace4 <_IO_stdin_used+0x108>
 804ac7b:	74 69                	je     804ace6 <_IO_stdin_used+0x10a>
 804ac7d:	6e                   	outsb  %ds:(%esi),(%dx)
 804ac7e:	67 0a 00             	addr16 or (%bx,%si),%al
 804ac81:	00 00                	add    %al,(%eax)
 804ac83:	00 46 41             	add    %al,0x41(%esi)
 804ac86:	54                   	push   %esp
 804ac87:	41                   	inc    %ecx
 804ac88:	4c                   	dec    %esp
 804ac89:	20 45 52             	and    %al,0x52(%ebp)
 804ac8c:	52                   	push   %edx
 804ac8d:	4f                   	dec    %edi
 804ac8e:	52                   	push   %edx
 804ac8f:	2c 20                	sub    $0x20,%al
 804ac91:	43                   	inc    %ebx
 804ac92:	6f                   	outsl  %ds:(%esi),(%dx)
 804ac93:	75 6c                	jne    804ad01 <_IO_stdin_used+0x125>
 804ac95:	64 20 6e 6f          	and    %ch,%fs:0x6f(%esi)
 804ac99:	74 20                	je     804acbb <_IO_stdin_used+0xdf>
 804ac9b:	66 6f                	outsw  %ds:(%esi),(%dx)
 804ac9d:	72 6b                	jb     804ad0a <_IO_stdin_used+0x12e>
 804ac9f:	28 29                	sub    %ch,(%ecx)
 804aca1:	20 67 68             	and    %ah,0x68(%edi)
 804aca4:	74 74                	je     804ad1a <_IO_stdin_used+0x13e>
 804aca6:	70 64                	jo     804ad0c <_IO_stdin_used+0x130>
 804aca8:	20 69 6e             	and    %ch,0x6e(%ecx)
 804acab:	74 6f                	je     804ad1c <_IO_stdin_used+0x140>
 804acad:	20 62 61             	and    %ah,0x61(%edx)
 804acb0:	63 6b 67             	arpl   %bp,0x67(%ebx)
 804acb3:	72 6f                	jb     804ad24 <_IO_stdin_used+0x148>
 804acb5:	75 6e                	jne    804ad25 <_IO_stdin_used+0x149>
 804acb7:	64 00 00             	add    %al,%fs:(%eax)
 804acba:	00 00                	add    %al,(%eax)
 804acbc:	43                   	inc    %ebx
 804acbd:	6f                   	outsl  %ds:(%esi),(%dx)
 804acbe:	75 6c                	jne    804ad2c <_IO_stdin_used+0x150>
 804acc0:	64 20 6e 6f          	and    %ch,%fs:0x6f(%esi)
 804acc4:	74 20                	je     804ace6 <_IO_stdin_used+0x10a>
 804acc6:	66 6f                	outsw  %ds:(%esi),(%dx)
 804acc8:	72 6b                	jb     804ad35 <_IO_stdin_used+0x159>
 804acca:	28 29                	sub    %ch,(%ecx)
 804accc:	20 67 68             	and    %ah,0x68(%edi)
 804accf:	74 74                	je     804ad45 <_IO_stdin_used+0x169>
 804acd1:	70 64                	jo     804ad37 <_IO_stdin_used+0x15b>
 804acd3:	20 69 6e             	and    %ch,0x6e(%ecx)
 804acd6:	74 6f                	je     804ad47 <_IO_stdin_used+0x16b>
 804acd8:	20 62 61             	and    %ah,0x61(%edx)
 804acdb:	63 6b 67             	arpl   %bp,0x67(%ebx)
 804acde:	72 6f                	jb     804ad4f <_IO_stdin_used+0x173>
 804ace0:	75 6e                	jne    804ad50 <_IO_stdin_used+0x174>
 804ace2:	64 0a 00             	or     %fs:(%eax),%al
 804ace5:	00 00                	add    %al,(%eax)
 804ace7:	00 67 68             	add    %ah,0x68(%edi)
 804acea:	74 74                	je     804ad60 <_IO_stdin_used+0x184>
 804acec:	70 64                	jo     804ad52 <_IO_stdin_used+0x176>
 804acee:	20 6c 61 75          	and    %ch,0x75(%ecx)
 804acf2:	6e                   	outsb  %ds:(%esi),(%dx)
 804acf3:	63 68 65             	arpl   %bp,0x65(%eax)
 804acf6:	64 20 69 6e          	and    %ch,%fs:0x6e(%ecx)
 804acfa:	74 6f                	je     804ad6b <_IO_stdin_used+0x18f>
 804acfc:	20 62 61             	and    %ah,0x61(%edx)
 804acff:	63 6b 67             	arpl   %bp,0x67(%ebx)
 804ad02:	72 6f                	jb     804ad73 <_IO_stdin_used+0x197>
 804ad04:	75 6e                	jne    804ad74 <_IO_stdin_used+0x198>
 804ad06:	64                   	fs
 804ad07:	2c 20                	sub    $0x20,%al
 804ad09:	50                   	push   %eax
 804ad0a:	49                   	dec    %ecx
 804ad0b:	44                   	inc    %esp
 804ad0c:	20 3d 20 25 64 0a    	and    %bh,0xa642520
 804ad12:	00 00                	add    %al,(%eax)
 804ad14:	48                   	dec    %eax
 804ad15:	54                   	push   %esp
 804ad16:	54                   	push   %esp
 804ad17:	50                   	push   %eax
 804ad18:	2f                   	das    
 804ad19:	31 2e                	xor    %ebp,(%esi)
 804ad1b:	31 20                	xor    %esp,(%eax)
 804ad1d:	32 30                	xor    (%eax),%dh
 804ad1f:	30 20                	xor    %ah,(%eax)
 804ad21:	4f                   	dec    %edi
 804ad22:	4b                   	dec    %ebx
 804ad23:	0a 53 65             	or     0x65(%ebx),%dl
 804ad26:	72 76                	jb     804ad9e <_IO_stdin_used+0x1c2>
 804ad28:	65                   	gs
 804ad29:	72 3a                	jb     804ad65 <_IO_stdin_used+0x189>
 804ad2b:	20 47 61             	and    %al,0x61(%edi)
 804ad2e:	7a 54                	jp     804ad84 <_IO_stdin_used+0x1a8>
 804ad30:	65 6b 20 48          	imul   $0x48,%gs:(%eax),%esp
 804ad34:	54                   	push   %esp
 804ad35:	54                   	push   %esp
 804ad36:	50                   	push   %eax
 804ad37:	20 44 61 65          	and    %al,0x65(%ecx)
 804ad3b:	6d                   	insl   (%dx),%es:(%edi)
 804ad3c:	6f                   	outsl  %ds:(%esi),(%dx)
 804ad3d:	6e                   	outsb  %ds:(%esi),(%dx)
 804ad3e:	20 76 31             	and    %dh,0x31(%esi)
 804ad41:	2e                   	cs
 804ad42:	34 2d                	xor    $0x2d,%al
 804ad44:	34 0a                	xor    $0xa,%al
 804ad46:	43                   	inc    %ebx
 804ad47:	6f                   	outsl  %ds:(%esi),(%dx)
 804ad48:	6e                   	outsb  %ds:(%esi),(%dx)
 804ad49:	74 65                	je     804adb0 <_IO_stdin_used+0x1d4>
 804ad4b:	6e                   	outsb  %ds:(%esi),(%dx)
 804ad4c:	74 2d                	je     804ad7b <_IO_stdin_used+0x19f>
 804ad4e:	54                   	push   %esp
 804ad4f:	79 70                	jns    804adc1 <_IO_stdin_used+0x1e5>
 804ad51:	65 3a 20             	cmp    %gs:(%eax),%ah
 804ad54:	74 65                	je     804adbb <_IO_stdin_used+0x1df>
 804ad56:	78 74                	js     804adcc <_IO_stdin_used+0x1f0>
 804ad58:	2f                   	das    
 804ad59:	68 74 6d 6c 0a       	push   $0xa6c6d74
 804ad5e:	0a 3c 48             	or     (%eax,%ecx,2),%bh
 804ad61:	54                   	push   %esp
 804ad62:	4d                   	dec    %ebp
 804ad63:	4c                   	dec    %esp
 804ad64:	3e                   	ds
 804ad65:	3c 42                	cmp    $0x42,%al
 804ad67:	4f                   	dec    %edi
 804ad68:	44                   	inc    %esp
 804ad69:	59                   	pop    %ecx
 804ad6a:	20 62 67             	and    %ah,0x67(%edx)
 804ad6d:	63 6f 6c             	arpl   %bp,0x6c(%edi)
 804ad70:	6f                   	outsl  %ds:(%esi),(%dx)
 804ad71:	72 3d                	jb     804adb0 <_IO_stdin_used+0x1d4>
 804ad73:	22 23                	and    (%ebx),%ah
 804ad75:	33 33                	xor    (%ebx),%esi
 804ad77:	43                   	inc    %ebx
 804ad78:	43                   	inc    %ebx
 804ad79:	46                   	inc    %esi
 804ad7a:	46                   	inc    %esi
 804ad7b:	22 3e                	and    (%esi),%bh
 804ad7d:	3c 63                	cmp    $0x63,%al
 804ad7f:	65 6e                	outsb  %gs:(%esi),(%dx)
 804ad81:	74 65                	je     804ade8 <_IO_stdin_used+0x20c>
 804ad83:	72 3e                	jb     804adc3 <_IO_stdin_used+0x1e7>
 804ad85:	3c 54                	cmp    $0x54,%al
 804ad87:	41                   	inc    %ecx
 804ad88:	42                   	inc    %edx
 804ad89:	4c                   	dec    %esp
 804ad8a:	45                   	inc    %ebp
 804ad8b:	20 42 4f             	and    %al,0x4f(%edx)
 804ad8e:	52                   	push   %edx
 804ad8f:	44                   	inc    %esp
 804ad90:	45                   	inc    %ebp
 804ad91:	52                   	push   %edx
 804ad92:	3d 33 20 43 4f       	cmp    $0x4f432033,%eax
 804ad97:	4c                   	dec    %esp
 804ad98:	53                   	push   %ebx
 804ad99:	3d 31 20 57 49       	cmp    $0x49572031,%eax
 804ad9e:	44                   	inc    %esp
 804ad9f:	54                   	push   %esp
 804ada0:	48                   	dec    %eax
 804ada1:	3d 22 37 35 25       	cmp    $0x25353722,%eax
 804ada6:	22 20                	and    (%eax),%ah
 804ada8:	42                   	inc    %edx
 804ada9:	47                   	inc    %edi
 804adaa:	43                   	inc    %ebx
 804adab:	4f                   	dec    %edi
 804adac:	4c                   	dec    %esp
 804adad:	4f                   	dec    %edi
 804adae:	52                   	push   %edx
 804adaf:	3d 22 23 36 36       	cmp    $0x36362322,%eax
 804adb4:	46                   	inc    %esi
 804adb5:	46                   	inc    %esi
 804adb6:	46                   	inc    %esi
 804adb7:	46                   	inc    %esi
 804adb8:	22 3e                	and    (%esi),%bh
 804adba:	3c 74                	cmp    $0x74,%al
 804adbc:	72 3e                	jb     804adfc <_IO_stdin_used+0x220>
 804adbe:	3c 74                	cmp    $0x74,%al
 804adc0:	64                   	fs
 804adc1:	3e                   	ds
 804adc2:	3c 63                	cmp    $0x63,%al
 804adc4:	65 6e                	outsb  %gs:(%esi),(%dx)
 804adc6:	74 65                	je     804ae2d <_IO_stdin_used+0x251>
 804adc8:	72 3e                	jb     804ae08 <_IO_stdin_used+0x22c>
 804adca:	3c 68                	cmp    $0x68,%al
 804adcc:	32 3e                	xor    (%esi),%bh
 804adce:	3c 75                	cmp    $0x75,%al
 804add0:	3e                   	ds
 804add1:	44                   	inc    %esp
 804add2:	69 72 65 63 74 6f 72 	imul   $0x726f7463,0x65(%edx),%esi
 804add9:	79 20                	jns    804adfb <_IO_stdin_used+0x21f>
 804addb:	6c                   	insb   (%dx),%es:(%edi)
 804addc:	69 73 74 69 6e 67 20 	imul   $0x20676e69,0x74(%ebx),%esi
 804ade3:	66 6f                	outsw  %ds:(%esi),(%dx)
 804ade5:	72 20                	jb     804ae07 <_IO_stdin_used+0x22b>
 804ade7:	25 73 3c 2f 75       	and    $0x752f3c73,%eax
 804adec:	3e                   	ds
 804aded:	3c 2f                	cmp    $0x2f,%al
 804adef:	68 32 3e 3c 2f       	push   $0x2f3c3e32
 804adf4:	63 65 6e             	arpl   %sp,0x6e(%ebp)
 804adf7:	74 65                	je     804ae5e <_IO_stdin_used+0x282>
 804adf9:	72 3e                	jb     804ae39 <_IO_stdin_used+0x25d>
 804adfb:	3c 54                	cmp    $0x54,%al
 804adfd:	41                   	inc    %ecx
 804adfe:	42                   	inc    %edx
 804adff:	4c                   	dec    %esp
 804ae00:	45                   	inc    %ebp
 804ae01:	20 42 4f             	and    %al,0x4f(%edx)
 804ae04:	52                   	push   %edx
 804ae05:	44                   	inc    %esp
 804ae06:	45                   	inc    %ebp
 804ae07:	52                   	push   %edx
 804ae08:	3d 33 20 43 4f       	cmp    $0x4f432033,%eax
 804ae0d:	4c                   	dec    %esp
 804ae0e:	53                   	push   %ebx
 804ae0f:	3d 32 20 57 49       	cmp    $0x49572032,%eax
 804ae14:	44                   	inc    %esp
 804ae15:	54                   	push   %esp
 804ae16:	48                   	dec    %eax
 804ae17:	3d 31 30 30 25       	cmp    $0x25303031,%eax
 804ae1c:	20 42 47             	and    %al,0x47(%edx)
 804ae1f:	43                   	inc    %ebx
 804ae20:	4f                   	dec    %edi
 804ae21:	4c                   	dec    %esp
 804ae22:	4f                   	dec    %edi
 804ae23:	52                   	push   %edx
 804ae24:	3d 22 23 46 46       	cmp    $0x46462322,%eax
 804ae29:	46                   	inc    %esi
 804ae2a:	46                   	inc    %esi
 804ae2b:	46                   	inc    %esi
 804ae2c:	46                   	inc    %esi
 804ae2d:	22 3e                	and    (%esi),%bh
 804ae2f:	3c 74                	cmp    $0x74,%al
 804ae31:	72 3e                	jb     804ae71 <_IO_stdin_used+0x295>
 804ae33:	3c 74                	cmp    $0x74,%al
 804ae35:	64                   	fs
 804ae36:	3e                   	ds
 804ae37:	3c 62                	cmp    $0x62,%al
 804ae39:	3e                   	ds
 804ae3a:	3c 63                	cmp    $0x63,%al
 804ae3c:	65 6e                	outsb  %gs:(%esi),(%dx)
 804ae3e:	74 65                	je     804aea5 <_IO_stdin_used+0x2c9>
 804ae40:	72 3e                	jb     804ae80 <_IO_stdin_used+0x2a4>
 804ae42:	46                   	inc    %esi
 804ae43:	69 6c 65 6e 61 6d 65 	imul   $0x3c656d61,0x6e(%ebp),%ebp
 804ae4a:	3c 
 804ae4b:	2f                   	das    
 804ae4c:	63 65 6e             	arpl   %sp,0x6e(%ebp)
 804ae4f:	74 65                	je     804aeb6 <_IO_stdin_used+0x2da>
 804ae51:	72 3e                	jb     804ae91 <_IO_stdin_used+0x2b5>
 804ae53:	3c 2f                	cmp    $0x2f,%al
 804ae55:	62 3e                	bound  %edi,(%esi)
 804ae57:	3c 2f                	cmp    $0x2f,%al
 804ae59:	74 64                	je     804aebf <_IO_stdin_used+0x2e3>
 804ae5b:	3e                   	ds
 804ae5c:	3c 74                	cmp    $0x74,%al
 804ae5e:	64                   	fs
 804ae5f:	3e                   	ds
 804ae60:	3c 62                	cmp    $0x62,%al
 804ae62:	3e                   	ds
 804ae63:	3c 63                	cmp    $0x63,%al
 804ae65:	65 6e                	outsb  %gs:(%esi),(%dx)
 804ae67:	74 65                	je     804aece <_IO_stdin_used+0x2f2>
 804ae69:	72 3e                	jb     804aea9 <_IO_stdin_used+0x2cd>
 804ae6b:	53                   	push   %ebx
 804ae6c:	69 7a 65 20 28 62 79 	imul   $0x79622820,0x65(%edx),%edi
 804ae73:	74 65                	je     804aeda <_IO_stdin_used+0x2fe>
 804ae75:	73 29                	jae    804aea0 <_IO_stdin_used+0x2c4>
 804ae77:	3c 2f                	cmp    $0x2f,%al
 804ae79:	63 65 6e             	arpl   %sp,0x6e(%ebp)
 804ae7c:	74 65                	je     804aee3 <_IO_stdin_used+0x307>
 804ae7e:	72 3e                	jb     804aebe <_IO_stdin_used+0x2e2>
 804ae80:	3c 2f                	cmp    $0x2f,%al
 804ae82:	62 3e                	bound  %edi,(%esi)
 804ae84:	3c 2f                	cmp    $0x2f,%al
 804ae86:	74 64                	je     804aeec <_IO_stdin_used+0x310>
 804ae88:	3e                   	ds
 804ae89:	3c 2f                	cmp    $0x2f,%al
 804ae8b:	74 72                	je     804aeff <_IO_stdin_used+0x323>
 804ae8d:	3e 00 00             	add    %al,%ds:(%eax)
 804ae90:	3c 74                	cmp    $0x74,%al
 804ae92:	72 3e                	jb     804aed2 <_IO_stdin_used+0x2f6>
 804ae94:	3c 74                	cmp    $0x74,%al
 804ae96:	64                   	fs
 804ae97:	3e                   	ds
 804ae98:	3c 63                	cmp    $0x63,%al
 804ae9a:	65 6e                	outsb  %gs:(%esi),(%dx)
 804ae9c:	74 65                	je     804af03 <_IO_stdin_used+0x327>
 804ae9e:	72 3e                	jb     804aede <_IO_stdin_used+0x302>
 804aea0:	3c 41                	cmp    $0x41,%al
 804aea2:	20 48 52             	and    %cl,0x52(%eax)
 804aea5:	45                   	inc    %ebp
 804aea6:	46                   	inc    %esi
 804aea7:	3d 22 25 73 2f       	cmp    $0x2f732522,%eax
 804aeac:	25 73 22 3e 25       	and    $0x253e2273,%eax
 804aeb1:	73 3c                	jae    804aeef <_IO_stdin_used+0x313>
 804aeb3:	2f                   	das    
 804aeb4:	61                   	popa   
 804aeb5:	3e                   	ds
 804aeb6:	3c 2f                	cmp    $0x2f,%al
 804aeb8:	63 65 6e             	arpl   %sp,0x6e(%ebp)
 804aebb:	74 65                	je     804af22 <_IO_stdin_used+0x346>
 804aebd:	72 3e                	jb     804aefd <_IO_stdin_used+0x321>
 804aebf:	3c 2f                	cmp    $0x2f,%al
 804aec1:	74 64                	je     804af27 <_IO_stdin_used+0x34b>
 804aec3:	3e                   	ds
 804aec4:	3c 74                	cmp    $0x74,%al
 804aec6:	64                   	fs
 804aec7:	3e                   	ds
 804aec8:	3c 63                	cmp    $0x63,%al
 804aeca:	65 6e                	outsb  %gs:(%esi),(%dx)
 804aecc:	74 65                	je     804af33 <_IO_stdin_used+0x357>
 804aece:	72 3e                	jb     804af0e <_IO_stdin_used+0x332>
 804aed0:	25 64 3c 2f 63       	and    $0x632f3c64,%eax
 804aed5:	65 6e                	outsb  %gs:(%esi),(%dx)
 804aed7:	74 65                	je     804af3e <_IO_stdin_used+0x362>
 804aed9:	72 3e                	jb     804af19 <_IO_stdin_used+0x33d>
 804aedb:	3c 2f                	cmp    $0x2f,%al
 804aedd:	74 64                	je     804af43 <_IO_stdin_used+0x367>
 804aedf:	3e                   	ds
 804aee0:	3c 2f                	cmp    $0x2f,%al
 804aee2:	74 72                	je     804af56 <_IO_stdin_used+0x37a>
 804aee4:	3e 0a 00             	or     %ds:(%eax),%al
 804aee7:	00 3c 2f             	add    %bh,(%edi,%ebp,1)
 804aeea:	54                   	push   %esp
 804aeeb:	41                   	inc    %ecx
 804aeec:	42                   	inc    %edx
 804aeed:	4c                   	dec    %esp
 804aeee:	45                   	inc    %ebp
 804aeef:	3e                   	ds
 804aef0:	3c 68                	cmp    $0x68,%al
 804aef2:	72 3e                	jb     804af32 <_IO_stdin_used+0x356>
 804aef4:	3c 63                	cmp    $0x63,%al
 804aef6:	65 6e                	outsb  %gs:(%esi),(%dx)
 804aef8:	74 65                	je     804af5f <_IO_stdin_used+0x383>
 804aefa:	72 3e                	jb     804af3a <_IO_stdin_used+0x35e>
 804aefc:	3c 66                	cmp    $0x66,%al
 804aefe:	6f                   	outsl  %ds:(%esi),(%dx)
 804aeff:	6e                   	outsb  %ds:(%esi),(%dx)
 804af00:	74 20                	je     804af22 <_IO_stdin_used+0x346>
 804af02:	73 69                	jae    804af6d <_IO_stdin_used+0x391>
 804af04:	7a 65                	jp     804af6b <_IO_stdin_used+0x38f>
 804af06:	3d 2d 31 3e 54       	cmp    $0x543e312d,%eax
 804af0b:	68 69 73 20 70       	push   $0x70207369
 804af10:	61                   	popa   
 804af11:	67 65 20 69 73       	addr16 and %ch,%gs:0x73(%bx,%di)
 804af16:	20 62 65             	and    %ah,0x65(%edx)
 804af19:	69 6e 67 20 70 72 6f 	imul   $0x6f727020,0x67(%esi),%ebp
 804af20:	76 69                	jbe    804af8b <_IO_stdin_used+0x3af>
 804af22:	64 65 64 20 74 6f 20 	and    %dh,%fs:%gs:0x20(%edi,%ebp,2)
 804af29:	79 6f                	jns    804af9a <_IO_stdin_used+0x3be>
 804af2b:	75 20                	jne    804af4d <_IO_stdin_used+0x371>
 804af2d:	62 79 20             	bound  %edi,0x20(%ecx)
 804af30:	67 68 74 74 70 64    	addr16 push $0x64707474
 804af36:	3c 62                	cmp    $0x62,%al
 804af38:	72 3e                	jb     804af78 <_IO_stdin_used+0x39c>
 804af3a:	3c 41                	cmp    $0x41,%al
 804af3c:	20 48 52             	and    %cl,0x52(%eax)
 804af3f:	45                   	inc    %ebp
 804af40:	46                   	inc    %esi
 804af41:	3d 22 68 74 74       	cmp    $0x74746822,%eax
 804af46:	70 3a                	jo     804af82 <_IO_stdin_used+0x3a6>
 804af48:	2f                   	das    
 804af49:	2f                   	das    
 804af4a:	6d                   	insl   (%dx),%es:(%edi)
 804af4b:	65                   	gs
 804af4c:	6d                   	insl   (%dx),%es:(%edi)
 804af4d:	62 65 72             	bound  %esp,0x72(%ebp)
 804af50:	73 2e                	jae    804af80 <_IO_stdin_used+0x3a4>
 804af52:	78 6f                	js     804afc3 <_IO_stdin_used+0x3e7>
 804af54:	6f                   	outsl  %ds:(%esi),(%dx)
 804af55:	6d                   	insl   (%dx),%es:(%edi)
 804af56:	2e 63 6f 6d          	arpl   %bp,%cs:0x6d(%edi)
 804af5a:	2f                   	das    
 804af5b:	67 61                	addr16 popa 
 804af5d:	7a 74                	jp     804afd3 <_IO_stdin_used+0x3f7>
 804af5f:	65 6b 22 3e          	imul   $0x3e,%gs:(%edx),%esp
 804af63:	68 74 74 70 3a       	push   $0x3a707474
 804af68:	2f                   	das    
 804af69:	2f                   	das    
 804af6a:	6d                   	insl   (%dx),%es:(%edi)
 804af6b:	65                   	gs
 804af6c:	6d                   	insl   (%dx),%es:(%edi)
 804af6d:	62 65 72             	bound  %esp,0x72(%ebp)
 804af70:	73 2e                	jae    804afa0 <_IO_stdin_used+0x3c4>
 804af72:	78 6f                	js     804afe3 <_IO_stdin_used+0x407>
 804af74:	6f                   	outsl  %ds:(%esi),(%dx)
 804af75:	6d                   	insl   (%dx),%es:(%edi)
 804af76:	2e 63 6f 6d          	arpl   %bp,%cs:0x6d(%edi)
 804af7a:	2f                   	das    
 804af7b:	67 61                	addr16 popa 
 804af7d:	7a 74                	jp     804aff3 <_IO_stdin_used+0x417>
 804af7f:	65 6b 3c 2f 61       	imul   $0x61,%gs:(%edi,%ebp,1),%edi
 804af84:	3e                   	ds
 804af85:	3c 2f                	cmp    $0x2f,%al
 804af87:	54                   	push   %esp
 804af88:	44                   	inc    %esp
 804af89:	3e                   	ds
 804af8a:	3c 2f                	cmp    $0x2f,%al
 804af8c:	54                   	push   %esp
 804af8d:	52                   	push   %edx
 804af8e:	3e                   	ds
 804af8f:	3c 2f                	cmp    $0x2f,%al
 804af91:	54                   	push   %esp
 804af92:	41                   	inc    %ecx
 804af93:	42                   	inc    %edx
 804af94:	4c                   	dec    %esp
 804af95:	45                   	inc    %ebp
 804af96:	3e                   	ds
 804af97:	3c 2f                	cmp    $0x2f,%al
 804af99:	42                   	inc    %edx
 804af9a:	4f                   	dec    %edi
 804af9b:	44                   	inc    %esp
 804af9c:	59                   	pop    %ecx
 804af9d:	3e                   	ds
 804af9e:	3c 2f                	cmp    $0x2f,%al
 804afa0:	48                   	dec    %eax
 804afa1:	54                   	push   %esp
 804afa2:	4d                   	dec    %ebp
 804afa3:	4c                   	dec    %esp
 804afa4:	3e 0a 00             	or     %ds:(%eax),%al
 804afa7:	00 43 6f             	add    %al,0x6f(%ebx)
 804afaa:	6e                   	outsb  %ds:(%esi),(%dx)
 804afab:	6e                   	outsb  %ds:(%esi),(%dx)
 804afac:	65 63 74 69 6f       	arpl   %si,%gs:0x6f(%ecx,%ebp,2)
 804afb1:	6e                   	outsb  %ds:(%esi),(%dx)
 804afb2:	20 66 72             	and    %ah,0x72(%esi)
 804afb5:	6f                   	outsl  %ds:(%esi),(%dx)
 804afb6:	6d                   	insl   (%dx),%es:(%edi)
 804afb7:	20 25 73 2c 20 63    	and    %ah,0x63202c73
 804afbd:	6d                   	insl   (%dx),%es:(%edi)
 804afbe:	64                   	fs
 804afbf:	65                   	gs
 804afc0:	72 72                	jb     804b034 <_IO_stdin_used+0x458>
 804afc2:	6f                   	outsl  %ds:(%esi),(%dx)
 804afc3:	72 20                	jb     804afe5 <_IO_stdin_used+0x409>
 804afc5:	3d 20 22 47 45       	cmp    $0x45472220,%eax
 804afca:	54                   	push   %esp
 804afcb:	20 25 73 22 00 43    	and    %ah,0x43002273
 804afd1:	6f                   	outsl  %ds:(%esi),(%dx)
 804afd2:	6e                   	outsb  %ds:(%esi),(%dx)
 804afd3:	6e                   	outsb  %ds:(%esi),(%dx)
 804afd4:	65 63 74 69 6f       	arpl   %si,%gs:0x6f(%ecx,%ebp,2)
 804afd9:	6e                   	outsb  %ds:(%esi),(%dx)
 804afda:	20 66 72             	and    %ah,0x72(%esi)
 804afdd:	6f                   	outsl  %ds:(%esi),(%dx)
 804afde:	6d                   	insl   (%dx),%es:(%edi)
 804afdf:	20 25 73 2c 20 63    	and    %ah,0x63202c73
 804afe5:	6d                   	insl   (%dx),%es:(%edi)
 804afe6:	64                   	fs
 804afe7:	65                   	gs
 804afe8:	72 72                	jb     804b05c <_IO_stdin_used+0x480>
 804afea:	6f                   	outsl  %ds:(%esi),(%dx)
 804afeb:	72 20                	jb     804b00d <_IO_stdin_used+0x431>
 804afed:	3d 20 22 47 45       	cmp    $0x45472220,%eax
 804aff2:	54                   	push   %esp
 804aff3:	22 00                	and    (%eax),%al
 804aff5:	00 00                	add    %al,(%eax)
 804aff7:	00 43 6f             	add    %al,0x6f(%ebx)
 804affa:	6e                   	outsb  %ds:(%esi),(%dx)
 804affb:	6e                   	outsb  %ds:(%esi),(%dx)
 804affc:	65 63 74 69 6f       	arpl   %si,%gs:0x6f(%ecx,%ebp,2)
 804b001:	6e                   	outsb  %ds:(%esi),(%dx)
 804b002:	20 66 72             	and    %ah,0x72(%esi)
 804b005:	6f                   	outsl  %ds:(%esi),(%dx)
 804b006:	6d                   	insl   (%dx),%es:(%edi)
 804b007:	20 25 73 2c 20 34    	and    %ah,0x34202c73
 804b00d:	30 34 20             	xor    %dh,(%eax)
 804b010:	3d 20 22 47 45       	cmp    $0x45472220,%eax
 804b015:	54                   	push   %esp
 804b016:	20 25 73 22 00 00    	and    %ah,0x2273
 804b01c:	43                   	inc    %ebx
 804b01d:	6f                   	outsl  %ds:(%esi),(%dx)
 804b01e:	6e                   	outsb  %ds:(%esi),(%dx)
 804b01f:	6e                   	outsb  %ds:(%esi),(%dx)
 804b020:	65 63 74 69 6f       	arpl   %si,%gs:0x6f(%ecx,%ebp,2)
 804b025:	6e                   	outsb  %ds:(%esi),(%dx)
 804b026:	20 66 72             	and    %ah,0x72(%esi)
 804b029:	6f                   	outsl  %ds:(%esi),(%dx)
 804b02a:	6d                   	insl   (%dx),%es:(%edi)
 804b02b:	20 25 73 2c 20 72    	and    %ah,0x72202c73
 804b031:	65                   	gs
 804b032:	71 75                	jno    804b0a9 <_IO_stdin_used+0x4cd>
 804b034:	65                   	gs
 804b035:	73 74                	jae    804b0ab <_IO_stdin_used+0x4cf>
 804b037:	20 3d 20 22 47 45    	and    %bh,0x45472220
 804b03d:	54                   	push   %esp
 804b03e:	20 25 73 22 00 00    	and    %ah,0x2273
 804b044:	53                   	push   %ebx
 804b045:	65                   	gs
 804b046:	72 76                	jb     804b0be <_IO_stdin_used+0x4e2>
 804b048:	65                   	gs
 804b049:	72 3a                	jb     804b085 <_IO_stdin_used+0x4a9>
 804b04b:	20 47 61             	and    %al,0x61(%edi)
 804b04e:	7a 54                	jp     804b0a4 <_IO_stdin_used+0x4c8>
 804b050:	65 6b 20 48          	imul   $0x48,%gs:(%eax),%esp
 804b054:	54                   	push   %esp
 804b055:	54                   	push   %esp
 804b056:	50                   	push   %eax
 804b057:	20 44 61 65          	and    %al,0x65(%ecx)
 804b05b:	6d                   	insl   (%dx),%es:(%edi)
 804b05c:	6f                   	outsl  %ds:(%esi),(%dx)
 804b05d:	6e                   	outsb  %ds:(%esi),(%dx)
 804b05e:	20 76 31             	and    %dh,0x31(%esi)
 804b061:	2e                   	cs
 804b062:	34 2d                	xor    $0x2d,%al
 804b064:	34 0a                	xor    $0xa,%al
 804b066:	00 00                	add    %al,(%eax)
 804b068:	43                   	inc    %ebx
 804b069:	6f                   	outsl  %ds:(%esi),(%dx)
 804b06a:	6e                   	outsb  %ds:(%esi),(%dx)
 804b06b:	6e                   	outsb  %ds:(%esi),(%dx)
 804b06c:	65 63 74 69 6f       	arpl   %si,%gs:0x6f(%ecx,%ebp,2)
 804b071:	6e                   	outsb  %ds:(%esi),(%dx)
 804b072:	20 66 72             	and    %ah,0x72(%esi)
 804b075:	6f                   	outsl  %ds:(%esi),(%dx)
 804b076:	6d                   	insl   (%dx),%es:(%edi)
 804b077:	20 25 73 2c 20 63    	and    %ah,0x63202c73
 804b07d:	67 69 65 72 72 6f 72 	addr16 imul $0x20726f72,0x72(%di),%esp
 804b084:	20 
 804b085:	3d 20 22 45 58       	cmp    $0x58452220,%eax
 804b08a:	45                   	inc    %ebp
 804b08b:	43                   	inc    %ebx
 804b08c:	20 25 73 20 25 73    	and    %ah,0x73252073
 804b092:	22 00                	and    (%eax),%al
 804b094:	73 63                	jae    804b0f9 <_IO_stdin_used+0x51d>
 804b096:	61                   	popa   
 804b097:	6e                   	outsb  %ds:(%esi),(%dx)
 804b098:	64 69 72 00 25 73 25 	imul   $0x73257325,%fs:0x0(%edx),%esi
 804b09f:	73 
 804b0a0:	2f                   	das    
 804b0a1:	25 73 00 0d 0a       	and    $0xa0d0073,%eax
 804b0a6:	0d 0a 00 47 45       	or     $0x4547000a,%eax
 804b0ab:	54                   	push   %esp
 804b0ac:	00 48 6f             	add    %cl,0x6f(%eax)
 804b0af:	73 74                	jae    804b125 <_IO_stdin_used+0x549>
 804b0b1:	3a 00                	cmp    (%eax),%al
 804b0b3:	20 0d 0a 09 00 2f    	and    %cl,0x2f00090a
 804b0b9:	2e 2e 00 25 32 30 00 	add    %ah,%cs:0x48003032
 804b0c0:	48 
 804b0c1:	54                   	push   %esp
 804b0c2:	54                   	push   %esp
 804b0c3:	50                   	push   %eax
 804b0c4:	2f                   	das    
 804b0c5:	31 2e                	xor    %ebp,(%esi)
 804b0c7:	31 20                	xor    %esp,(%eax)
 804b0c9:	32 30                	xor    (%eax),%dh
 804b0cb:	30 20                	xor    %ah,(%eax)
 804b0cd:	4f                   	dec    %edi
 804b0ce:	4b                   	dec    %ebx
 804b0cf:	0a 00                	or     (%eax),%al
 804b0d1:	51                   	push   %ecx
 804b0d2:	55                   	push   %ebp
 804b0d3:	45                   	inc    %ebp
 804b0d4:	52                   	push   %edx
 804b0d5:	59                   	pop    %ecx
 804b0d6:	5f                   	pop    %edi
 804b0d7:	53                   	push   %ebx
 804b0d8:	54                   	push   %esp
 804b0d9:	52                   	push   %edx
 804b0da:	49                   	dec    %ecx
 804b0db:	4e                   	dec    %esi
 804b0dc:	47                   	inc    %edi
 804b0dd:	00 72 62             	add    %dh,0x62(%edx)
 804b0e0:	00 43 6f             	add    %al,0x6f(%ebx)
 804b0e3:	6e                   	outsb  %ds:(%esi),(%dx)
 804b0e4:	74 65                	je     804b14b <_IO_stdin_used+0x56f>
 804b0e6:	6e                   	outsb  %ds:(%esi),(%dx)
 804b0e7:	74 2d                	je     804b116 <_IO_stdin_used+0x53a>
 804b0e9:	4c                   	dec    %esp
 804b0ea:	65 6e                	outsb  %gs:(%esi),(%dx)
 804b0ec:	67 74 68             	addr16 je 804b157 <_IO_stdin_used+0x57b>
 804b0ef:	3a 20                	cmp    (%eax),%ah
 804b0f1:	25 64 0a 00 43       	and    $0x43000a64,%eax
 804b0f6:	6f                   	outsl  %ds:(%esi),(%dx)
 804b0f7:	6e                   	outsb  %ds:(%esi),(%dx)
 804b0f8:	74 65                	je     804b15f <_IO_stdin_used+0x583>
 804b0fa:	6e                   	outsb  %ds:(%esi),(%dx)
 804b0fb:	74 2d                	je     804b12a <_IO_stdin_used+0x54e>
 804b0fd:	54                   	push   %esp
 804b0fe:	79 70                	jns    804b170 <_IO_stdin_used+0x594>
 804b100:	65 3a 20             	cmp    %gs:(%eax),%ah
 804b103:	25 73 0a 0a 00       	and    $0xa0a73,%eax
 804b108:	25 73 20 2d 20       	and    $0x202d2073,%eax
 804b10d:	25 73 0a 00 25       	and    $0x25000a73,%eax
 804b112:	73 2f                	jae    804b143 <_IO_stdin_used+0x567>
 804b114:	67 68 74 74 70 64    	addr16 push $0x64707474
 804b11a:	2e                   	cs
 804b11b:	6c                   	insb   (%dx),%es:(%edi)
 804b11c:	6f                   	outsl  %ds:(%esi),(%dx)
 804b11d:	67 00 61 74          	addr16 add %ah,0x74(%bx,%di)
 804b121:	00 5b 25             	add    %bl,0x25(%ebx)
 804b124:	64                   	fs
 804b125:	2e                   	cs
 804b126:	25 6d 2e 25 59       	and    $0x59252e6d,%eax
 804b12b:	5d                   	pop    %ebp
 804b12c:	20 5b 25             	and    %bl,0x25(%ebx)
 804b12f:	48                   	dec    %eax
 804b130:	3a 25 4d 2e 25 53    	cmp    0x53252e4d,%ah
 804b136:	5d                   	pop    %ebp
 804b137:	00 22                	add    %ah,(%edx)
 804b139:	20 09                	and    %cl,(%ecx)
 804b13b:	00 3c 2f             	add    %bh,(%edi,%ebp,1)
 804b13e:	76 69                	jbe    804b1a9 <_IO_stdin_used+0x5cd>
 804b140:	72 74                	jb     804b1b6 <_IO_stdin_used+0x5da>
 804b142:	75 61                	jne    804b1a5 <_IO_stdin_used+0x5c9>
 804b144:	6c                   	insb   (%dx),%es:(%edi)
 804b145:	68 6f 73 74 3e       	push   $0x3e74736f
 804b14a:	00 48 6f             	add    %cl,0x6f(%eax)
 804b14d:	73 74                	jae    804b1c3 <_IO_stdin_used+0x5e7>
 804b14f:	00 44 6f 63          	add    %al,0x63(%edi,%ebp,2)
 804b153:	75 6d                	jne    804b1c2 <_IO_stdin_used+0x5e6>
 804b155:	65 6e                	outsb  %gs:(%esi),(%dx)
 804b157:	74 52                	je     804b1ab <_IO_stdin_used+0x5cf>
 804b159:	6f                   	outsl  %ds:(%esi),(%dx)
 804b15a:	6f                   	outsl  %ds:(%esi),(%dx)
 804b15b:	74 00                	je     804b15d <_IO_stdin_used+0x581>
 804b15d:	44                   	inc    %esp
 804b15e:	65                   	gs
 804b15f:	66 61                	popaw  
 804b161:	75 6c                	jne    804b1cf <_IO_stdin_used+0x5f3>
 804b163:	74 50                	je     804b1b5 <_IO_stdin_used+0x5d9>
 804b165:	61                   	popa   
 804b166:	67 65 00 43 67       	addr16 add %al,%gs:0x67(%bp,%di)
 804b16b:	69 42 69 6e 44 69 72 	imul   $0x7269446e,0x69(%edx),%eax
 804b172:	00 43 67             	add    %al,0x67(%ebx)
 804b175:	69 42 69 6e 52 6f 6f 	imul   $0x6f6f526e,0x69(%edx),%eax
 804b17c:	74 00                	je     804b17e <_IO_stdin_used+0x5a2>
 804b17e:	2f                   	das    
 804b17f:	65                   	gs
 804b180:	74 63                	je     804b1e5 <_IO_stdin_used+0x609>
 804b182:	2f                   	das    
 804b183:	67 68 74 74 70 64    	addr16 push $0x64707474
 804b189:	2e 63 6f 6e          	arpl   %bp,%cs:0x6e(%edi)
 804b18d:	66                   	data16
 804b18e:	00 22                	add    %ah,(%edx)
 804b190:	09 20                	or     %esp,(%eax)
 804b192:	00 53 65             	add    %dl,0x65(%ebx)
 804b195:	72 76                	jb     804b20d <__FRAME_END__+0x5>
 804b197:	65                   	gs
 804b198:	72 52                	jb     804b1ec <_IO_stdin_used+0x610>
 804b19a:	6f                   	outsl  %ds:(%esi),(%dx)
 804b19b:	6f                   	outsl  %ds:(%esi),(%dx)
 804b19c:	74 00                	je     804b19e <_IO_stdin_used+0x5c2>
 804b19e:	53                   	push   %ebx
 804b19f:	65                   	gs
 804b1a0:	72 76                	jb     804b218 <__FRAME_END__+0x10>
 804b1a2:	65                   	gs
 804b1a3:	72 50                	jb     804b1f5 <_IO_stdin_used+0x619>
 804b1a5:	6f                   	outsl  %ds:(%esi),(%dx)
 804b1a6:	72 74                	jb     804b21c <__FRAME_END__+0x14>
 804b1a8:	00 53 65             	add    %dl,0x65(%ebx)
 804b1ab:	72 76                	jb     804b223 <__FRAME_END__+0x1b>
 804b1ad:	65                   	gs
 804b1ae:	72 54                	jb     804b204 <_IO_stdin_used+0x628>
 804b1b0:	79 70                	jns    804b222 <__FRAME_END__+0x1a>
 804b1b2:	65 00 3c 56          	add    %bh,%gs:(%esi,%edx,2)
 804b1b6:	69 72 74 75 61 6c 48 	imul   $0x486c6175,0x74(%edx),%esi
 804b1bd:	6f                   	outsl  %ds:(%esi),(%dx)
 804b1be:	73 74                	jae    804b234 <__FRAME_END__+0x2c>
 804b1c0:	3e 00 20             	add    %ah,%ds:(%eax)
 804b1c3:	09 0a                	or     %ecx,(%edx)
 804b1c5:	0d 00 3c 76 69       	or     $0x69763c00,%eax
 804b1ca:	72 74                	jb     804b240 <__FRAME_END__+0x38>
 804b1cc:	75 61                	jne    804b22f <__FRAME_END__+0x27>
 804b1ce:	6c                   	insb   (%dx),%es:(%edi)
 804b1cf:	68 6f 73 74 3e       	push   $0x3e74736f
 804b1d4:	00 00                	add    %al,(%eax)
 804b1d6:	00 00                	add    %al,(%eax)
 804b1d8:	57                   	push   %edi
 804b1d9:	61                   	popa   
 804b1da:	72 6e                	jb     804b24a <__FRAME_END__+0x42>
 804b1dc:	69 6e 67 3a 20 75 6e 	imul   $0x6e75203a,0x67(%esi),%ebp
 804b1e3:	6b 6e 6f 77          	imul   $0x77,0x6f(%esi),%ebp
 804b1e7:	6e                   	outsb  %ds:(%esi),(%dx)
 804b1e8:	20 76 61             	and    %dh,0x61(%esi)
 804b1eb:	72 69                	jb     804b256 <__FRAME_END__+0x4e>
 804b1ed:	61                   	popa   
 804b1ee:	62 6c 65 20          	bound  %ebp,0x20(%ebp)
 804b1f2:	69 6e 20 63 6f 6e 66 	imul   $0x666e6f63,0x20(%esi),%ebp
 804b1f9:	69 67 20 66 69 6c 65 	imul   $0x656c6966,0x20(%edi),%esp
 804b200:	20 22                	and    %ah,(%edx)
 804b202:	25 73 22 0a 00       	and    $0xa2273,%eax
	...
Disassembly of section .eh_frame:

0804b208 <__FRAME_END__>:
 804b208:	00 00                	add    %al,(%eax)
	...
Disassembly of section .ctors:

0804c20c <__CTOR_LIST__>:
 804c20c:	ff                   	(bad)  
 804c20d:	ff                   	(bad)  
 804c20e:	ff                   	(bad)  
 804c20f:	ff 00                	incl   (%eax)

0804c210 <__CTOR_END__>:
 804c210:	00 00                	add    %al,(%eax)
	...
Disassembly of section .dtors:

0804c214 <__DTOR_LIST__>:
 804c214:	ff                   	(bad)  
 804c215:	ff                   	(bad)  
 804c216:	ff                   	(bad)  
 804c217:	ff 00                	incl   (%eax)

0804c218 <__DTOR_END__>:
 804c218:	00 00                	add    %al,(%eax)
	...
Disassembly of section .jcr:

0804c21c <__JCR_END__>:
 804c21c:	00 00                	add    %al,(%eax)
	...
Disassembly of section .dynamic:

0804c220 <_DYNAMIC>:
 804c220:	01 00                	add    %eax,(%eax)
 804c222:	00 00                	add    %al,(%eax)
 804c224:	10 00                	adc    %al,(%eax)
 804c226:	00 00                	add    %al,(%eax)
 804c228:	0c 00                	or     $0x0,%al
 804c22a:	00 00                	add    %al,(%eax)
 804c22c:	08 8c 04 08 0d 00 00 	or     %cl,0xd08(%esp,%eax,1)
 804c233:	00 bc ab 04 08 04 00 	add    %bh,0x40804(%ebx,%ebp,4)
 804c23a:	00 00                	add    %al,(%eax)
 804c23c:	48                   	dec    %eax
 804c23d:	81 04 08 f5 fe ff 6f 	addl   $0x6ffffef5,(%eax,%ecx,1)
 804c244:	ec                   	in     (%dx),%al
 804c245:	82                   	(bad)  
 804c246:	04 08                	add    $0x8,%al
 804c248:	05 00 00 00 3c       	add    $0x3c000000,%eax
 804c24d:	87 04 08             	xchg   %eax,(%eax,%ecx,1)
 804c250:	06                   	push   %es
 804c251:	00 00                	add    %al,(%eax)
 804c253:	00 1c 83             	add    %bl,(%ebx,%eax,4)
 804c256:	04 08                	add    $0x8,%al
 804c258:	0a 00                	or     (%eax),%al
 804c25a:	00 00                	add    %al,(%eax)
 804c25c:	ff 01                	incl   (%ecx)
 804c25e:	00 00                	add    %al,(%eax)
 804c260:	0b 00                	or     (%eax),%eax
 804c262:	00 00                	add    %al,(%eax)
 804c264:	10 00                	adc    %al,(%eax)
 804c266:	00 00                	add    %al,(%eax)
 804c268:	15 00 00 00 00       	adc    $0x0,%eax
 804c26d:	00 00                	add    %al,(%eax)
 804c26f:	00 03                	add    %al,(%ebx)
 804c271:	00 00                	add    %al,(%eax)
 804c273:	00 f4                	add    %dh,%ah
 804c275:	c2 04 08             	ret    $0x804
 804c278:	02 00                	add    (%eax),%al
 804c27a:	00 00                	add    %al,(%eax)
 804c27c:	f0 01 00             	lock add %eax,(%eax)
 804c27f:	00 14 00             	add    %dl,(%eax,%eax,1)
 804c282:	00 00                	add    %al,(%eax)
 804c284:	11 00                	adc    %eax,(%eax)
 804c286:	00 00                	add    %al,(%eax)
 804c288:	17                   	pop    %ss
 804c289:	00 00                	add    %al,(%eax)
 804c28b:	00 18                	add    %bl,(%eax)
 804c28d:	8a 04 08             	mov    (%eax,%ecx,1),%al
 804c290:	11 00                	adc    %eax,(%eax)
 804c292:	00 00                	add    %al,(%eax)
 804c294:	00 8a 04 08 12 00    	add    %cl,0x120804(%edx)
 804c29a:	00 00                	add    %al,(%eax)
 804c29c:	18 00                	sbb    %al,(%eax)
 804c29e:	00 00                	add    %al,(%eax)
 804c2a0:	13 00                	adc    (%eax),%eax
 804c2a2:	00 00                	add    %al,(%eax)
 804c2a4:	08 00                	or     %al,(%eax)
 804c2a6:	00 00                	add    %al,(%eax)
 804c2a8:	fe                   	(bad)  
 804c2a9:	ff                   	(bad)  
 804c2aa:	ff 6f c0             	ljmp   *-0x40(%edi)
 804c2ad:	89 04 08             	mov    %eax,(%eax,%ecx,1)
 804c2b0:	ff                   	(bad)  
 804c2b1:	ff                   	(bad)  
 804c2b2:	ff 6f 01             	ljmp   *0x1(%edi)
 804c2b5:	00 00                	add    %al,(%eax)
 804c2b7:	00 f0                	add    %dh,%al
 804c2b9:	ff                   	(bad)  
 804c2ba:	ff 6f 3c             	ljmp   *0x3c(%edi)
 804c2bd:	89 04 08             	mov    %eax,(%eax,%ecx,1)
	...
Disassembly of section .got:

0804c2f0 <.got>:
 804c2f0:	00 00                	add    %al,(%eax)
	...
Disassembly of section .got.plt:

0804c2f4 <_GLOBAL_OFFSET_TABLE_>:
 804c2f4:	20 c2                	and    %al,%dl
 804c2f6:	04 08                	add    $0x8,%al
	...
 804c300:	4e                   	dec    %esi
 804c301:	8c 04 08             	mov    %es,(%eax,%ecx,1)
 804c304:	5e                   	pop    %esi
 804c305:	8c 04 08             	mov    %es,(%eax,%ecx,1)
 804c308:	6e                   	outsb  %ds:(%esi),(%dx)
 804c309:	8c 04 08             	mov    %es,(%eax,%ecx,1)
 804c30c:	7e 8c                	jle    804c29a <_DYNAMIC+0x7a>
 804c30e:	04 08                	add    $0x8,%al
 804c310:	8e 8c 04 08 9e 8c 04 	mov    0x48c9e08(%esp,%eax,1),%cs
 804c317:	08 ae 8c 04 08 be    	or     %ch,-0x41f7fb74(%esi)
 804c31d:	8c 04 08             	mov    %es,(%eax,%ecx,1)
 804c320:	ce                   	into   
 804c321:	8c 04 08             	mov    %es,(%eax,%ecx,1)
 804c324:	de 8c 04 08 ee 8c 04 	fimul  0x48cee08(%esp,%eax,1)
 804c32b:	08 fe                	or     %bh,%dh
 804c32d:	8c 04 08             	mov    %es,(%eax,%ecx,1)
 804c330:	0e                   	push   %cs
 804c331:	8d 04 08             	lea    (%eax,%ecx,1),%eax
 804c334:	1e                   	push   %ds
 804c335:	8d 04 08             	lea    (%eax,%ecx,1),%eax
 804c338:	2e 8d 04 08          	lea    %cs:(%eax,%ecx,1),%eax
 804c33c:	3e 8d 04 08          	lea    %ds:(%eax,%ecx,1),%eax
 804c340:	4e                   	dec    %esi
 804c341:	8d 04 08             	lea    (%eax,%ecx,1),%eax
 804c344:	5e                   	pop    %esi
 804c345:	8d 04 08             	lea    (%eax,%ecx,1),%eax
 804c348:	6e                   	outsb  %ds:(%esi),(%dx)
 804c349:	8d 04 08             	lea    (%eax,%ecx,1),%eax
 804c34c:	7e 8d                	jle    804c2db <_DYNAMIC+0xbb>
 804c34e:	04 08                	add    $0x8,%al
 804c350:	8e 8d 04 08 9e 8d    	mov    -0x7261f7fc(%ebp),%cs
 804c356:	04 08                	add    $0x8,%al
 804c358:	ae                   	scas   %es:(%edi),%al
 804c359:	8d 04 08             	lea    (%eax,%ecx,1),%eax
 804c35c:	be 8d 04 08 ce       	mov    $0xce08048d,%esi
 804c361:	8d 04 08             	lea    (%eax,%ecx,1),%eax
 804c364:	de 8d 04 08 ee 8d    	fimul  -0x7211f7fc(%ebp)
 804c36a:	04 08                	add    $0x8,%al
 804c36c:	fe 8d 04 08 0e 8e    	decb   -0x71f1f7fc(%ebp)
 804c372:	04 08                	add    $0x8,%al
 804c374:	1e                   	push   %ds
 804c375:	8e 04 08             	mov    (%eax,%ecx,1),%es
 804c378:	2e 8e 04 08          	mov    %cs:(%eax,%ecx,1),%es
 804c37c:	3e 8e 04 08          	mov    %ds:(%eax,%ecx,1),%es
 804c380:	4e                   	dec    %esi
 804c381:	8e 04 08             	mov    (%eax,%ecx,1),%es
 804c384:	5e                   	pop    %esi
 804c385:	8e 04 08             	mov    (%eax,%ecx,1),%es
 804c388:	6e                   	outsb  %ds:(%esi),(%dx)
 804c389:	8e 04 08             	mov    (%eax,%ecx,1),%es
 804c38c:	7e 8e                	jle    804c31c <_GLOBAL_OFFSET_TABLE_+0x28>
 804c38e:	04 08                	add    $0x8,%al
 804c390:	8e 8e 04 08 9e 8e    	mov    -0x7161f7fc(%esi),%cs
 804c396:	04 08                	add    $0x8,%al
 804c398:	ae                   	scas   %es:(%edi),%al
 804c399:	8e 04 08             	mov    (%eax,%ecx,1),%es
 804c39c:	be 8e 04 08 ce       	mov    $0xce08048e,%esi
 804c3a1:	8e 04 08             	mov    (%eax,%ecx,1),%es
 804c3a4:	de 8e 04 08 ee 8e    	fimul  -0x7111f7fc(%esi)
 804c3aa:	04 08                	add    $0x8,%al
 804c3ac:	fe 8e 04 08 0e 8f    	decb   -0x70f1f7fc(%esi)
 804c3b2:	04 08                	add    $0x8,%al
 804c3b4:	1e                   	push   %ds
 804c3b5:	8f 04 08             	popl   (%eax,%ecx,1)
 804c3b8:	2e 8f 04 08          	popl   %cs:(%eax,%ecx,1)
 804c3bc:	3e 8f 04 08          	popl   %ds:(%eax,%ecx,1)
 804c3c0:	4e                   	dec    %esi
 804c3c1:	8f 04 08             	popl   (%eax,%ecx,1)
 804c3c4:	5e                   	pop    %esi
 804c3c5:	8f 04 08             	popl   (%eax,%ecx,1)
 804c3c8:	6e                   	outsb  %ds:(%esi),(%dx)
 804c3c9:	8f 04 08             	popl   (%eax,%ecx,1)
 804c3cc:	7e 8f                	jle    804c35d <_GLOBAL_OFFSET_TABLE_+0x69>
 804c3ce:	04 08                	add    $0x8,%al
 804c3d0:	8e 8f 04 08 9e 8f    	mov    -0x7061f7fc(%edi),%cs
 804c3d6:	04 08                	add    $0x8,%al
 804c3d8:	ae                   	scas   %es:(%edi),%al
 804c3d9:	8f 04 08             	popl   (%eax,%ecx,1)
 804c3dc:	be 8f 04 08 ce       	mov    $0xce08048f,%esi
 804c3e1:	8f 04 08             	popl   (%eax,%ecx,1)
 804c3e4:	de 8f 04 08 ee 8f    	fimul  -0x7011f7fc(%edi)
 804c3ea:	04 08                	add    $0x8,%al
 804c3ec:	fe 8f 04 08 0e 90    	decb   -0x6ff1f7fc(%edi)
 804c3f2:	04 08                	add    $0x8,%al
 804c3f4:	1e                   	push   %ds
 804c3f5:	90                   	nop    
 804c3f6:	04 08                	add    $0x8,%al
Disassembly of section .data:

0804c400 <__data_start>:
 804c400:	00 00                	add    %al,(%eax)
	...

0804c404 <__dso_handle>:
 804c404:	00 00                	add    %al,(%eax)
	...

0804c408 <p.5841>:
 804c408:	18 c2                	sbb    %al,%dl
 804c40a:	04 08                	add    $0x8,%al
	...

0804c420 <SERVERPORT>:
 804c420:	50                   	push   %eax
	...

0804c440 <SERVERTYPE>:
 804c440:	53                   	push   %ebx
 804c441:	74 61                	je     804c4a4 <SERVERTYPE+0x64>
 804c443:	6e                   	outsb  %ds:(%esi),(%dx)
 804c444:	64                   	fs
 804c445:	61                   	popa   
 804c446:	6c                   	insb   (%dx),%es:(%edi)
 804c447:	6f                   	outsl  %ds:(%esi),(%dx)
 804c448:	6e                   	outsb  %ds:(%esi),(%dx)
 804c449:	65 00 00             	add    %al,%gs:(%eax)
	...

0804c540 <SERVERROOT>:
 804c540:	2f                   	das    
 804c541:	75 73                	jne    804c5b6 <SERVERROOT+0x76>
 804c543:	72 2f                	jb     804c574 <SERVERROOT+0x34>
 804c545:	6c                   	insb   (%dx),%es:(%edi)
 804c546:	6f                   	outsl  %ds:(%esi),(%dx)
 804c547:	63 61 6c             	arpl   %sp,0x6c(%ecx)
 804c54a:	2f                   	das    
 804c54b:	67 68 74 74 70 64    	addr16 push $0x64707474
	...

0804c640 <assocNames>:
 804c640:	6d                   	insl   (%dx),%es:(%edi)
 804c641:	70 32                	jo     804c675 <assocNames+0x35>
	...
 804c6a3:	00 61 75             	add    %ah,0x75(%ecx)
 804c6a6:	64 69 6f 2f 78 2d 6d 	imul   $0x706d2d78,%fs:0x2f(%edi),%ebp
 804c6ad:	70 
 804c6ae:	65 67 00 00          	addr16 add %al,%gs:(%bx,%si)
	...
 804c706:	00 00                	add    %al,(%eax)
 804c708:	6d                   	insl   (%dx),%es:(%edi)
 804c709:	70 61                	jo     804c76c <assocNames+0x12c>
	...
 804c76b:	00 61 75             	add    %ah,0x75(%ecx)
 804c76e:	64 69 6f 2f 78 2d 6d 	imul   $0x706d2d78,%fs:0x2f(%edi),%ebp
 804c775:	70 
 804c776:	65 67 00 00          	addr16 add %al,%gs:(%bx,%si)
	...
 804c7ce:	00 00                	add    %al,(%eax)
 804c7d0:	61                   	popa   
 804c7d1:	62 73 00             	bound  %esi,0x0(%ebx)
	...
 804c834:	61                   	popa   
 804c835:	75 64                	jne    804c89b <assocNames+0x25b>
 804c837:	69 6f 2f 78 2d 6d 70 	imul   $0x706d2d78,0x2f(%edi),%ebp
 804c83e:	65 67 00 00          	addr16 add %al,%gs:(%bx,%si)
	...
 804c896:	00 00                	add    %al,(%eax)
 804c898:	6d                   	insl   (%dx),%es:(%edi)
 804c899:	70 65                	jo     804c900 <assocNames+0x2c0>
 804c89b:	67 61                	addr16 popa 
	...
 804c8f9:	00 00                	add    %al,(%eax)
 804c8fb:	00 61 75             	add    %ah,0x75(%ecx)
 804c8fe:	64 69 6f 2f 78 2d 6d 	imul   $0x706d2d78,%fs:0x2f(%edi),%ebp
 804c905:	70 
 804c906:	65 67 00 00          	addr16 add %al,%gs:(%bx,%si)
	...
 804c95e:	00 00                	add    %al,(%eax)
 804c960:	6d                   	insl   (%dx),%es:(%edi)
 804c961:	70 65                	jo     804c9c8 <assocNames+0x388>
 804c963:	67 00 00             	addr16 add %al,(%bx,%si)
	...
 804c9c2:	00 00                	add    %al,(%eax)
 804c9c4:	76 69                	jbe    804ca2f <assocNames+0x3ef>
 804c9c6:	64 65 6f             	outsl  %fs:%gs:(%esi),(%dx)
 804c9c9:	2f                   	das    
 804c9ca:	6d                   	insl   (%dx),%es:(%edi)
 804c9cb:	70 65                	jo     804ca32 <assocNames+0x3f2>
 804c9cd:	67 00 00             	addr16 add %al,(%bx,%si)
	...
 804ca28:	6d                   	insl   (%dx),%es:(%edi)
 804ca29:	70 67                	jo     804ca92 <assocNames+0x452>
	...
 804ca8b:	00 76 69             	add    %dh,0x69(%esi)
 804ca8e:	64 65 6f             	outsl  %fs:%gs:(%esi),(%dx)
 804ca91:	2f                   	das    
 804ca92:	6d                   	insl   (%dx),%es:(%edi)
 804ca93:	70 65                	jo     804cafa <assocNames+0x4ba>
 804ca95:	67 00 00             	addr16 add %al,(%bx,%si)
	...
 804caf0:	6d                   	insl   (%dx),%es:(%edi)
 804caf1:	70 65                	jo     804cb58 <assocNames+0x518>
	...
 804cb53:	00 76 69             	add    %dh,0x69(%esi)
 804cb56:	64 65 6f             	outsl  %fs:%gs:(%esi),(%dx)
 804cb59:	2f                   	das    
 804cb5a:	6d                   	insl   (%dx),%es:(%edi)
 804cb5b:	70 65                	jo     804cbc2 <assocNames+0x582>
 804cb5d:	67 00 00             	addr16 add %al,(%bx,%si)
	...
 804cbb8:	6d                   	insl   (%dx),%es:(%edi)
 804cbb9:	70 76                	jo     804cc31 <assocNames+0x5f1>
	...
 804cc1b:	00 76 69             	add    %dh,0x69(%esi)
 804cc1e:	64 65 6f             	outsl  %fs:%gs:(%esi),(%dx)
 804cc21:	2f                   	das    
 804cc22:	6d                   	insl   (%dx),%es:(%edi)
 804cc23:	70 65                	jo     804cc8a <assocNames+0x64a>
 804cc25:	67 00 00             	addr16 add %al,(%bx,%si)
	...
 804cc80:	76 62                	jbe    804cce4 <assocNames+0x6a4>
 804cc82:	73 00                	jae    804cc84 <assocNames+0x644>
	...
 804cce4:	76 69                	jbe    804cd4f <assocNames+0x70f>
 804cce6:	64 65 6f             	outsl  %fs:%gs:(%esi),(%dx)
 804cce9:	2f                   	das    
 804ccea:	6d                   	insl   (%dx),%es:(%edi)
 804cceb:	70 65                	jo     804cd52 <assocNames+0x712>
 804cced:	67 00 00             	addr16 add %al,(%bx,%si)
	...
 804cd48:	6d                   	insl   (%dx),%es:(%edi)
 804cd49:	70 65                	jo     804cdb0 <assocNames+0x770>
 804cd4b:	67 76 00             	addr16 jbe 804cd4e <assocNames+0x70e>
	...
 804cdaa:	00 00                	add    %al,(%eax)
 804cdac:	76 69                	jbe    804ce17 <assocNames+0x7d7>
 804cdae:	64 65 6f             	outsl  %fs:%gs:(%esi),(%dx)
 804cdb1:	2f                   	das    
 804cdb2:	6d                   	insl   (%dx),%es:(%edi)
 804cdb3:	70 65                	jo     804ce1a <assocNames+0x7da>
 804cdb5:	67 00 00             	addr16 add %al,(%bx,%si)
	...
 804ce10:	62 69 6e             	bound  %ebp,0x6e(%ecx)
	...
 804ce73:	00 61 70             	add    %ah,0x70(%ecx)
 804ce76:	70 6c                	jo     804cee4 <assocNames+0x8a4>
 804ce78:	69 63 61 74 69 6f 6e 	imul   $0x6e6f6974,0x61(%ebx),%esp
 804ce7f:	2f                   	das    
 804ce80:	6f                   	outsl  %ds:(%esi),(%dx)
 804ce81:	63 74 65 74          	arpl   %si,0x74(%ebp)
 804ce85:	2d 73 74 72 65       	sub    $0x65727473,%eax
 804ce8a:	61                   	popa   
 804ce8b:	6d                   	insl   (%dx),%es:(%edi)
	...
 804ced8:	63 6f 6d             	arpl   %bp,0x6d(%edi)
	...
 804cf3b:	00 61 70             	add    %ah,0x70(%ecx)
 804cf3e:	70 6c                	jo     804cfac <assocNames+0x96c>
 804cf40:	69 63 61 74 69 6f 6e 	imul   $0x6e6f6974,0x61(%ebx),%esp
 804cf47:	2f                   	das    
 804cf48:	6f                   	outsl  %ds:(%esi),(%dx)
 804cf49:	63 74 65 74          	arpl   %si,0x74(%ebp)
 804cf4d:	2d 73 74 72 65       	sub    $0x65727473,%eax
 804cf52:	61                   	popa   
 804cf53:	6d                   	insl   (%dx),%es:(%edi)
	...
 804cfa0:	64                   	fs
 804cfa1:	6c                   	insb   (%dx),%es:(%edi)
 804cfa2:	6c                   	insb   (%dx),%es:(%edi)
	...
 804d003:	00 61 70             	add    %ah,0x70(%ecx)
 804d006:	70 6c                	jo     804d074 <assocNames+0xa34>
 804d008:	69 63 61 74 69 6f 6e 	imul   $0x6e6f6974,0x61(%ebx),%esp
 804d00f:	2f                   	das    
 804d010:	6f                   	outsl  %ds:(%esi),(%dx)
 804d011:	63 74 65 74          	arpl   %si,0x74(%ebp)
 804d015:	2d 73 74 72 65       	sub    $0x65727473,%eax
 804d01a:	61                   	popa   
 804d01b:	6d                   	insl   (%dx),%es:(%edi)
	...
 804d068:	62 6d 70             	bound  %ebp,0x70(%ebp)
	...
 804d0cb:	00 69 6d             	add    %ch,0x6d(%ecx)
 804d0ce:	61                   	popa   
 804d0cf:	67                   	addr16
 804d0d0:	65                   	gs
 804d0d1:	2f                   	das    
 804d0d2:	78 2d                	js     804d101 <assocNames+0xac1>
 804d0d4:	4d                   	dec    %ebp
 804d0d5:	53                   	push   %ebx
 804d0d6:	2d 62 6d 70 00       	sub    $0x706d62,%eax
	...
 804d12f:	00 65 78             	add    %ah,0x78(%ebp)
 804d132:	65 00 00             	add    %al,%gs:(%eax)
	...
 804d191:	00 00                	add    %al,(%eax)
 804d193:	00 61 70             	add    %ah,0x70(%ecx)
 804d196:	70 6c                	jo     804d204 <assocNames+0xbc4>
 804d198:	69 63 61 74 69 6f 6e 	imul   $0x6e6f6974,0x61(%ebx),%esp
 804d19f:	2f                   	das    
 804d1a0:	6f                   	outsl  %ds:(%esi),(%dx)
 804d1a1:	63 74 65 74          	arpl   %si,0x74(%ebp)
 804d1a5:	2d 73 74 72 65       	sub    $0x65727473,%eax
 804d1aa:	61                   	popa   
 804d1ab:	6d                   	insl   (%dx),%es:(%edi)
	...
 804d1f8:	6d                   	insl   (%dx),%es:(%edi)
 804d1f9:	69 64 00 00 00 00 00 	imul   $0x0,0x0(%eax,%eax,1),%esp
 804d200:	00 
	...
 804d259:	00 00                	add    %al,(%eax)
 804d25b:	00 61 75             	add    %ah,0x75(%ecx)
 804d25e:	64 69 6f 2f 78 2d 6d 	imul   $0x696d2d78,%fs:0x2f(%edi),%ebp
 804d265:	69 
 804d266:	64 69 00 00 00 00 00 	imul   $0x0,%fs:(%eax),%eax
	...
 804d2bd:	00 00                	add    %al,(%eax)
 804d2bf:	00 6d 69             	add    %ch,0x69(%ebp)
 804d2c2:	64 69 00 00 00 00 00 	imul   $0x0,%fs:(%eax),%eax
	...
 804d321:	00 00                	add    %al,(%eax)
 804d323:	00 61 75             	add    %ah,0x75(%ecx)
 804d326:	64 69 6f 2f 78 2d 6d 	imul   $0x696d2d78,%fs:0x2f(%edi),%ebp
 804d32d:	69 
 804d32e:	64 69 00 00 00 00 00 	imul   $0x0,%fs:(%eax),%eax
	...
 804d385:	00 00                	add    %al,(%eax)
 804d387:	00 68 74             	add    %ch,0x74(%eax)
 804d38a:	6d                   	insl   (%dx),%es:(%edi)
	...
 804d3eb:	00 74 65 78          	add    %dh,0x78(%ebp)
 804d3ef:	74 2f                	je     804d420 <assocNames+0xde0>
 804d3f1:	68 74 6d 6c 00       	push   $0x6c6d74
	...
 804d44e:	00 00                	add    %al,(%eax)
 804d450:	68 74 6d 6c 00       	push   $0x6c6d74
	...
 804d4b1:	00 00                	add    %al,(%eax)
 804d4b3:	00 74 65 78          	add    %dh,0x78(%ebp)
 804d4b7:	74 2f                	je     804d4e8 <assocNames+0xea8>
 804d4b9:	68 74 6d 6c 00       	push   $0x6c6d74
	...
 804d516:	00 00                	add    %al,(%eax)
 804d518:	74 78                	je     804d592 <assocNames+0xf52>
 804d51a:	74 00                	je     804d51c <assocNames+0xedc>
	...
 804d57c:	74 65                	je     804d5e3 <assocNames+0xfa3>
 804d57e:	78 74                	js     804d5f4 <assocNames+0xfb4>
 804d580:	2f                   	das    
 804d581:	70 6c                	jo     804d5ef <assocNames+0xfaf>
 804d583:	61                   	popa   
 804d584:	69 6e 00 00 00 00 00 	imul   $0x0,0x0(%esi),%ebp
	...
 804d5df:	00 67 69             	add    %ah,0x69(%edi)
 804d5e2:	66                   	data16
	...
 804d643:	00 69 6d             	add    %ch,0x6d(%ecx)
 804d646:	61                   	popa   
 804d647:	67                   	addr16
 804d648:	65                   	gs
 804d649:	2f                   	das    
 804d64a:	67 69 66 00 00 00 00 	addr16 imul $0x0,0x0(%bp),%esp
 804d651:	00 
	...
 804d6a6:	00 00                	add    %al,(%eax)
 804d6a8:	74 61                	je     804d70b <assocNames+0x10cb>
 804d6aa:	72 00                	jb     804d6ac <assocNames+0x106c>
	...
 804d70c:	61                   	popa   
 804d70d:	70 70                	jo     804d77f <assocNames+0x113f>
 804d70f:	6c                   	insb   (%dx),%es:(%edi)
 804d710:	69 63 61 74 69 6f 6e 	imul   $0x6e6f6974,0x61(%ebx),%esp
 804d717:	2f                   	das    
 804d718:	78 2d                	js     804d747 <assocNames+0x1107>
 804d71a:	74 61                	je     804d77d <assocNames+0x113d>
 804d71c:	72 00                	jb     804d71e <assocNames+0x10de>
	...
 804d76e:	00 00                	add    %al,(%eax)
 804d770:	6a 70                	push   $0x70
 804d772:	67 00 00             	addr16 add %al,(%bx,%si)
	...
 804d7d1:	00 00                	add    %al,(%eax)
 804d7d3:	00 69 6d             	add    %ch,0x6d(%ecx)
 804d7d6:	61                   	popa   
 804d7d7:	67                   	addr16
 804d7d8:	65                   	gs
 804d7d9:	2f                   	das    
 804d7da:	6a 70                	push   $0x70
 804d7dc:	65 67 00 00          	addr16 add %al,%gs:(%bx,%si)
	...
 804d838:	6a 70                	push   $0x70
 804d83a:	65 67 00 00          	addr16 add %al,%gs:(%bx,%si)
	...
 804d89a:	00 00                	add    %al,(%eax)
 804d89c:	69 6d 61 67 65 2f 6a 	imul   $0x6a2f6567,0x61(%ebp),%ebp
 804d8a3:	70 65                	jo     804d90a <assocNames+0x12ca>
 804d8a5:	67 00 00             	addr16 add %al,(%bx,%si)
	...
 804d900:	70 6e                	jo     804d970 <assocNames+0x1330>
 804d902:	67 00 00             	addr16 add %al,(%bx,%si)
	...
 804d961:	00 00                	add    %al,(%eax)
 804d963:	00 69 6d             	add    %ch,0x6d(%ecx)
 804d966:	61                   	popa   
 804d967:	67                   	addr16
 804d968:	65                   	gs
 804d969:	2f                   	das    
 804d96a:	70 6e                	jo     804d9da <assocNames+0x139a>
 804d96c:	67 00 00             	addr16 add %al,(%bx,%si)
	...
 804d9c7:	00 72 61             	add    %dh,0x61(%edx)
	...
 804da2a:	00 00                	add    %al,(%eax)
 804da2c:	61                   	popa   
 804da2d:	75 64                	jne    804da93 <assocNames+0x1453>
 804da2f:	69 6f 2f 78 2d 70 6e 	imul   $0x6e702d78,0x2f(%edi),%ebp
 804da36:	2d 72 65 61 6c       	sub    $0x6c616572,%eax
 804da3b:	61                   	popa   
 804da3c:	75 64                	jne    804daa2 <assocNames+0x1462>
 804da3e:	69 6f 00 00 00 00 00 	imul   $0x0,0x0(%edi),%ebp
	...
 804da8d:	00 00                	add    %al,(%eax)
 804da8f:	00 72 61             	add    %dh,0x61(%edx)
 804da92:	6d                   	insl   (%dx),%es:(%edi)
	...
 804daf3:	00 61 75             	add    %ah,0x75(%ecx)
 804daf6:	64 69 6f 2f 78 2d 70 	imul   $0x6e702d78,%fs:0x2f(%edi),%ebp
 804dafd:	6e 
 804dafe:	2d 72 65 61 6c       	sub    $0x6c616572,%eax
 804db03:	61                   	popa   
 804db04:	75 64                	jne    804db6a <assocNames+0x152a>
 804db06:	69 6f 00 00 00 00 00 	imul   $0x0,0x0(%edi),%ebp
	...
 804db55:	00 00                	add    %al,(%eax)
 804db57:	00 73 79             	add    %dh,0x79(%ebx)
 804db5a:	73 00                	jae    804db5c <assocNames+0x151c>
	...
 804dbbc:	61                   	popa   
 804dbbd:	70 70                	jo     804dc2f <assocNames+0x15ef>
 804dbbf:	6c                   	insb   (%dx),%es:(%edi)
 804dbc0:	69 63 61 74 69 6f 6e 	imul   $0x6e6f6974,0x61(%ebx),%esp
 804dbc7:	2f                   	das    
 804dbc8:	6f                   	outsl  %ds:(%esi),(%dx)
 804dbc9:	63 74 65 74          	arpl   %si,0x74(%ebp)
 804dbcd:	2d 73 74 72 65       	sub    $0x65727473,%eax
 804dbd2:	61                   	popa   
 804dbd3:	6d                   	insl   (%dx),%es:(%edi)
	...
 804dc20:	77 61                	ja     804dc83 <assocNames+0x1643>
 804dc22:	76 00                	jbe    804dc24 <assocNames+0x15e4>
	...
 804dc84:	61                   	popa   
 804dc85:	75 64                	jne    804dceb <assocNames+0x16ab>
 804dc87:	69 6f 2f 78 2d 77 61 	imul   $0x61772d78,0x2f(%edi),%ebp
 804dc8e:	76 00                	jbe    804dc90 <assocNames+0x1650>
	...
 804dce8:	78 62                	js     804dd4c <assocNames+0x170c>
 804dcea:	6d                   	insl   (%dx),%es:(%edi)
	...
 804dd4b:	00 69 6d             	add    %ch,0x6d(%ecx)
 804dd4e:	61                   	popa   
 804dd4f:	67                   	addr16
 804dd50:	65                   	gs
 804dd51:	2f                   	das    
 804dd52:	78 2d                	js     804dd81 <assocNames+0x1741>
 804dd54:	78 62                	js     804ddb8 <assocNames+0x1778>
 804dd56:	69 74 6d 61 70 00 00 	imul   $0x70,0x61(%ebp,%ebp,2),%esi
 804dd5d:	00 
	...
 804ddae:	00 00                	add    %al,(%eax)
 804ddb0:	7a 69                	jp     804de1b <assocNames+0x17db>
 804ddb2:	70 00                	jo     804ddb4 <assocNames+0x1774>
	...
 804de14:	61                   	popa   
 804de15:	70 70                	jo     804de87 <assocNames+0x1847>
 804de17:	6c                   	insb   (%dx),%es:(%edi)
 804de18:	69 63 61 74 69 6f 6e 	imul   $0x6e6f6974,0x61(%ebx),%esp
 804de1f:	2f                   	das    
 804de20:	78 2d                	js     804de4f <assocNames+0x180f>
 804de22:	7a 69                	jp     804de8d <assocNames+0x184d>
 804de24:	70 00                	jo     804de26 <assocNames+0x17e6>
	...
Disassembly of section .bss:

0804df40 <stdin@@GLIBC_2.0>:
	...

0804df60 <stdout@@GLIBC_2.0>:
 804df60:	00 00                	add    %al,(%eax)
	...

0804df64 <completed.5843>:
 804df64:	00 00                	add    %al,(%eax)
	...

0804df68 <no_vhosts>:
 804df68:	00 00                	add    %al,(%eax)
	...

0804df6c <vhosts>:
	...

0804df80 <defaulthost>:
	...
Disassembly of section .comment:

00000000 <.comment>:
   0:	00 47 43             	add    %al,0x43(%edi)
   3:	43                   	inc    %ebx
   4:	3a 20                	cmp    (%eax),%ah
   6:	28 47 4e             	sub    %al,0x4e(%edi)
   9:	55                   	push   %ebp
   a:	29 20                	sub    %esp,(%eax)
   c:	34 2e                	xor    $0x2e,%al
   e:	32 2e                	xor    (%esi),%ch
  10:	34 20                	xor    $0x20,%al
  12:	28 55 62             	sub    %dl,0x62(%ebp)
  15:	75 6e                	jne    85 <_init-0x8048b83>
  17:	74 75                	je     8e <_init-0x8048b7a>
  19:	20 34 2e             	and    %dh,(%esi,%ebp,1)
  1c:	32 2e                	xor    (%esi),%ch
  1e:	34 2d                	xor    $0x2d,%al
  20:	31 75 62             	xor    %esi,0x62(%ebp)
  23:	75 6e                	jne    93 <_init-0x8048b75>
  25:	74 75                	je     9c <_init-0x8048b6c>
  27:	34 29                	xor    $0x29,%al
  29:	00 00                	add    %al,(%eax)
  2b:	47                   	inc    %edi
  2c:	43                   	inc    %ebx
  2d:	43                   	inc    %ebx
  2e:	3a 20                	cmp    (%eax),%ah
  30:	28 47 4e             	sub    %al,0x4e(%edi)
  33:	55                   	push   %ebp
  34:	29 20                	sub    %esp,(%eax)
  36:	34 2e                	xor    $0x2e,%al
  38:	32 2e                	xor    (%esi),%ch
  3a:	34 20                	xor    $0x20,%al
  3c:	28 55 62             	sub    %dl,0x62(%ebp)
  3f:	75 6e                	jne    af <_init-0x8048b59>
  41:	74 75                	je     b8 <_init-0x8048b50>
  43:	20 34 2e             	and    %dh,(%esi,%ebp,1)
  46:	32 2e                	xor    (%esi),%ch
  48:	34 2d                	xor    $0x2d,%al
  4a:	31 75 62             	xor    %esi,0x62(%ebp)
  4d:	75 6e                	jne    bd <_init-0x8048b4b>
  4f:	74 75                	je     c6 <_init-0x8048b42>
  51:	34 29                	xor    $0x29,%al
  53:	00 00                	add    %al,(%eax)
  55:	47                   	inc    %edi
  56:	43                   	inc    %ebx
  57:	43                   	inc    %ebx
  58:	3a 20                	cmp    (%eax),%ah
  5a:	28 47 4e             	sub    %al,0x4e(%edi)
  5d:	55                   	push   %ebp
  5e:	29 20                	sub    %esp,(%eax)
  60:	34 2e                	xor    $0x2e,%al
  62:	32 2e                	xor    (%esi),%ch
  64:	33 20                	xor    (%eax),%esp
  66:	28 55 62             	sub    %dl,0x62(%ebp)
  69:	75 6e                	jne    d9 <_init-0x8048b2f>
  6b:	74 75                	je     e2 <_init-0x8048b26>
  6d:	20 34 2e             	and    %dh,(%esi,%ebp,1)
  70:	32 2e                	xor    (%esi),%ch
  72:	33 2d 32 75 62 75    	xor    0x75627532,%ebp
  78:	6e                   	outsb  %ds:(%esi),(%dx)
  79:	74 75                	je     f0 <_init-0x8048b18>
  7b:	37                   	aaa    
  7c:	29 00                	sub    %eax,(%eax)
  7e:	00 47 43             	add    %al,0x43(%edi)
  81:	43                   	inc    %ebx
  82:	3a 20                	cmp    (%eax),%ah
  84:	28 47 4e             	sub    %al,0x4e(%edi)
  87:	55                   	push   %ebp
  88:	29 20                	sub    %esp,(%eax)
  8a:	34 2e                	xor    $0x2e,%al
  8c:	32 2e                	xor    (%esi),%ch
  8e:	33 20                	xor    (%eax),%esp
  90:	28 55 62             	sub    %dl,0x62(%ebp)
  93:	75 6e                	jne    103 <_init-0x8048b05>
  95:	74 75                	je     10c <_init-0x8048afc>
  97:	20 34 2e             	and    %dh,(%esi,%ebp,1)
  9a:	32 2e                	xor    (%esi),%ch
  9c:	33 2d 32 75 62 75    	xor    0x75627532,%ebp
  a2:	6e                   	outsb  %ds:(%esi),(%dx)
  a3:	74 75                	je     11a <_init-0x8048aee>
  a5:	37                   	aaa    
  a6:	29 00                	sub    %eax,(%eax)
  a8:	00 47 43             	add    %al,0x43(%edi)
  ab:	43                   	inc    %ebx
  ac:	3a 20                	cmp    (%eax),%ah
  ae:	28 47 4e             	sub    %al,0x4e(%edi)
  b1:	55                   	push   %ebp
  b2:	29 20                	sub    %esp,(%eax)
  b4:	34 2e                	xor    $0x2e,%al
  b6:	32 2e                	xor    (%esi),%ch
  b8:	33 20                	xor    (%eax),%esp
  ba:	28 55 62             	sub    %dl,0x62(%ebp)
  bd:	75 6e                	jne    12d <_init-0x8048adb>
  bf:	74 75                	je     136 <_init-0x8048ad2>
  c1:	20 34 2e             	and    %dh,(%esi,%ebp,1)
  c4:	32 2e                	xor    (%esi),%ch
  c6:	33 2d 32 75 62 75    	xor    0x75627532,%ebp
  cc:	6e                   	outsb  %ds:(%esi),(%dx)
  cd:	74 75                	je     144 <_init-0x8048ac4>
  cf:	37                   	aaa    
  d0:	29 00                	sub    %eax,(%eax)
  d2:	00 47 43             	add    %al,0x43(%edi)
  d5:	43                   	inc    %ebx
  d6:	3a 20                	cmp    (%eax),%ah
  d8:	28 47 4e             	sub    %al,0x4e(%edi)
  db:	55                   	push   %ebp
  dc:	29 20                	sub    %esp,(%eax)
  de:	34 2e                	xor    $0x2e,%al
  e0:	32 2e                	xor    (%esi),%ch
  e2:	33 20                	xor    (%eax),%esp
  e4:	28 55 62             	sub    %dl,0x62(%ebp)
  e7:	75 6e                	jne    157 <_init-0x8048ab1>
  e9:	74 75                	je     160 <_init-0x8048aa8>
  eb:	20 34 2e             	and    %dh,(%esi,%ebp,1)
  ee:	32 2e                	xor    (%esi),%ch
  f0:	33 2d 32 75 62 75    	xor    0x75627532,%ebp
  f6:	6e                   	outsb  %ds:(%esi),(%dx)
  f7:	74 75                	je     16e <_init-0x8048a9a>
  f9:	37                   	aaa    
  fa:	29 00                	sub    %eax,(%eax)
  fc:	00 47 43             	add    %al,0x43(%edi)
  ff:	43                   	inc    %ebx
 100:	3a 20                	cmp    (%eax),%ah
 102:	28 47 4e             	sub    %al,0x4e(%edi)
 105:	55                   	push   %ebp
 106:	29 20                	sub    %esp,(%eax)
 108:	34 2e                	xor    $0x2e,%al
 10a:	32 2e                	xor    (%esi),%ch
 10c:	34 20                	xor    $0x20,%al
 10e:	28 55 62             	sub    %dl,0x62(%ebp)
 111:	75 6e                	jne    181 <_init-0x8048a87>
 113:	74 75                	je     18a <_init-0x8048a7e>
 115:	20 34 2e             	and    %dh,(%esi,%ebp,1)
 118:	32 2e                	xor    (%esi),%ch
 11a:	34 2d                	xor    $0x2d,%al
 11c:	31 75 62             	xor    %esi,0x62(%ebp)
 11f:	75 6e                	jne    18f <_init-0x8048a79>
 121:	74 75                	je     198 <_init-0x8048a70>
 123:	34 29                	xor    $0x29,%al
 125:	00 00                	add    %al,(%eax)
 127:	47                   	inc    %edi
 128:	43                   	inc    %ebx
 129:	43                   	inc    %ebx
 12a:	3a 20                	cmp    (%eax),%ah
 12c:	28 47 4e             	sub    %al,0x4e(%edi)
 12f:	55                   	push   %ebp
 130:	29 20                	sub    %esp,(%eax)
 132:	34 2e                	xor    $0x2e,%al
 134:	32 2e                	xor    (%esi),%ch
 136:	33 20                	xor    (%eax),%esp
 138:	28 55 62             	sub    %dl,0x62(%ebp)
 13b:	75 6e                	jne    1ab <_init-0x8048a5d>
 13d:	74 75                	je     1b4 <_init-0x8048a54>
 13f:	20 34 2e             	and    %dh,(%esi,%ebp,1)
 142:	32 2e                	xor    (%esi),%ch
 144:	33 2d 32 75 62 75    	xor    0x75627532,%ebp
 14a:	6e                   	outsb  %ds:(%esi),(%dx)
 14b:	74 75                	je     1c2 <_init-0x8048a46>
 14d:	37                   	aaa    
 14e:	29 00                	sub    %eax,(%eax)
 150:	00 47 43             	add    %al,0x43(%edi)
 153:	43                   	inc    %ebx
 154:	3a 20                	cmp    (%eax),%ah
 156:	28 47 4e             	sub    %al,0x4e(%edi)
 159:	55                   	push   %ebp
 15a:	29 20                	sub    %esp,(%eax)
 15c:	34 2e                	xor    $0x2e,%al
 15e:	32 2e                	xor    (%esi),%ch
 160:	34 20                	xor    $0x20,%al
 162:	28 55 62             	sub    %dl,0x62(%ebp)
 165:	75 6e                	jne    1d5 <_init-0x8048a33>
 167:	74 75                	je     1de <_init-0x8048a2a>
 169:	20 34 2e             	and    %dh,(%esi,%ebp,1)
 16c:	32 2e                	xor    (%esi),%ch
 16e:	34 2d                	xor    $0x2d,%al
 170:	31 75 62             	xor    %esi,0x62(%ebp)
 173:	75 6e                	jne    1e3 <_init-0x8048a25>
 175:	74 75                	je     1ec <_init-0x8048a1c>
 177:	34 29                	xor    $0x29,%al
	...
Disassembly of section .debug_aranges:

00000000 <.debug_aranges>:
   0:	24 00                	and    $0x0,%al
   2:	00 00                	add    %al,(%eax)
   4:	02 00                	add    (%eax),%al
   6:	8d 00                	lea    (%eax),%eax
   8:	00 00                	add    %al,(%eax)
   a:	04 00                	add    $0x0,%al
   c:	00 00                	add    %al,(%eax)
   e:	00 00                	add    %al,(%eax)
  10:	08 8c 04 08 22 00 00 	or     %cl,0x2208(%esp,%eax,1)
  17:	00 bc ab 04 08 13 00 	add    %bh,0x130804(%ebx,%ebp,4)
	...
  26:	00 00                	add    %al,(%eax)
  28:	1c 00                	sbb    $0x0,%al
  2a:	00 00                	add    %al,(%eax)
  2c:	02 00                	add    (%eax),%al
  2e:	1a 01                	sbb    (%ecx),%al
  30:	00 00                	add    %al,(%eax)
  32:	04 00                	add    $0x0,%al
  34:	00 00                	add    %al,(%eax)
  36:	00 00                	add    %al,(%eax)
  38:	c0 90 04 08 ed 05 00 	rclb   $0x0,0x5ed0804(%eax)
	...
  47:	00 1c 00             	add    %bl,(%eax,%eax,1)
  4a:	00 00                	add    %al,(%eax)
  4c:	02 00                	add    (%eax),%al
  4e:	ab                   	stos   %eax,%es:(%edi)
  4f:	08 00                	or     %al,(%eax)
  51:	00 04 00             	add    %al,(%eax,%eax,1)
  54:	00 00                	add    %al,(%eax)
  56:	00 00                	add    %al,(%eax)
  58:	b0 96                	mov    $0x96,%al
  5a:	04 08                	add    $0x8,%al
  5c:	48                   	dec    %eax
  5d:	0c 00                	or     $0x0,%al
	...
  67:	00 1c 00             	add    %bl,(%eax,%eax,1)
  6a:	00 00                	add    %al,(%eax)
  6c:	02 00                	add    (%eax),%al
  6e:	03 11                	add    (%ecx),%edx
  70:	00 00                	add    %al,(%eax)
  72:	04 00                	add    $0x0,%al
  74:	00 00                	add    %al,(%eax)
  76:	00 00                	add    %al,(%eax)
  78:	00 a3 04 08 17 08    	add    %ah,0x8170804(%ebx)
	...
  86:	00 00                	add    %al,(%eax)
  88:	24 00                	and    $0x0,%al
  8a:	00 00                	add    %al,(%eax)
  8c:	02 00                	add    (%eax),%al
  8e:	f4                   	hlt    
  8f:	1a 00                	sbb    (%eax),%al
  91:	00 04 00             	add    %al,(%eax,%eax,1)
  94:	00 00                	add    %al,(%eax)
  96:	00 00                	add    %al,(%eax)
  98:	34 8c                	xor    $0x8c,%al
  9a:	04 08                	add    $0x8,%al
  9c:	04 00                	add    $0x0,%al
  9e:	00 00                	add    %al,(%eax)
  a0:	d4 ab                	aam    $0xffffffab
  a2:	04 08                	add    $0x8,%al
  a4:	04 00                	add    $0x0,%al
	...
Disassembly of section .debug_pubnames:

00000000 <.debug_pubnames>:
   0:	21 00                	and    %eax,(%eax)
   2:	00 00                	add    %al,(%eax)
   4:	02 00                	add    (%eax),%al
   6:	00 00                	add    %al,(%eax)
   8:	00 00                	add    %al,(%eax)
   a:	8d 00                	lea    (%eax),%eax
   c:	00 00                	add    %al,(%eax)
   e:	75 00                	jne    10 <_init-0x8048bf8>
  10:	00 00                	add    %al,(%eax)
  12:	5f                   	pop    %edi
  13:	49                   	dec    %ecx
  14:	4f                   	dec    %edi
  15:	5f                   	pop    %edi
  16:	73 74                	jae    8c <_init-0x8048b7c>
  18:	64 69 6e 5f 75 73 65 	imul   $0x64657375,%fs:0x5f(%esi),%ebp
  1f:	64 
  20:	00 00                	add    %al,(%eax)
  22:	00 00                	add    %al,(%eax)
  24:	00 91 00 00 00 02    	add    %dl,0x2000000(%ecx)
  2a:	00 1a                	add    %bl,(%edx)
  2c:	01 00                	add    %eax,(%eax)
  2e:	00 91 07 00 00 5a    	add    %dl,0x5a000007(%ecx)
  34:	05 00 00 73 69       	add    $0x69730000,%eax
  39:	67 6e                	addr16 outsb %ds:(%si),(%dx)
  3b:	61                   	popa   
  3c:	6c                   	insb   (%dx),%es:(%edi)
  3d:	5f                   	pop    %edi
  3e:	68 61 6e 64 6c       	push   $0x6c646e61
  43:	65                   	gs
  44:	72 00                	jb     46 <_init-0x8048bc2>
  46:	83 05 00 00 69 6e 65 	addl   $0x65,0x6e690000
  4d:	74 64                	je     b3 <_init-0x8048b55>
  4f:	5f                   	pop    %edi
  50:	73 65                	jae    b7 <_init-0x8048b51>
  52:	72 76                	jb     ca <_init-0x8048b3e>
  54:	65                   	gs
  55:	72 00                	jb     57 <_init-0x8048bb1>
  57:	d0 05 00 00 6d 61    	rolb   0x616d0000
  5d:	69 6e 00 1e 07 00 00 	imul   $0x71e,0x0(%esi),%ebp
  64:	53                   	push   %ebx
  65:	45                   	inc    %ebp
  66:	52                   	push   %edx
  67:	56                   	push   %esi
  68:	45                   	inc    %ebp
  69:	52                   	push   %edx
  6a:	50                   	push   %eax
  6b:	4f                   	dec    %edi
  6c:	52                   	push   %edx
  6d:	54                   	push   %esp
  6e:	00 30                	add    %dh,(%eax)
  70:	07                   	pop    %es
  71:	00 00                	add    %al,(%eax)
  73:	53                   	push   %ebx
  74:	45                   	inc    %ebp
  75:	52                   	push   %edx
  76:	56                   	push   %esi
  77:	45                   	inc    %ebp
  78:	52                   	push   %edx
  79:	52                   	push   %edx
  7a:	4f                   	dec    %edi
  7b:	4f                   	dec    %edi
  7c:	54                   	push   %esp
  7d:	00 42 07             	add    %al,0x7(%edx)
  80:	00 00                	add    %al,(%eax)
  82:	53                   	push   %ebx
  83:	45                   	inc    %ebp
  84:	52                   	push   %edx
  85:	56                   	push   %esi
  86:	45                   	inc    %ebp
  87:	52                   	push   %edx
  88:	54                   	push   %esp
  89:	59                   	pop    %ecx
  8a:	50                   	push   %eax
  8b:	45                   	inc    %ebp
  8c:	00 54 07 00          	add    %dl,0x0(%edi,%eax,1)
  90:	00 6e 6f             	add    %ch,0x6f(%esi)
  93:	5f                   	pop    %edi
  94:	76 68                	jbe    fe <_init-0x8048b0a>
  96:	6f                   	outsl  %ds:(%esi),(%dx)
  97:	73 74                	jae    10d <_init-0x8048afb>
  99:	73 00                	jae    9b <_init-0x8048b6d>
  9b:	66 07                	popw   %es
  9d:	00 00                	add    %al,(%eax)
  9f:	76 68                	jbe    109 <_init-0x8048aff>
  a1:	6f                   	outsl  %ds:(%esi),(%dx)
  a2:	73 74                	jae    118 <_init-0x8048af0>
  a4:	73 00                	jae    a6 <_init-0x8048b62>
  a6:	7e 07                	jle    af <_init-0x8048b59>
  a8:	00 00                	add    %al,(%eax)
  aa:	64                   	fs
  ab:	65                   	gs
  ac:	66 61                	popaw  
  ae:	75 6c                	jne    11c <_init-0x8048aec>
  b0:	74 68                	je     11a <_init-0x8048aee>
  b2:	6f                   	outsl  %ds:(%esi),(%dx)
  b3:	73 74                	jae    129 <_init-0x8048adf>
  b5:	00 00                	add    %al,(%eax)
  b7:	00 00                	add    %al,(%eax)
  b9:	00 4d 00             	add    %cl,0x0(%ebp)
  bc:	00 00                	add    %al,(%eax)
  be:	02 00                	add    (%eax),%al
  c0:	ab                   	stos   %eax,%es:(%edi)
  c1:	08 00                	or     %al,(%eax)
  c3:	00 58 08             	add    %bl,0x8(%eax)
  c6:	00 00                	add    %al,(%eax)
  c8:	a2 04 00 00 73       	mov    %al,0x73000004
  cd:	68 6f 77 64 69       	push   $0x6964776f
  d2:	72 00                	jb     d4 <_init-0x8048b34>
  d4:	a4                   	movsb  %ds:(%esi),%es:(%edi)
  d5:	05 00 00 67 65       	add    $0x65670000,%eax
  da:	74 6d                	je     149 <_init-0x8048abf>
  dc:	69 6d 65 74 79 70 65 	imul   $0x65707974,0x65(%ebp),%ebp
  e3:	00 64 06 00          	add    %ah,0x0(%esi,%eax,1)
  e7:	00 73 65             	add    %dh,0x65(%ebx)
  ea:	72 76                	jb     162 <_init-0x8048aa6>
  ec:	65 63 6f 6e          	arpl   %bp,%gs:0x6e(%edi)
  f0:	6e                   	outsb  %ds:(%esi),(%dx)
  f1:	65 63 74 69 6f       	arpl   %si,%gs:0x6f(%ecx,%ebp,2)
  f6:	6e                   	outsb  %ds:(%esi),(%dx)
  f7:	00 44 08 00          	add    %al,0x0(%eax,%ecx,1)
  fb:	00 61 73             	add    %ah,0x73(%ecx)
  fe:	73 6f                	jae    16f <_init-0x8048a99>
 100:	63 4e 61             	arpl   %cx,0x61(%esi)
 103:	6d                   	insl   (%dx),%es:(%edi)
 104:	65                   	gs
 105:	73 00                	jae    107 <_init-0x8048b01>
 107:	00 00                	add    %al,(%eax)
 109:	00 00                	add    %al,(%eax)
 10b:	b1 00                	mov    $0x0,%cl
 10d:	00 00                	add    %al,(%eax)
 10f:	02 00                	add    (%eax),%al
 111:	03 11                	add    (%ecx),%edx
 113:	00 00                	add    %al,(%eax)
 115:	f1                   	icebp  
 116:	09 00                	or     %eax,(%eax)
 118:	00 4d 05             	add    %cl,0x5(%ebp)
 11b:	00 00                	add    %al,(%eax)
 11d:	4c                   	dec    %esp
 11e:	6f                   	outsl  %ds:(%esi),(%dx)
 11f:	67 00 34             	addr16 add %dh,(%si)
 122:	06                   	push   %es
 123:	00 00                	add    %al,(%eax)
 125:	67 73 74             	addr16 jae 19c <_init-0x8048a6c>
 128:	72 69                	jb     193 <_init-0x8048a75>
 12a:	63 6d 70             	arpl   %bp,0x70(%ebp)
 12d:	00 a9 06 00 00 67    	add    %ch,0x67000006(%ecx)
 133:	73 74                	jae    1a9 <_init-0x8048a5f>
 135:	72 6c                	jb     1a3 <_init-0x8048a65>
 137:	77 72                	ja     1ab <_init-0x8048a5d>
 139:	00 f2                	add    %dh,%dl
 13b:	06                   	push   %es
 13c:	00 00                	add    %al,(%eax)
 13e:	69 73 44 69 72 65 63 	imul   $0x63657269,0x44(%ebx),%esi
 145:	74 6f                	je     1b6 <_init-0x8048a52>
 147:	72 79                	jb     1c2 <_init-0x8048a46>
 149:	00 47 07             	add    %al,0x7(%edi)
 14c:	00 00                	add    %al,(%eax)
 14e:	67                   	addr16
 14f:	65                   	gs
 150:	74 5f                	je     1b1 <_init-0x8048a57>
 152:	66 69 6c 65 5f 73 69 	imul   $0x6973,0x5f(%ebp),%bp
 159:	7a 65                	jp     1c0 <_init-0x8048a48>
 15b:	00 9b 07 00 00 67    	add    %bl,0x67000007(%ebx)
 161:	65                   	gs
 162:	74 66                	je     1ca <_init-0x8048a3e>
 164:	69 6c 65 6c 69 6e 65 	imul   $0x656e69,0x6c(%ebp),%ebp
 16b:	00 
 16c:	dd 07                	fldl   (%edi)
 16e:	00 00                	add    %al,(%eax)
 170:	56                   	push   %esi
 171:	69 72 74 75 61 6c 48 	imul   $0x486c6175,0x74(%edx),%esi
 178:	6f                   	outsl  %ds:(%esi),(%dx)
 179:	73 74                	jae    1ef <_init-0x8048a19>
 17b:	44                   	inc    %esp
 17c:	65 66 69 6e 69 74 69 	imul   $0x6974,%gs:0x69(%esi),%bp
 183:	6f                   	outsl  %ds:(%esi),(%dx)
 184:	6e                   	outsb  %ds:(%esi),(%dx)
 185:	00 67 08             	add    %ah,0x8(%edi)
 188:	00 00                	add    %al,(%eax)
 18a:	72 65                	jb     1f1 <_init-0x8048a17>
 18c:	61                   	popa   
 18d:	64 69 6e 63 6f 6e 66 	imul   $0x69666e6f,%fs:0x63(%esi),%ebp
 194:	69 
 195:	67 00 db             	addr16 add %bl,%bl
 198:	08 00                	or     %al,(%eax)
 19a:	00 63 6f             	add    %ah,0x6f(%ebx)
 19d:	75 6e                	jne    20d <_init-0x80489fb>
 19f:	74 5f                	je     200 <_init-0x8048a08>
 1a1:	76 68                	jbe    20b <_init-0x80489fd>
 1a3:	6f                   	outsl  %ds:(%esi),(%dx)
 1a4:	73 74                	jae    21a <_init-0x80489ee>
 1a6:	73 00                	jae    1a8 <_init-0x8048a60>
 1a8:	33 09                	xor    (%ecx),%ecx
 1aa:	00 00                	add    %al,(%eax)
 1ac:	64 6f                	outsl  %fs:(%esi),(%dx)
 1ae:	65                   	gs
 1af:	73 5f                	jae    210 <_init-0x80489f8>
 1b1:	66 69 6c 65 5f 65 78 	imul   $0x7865,0x5f(%ebp),%bp
 1b8:	69 73 74 00 00 00 00 	imul   $0x0,0x74(%ebx),%esi
	...
Disassembly of section .debug_info:

00000000 <.debug_info>:
       0:	89 00                	mov    %eax,(%eax)
       2:	00 00                	add    %al,(%eax)
       4:	02 00                	add    (%eax),%al
       6:	00 00                	add    %al,(%eax)
       8:	00 00                	add    %al,(%eax)
       a:	04 01                	add    $0x1,%al
       c:	00 00                	add    %al,(%eax)
       e:	00 00                	add    %al,(%eax)
      10:	01 a6 00 00 00 75    	add    %esp,0x75000000(%esi)
      16:	00 00                	add    %al,(%eax)
      18:	00 54 90 04          	add    %dl,0x4(%eax,%edx,4)
      1c:	08 54 90 04          	or     %dl,0x4(%eax,%edx,4)
      20:	08 00                	or     %al,(%eax)
      22:	00 00                	add    %al,(%eax)
      24:	00 02                	add    %al,(%edx)
      26:	01 08                	add    %ecx,(%eax)
      28:	67 00 00             	addr16 add %al,(%bx,%si)
      2b:	00 02                	add    %al,(%edx)
      2d:	02 07                	add    (%edi),%al
      2f:	24 00                	and    $0x0,%al
      31:	00 00                	add    %al,(%eax)
      33:	02 04 07             	add    (%edi,%eax,1),%al
      36:	5a                   	pop    %edx
      37:	00 00                	add    %al,(%eax)
      39:	00 02                	add    %al,(%edx)
      3b:	04 07                	add    $0x7,%al
      3d:	55                   	push   %ebp
      3e:	00 00                	add    %al,(%eax)
      40:	00 02                	add    %al,(%edx)
      42:	01 06                	add    %eax,(%esi)
      44:	69 00 00 00 02 02    	imul   $0x2020000,(%eax),%eax
      4a:	05 37 00 00 00       	add    $0x37,%eax
      4f:	03 04 05 69 6e 74 00 	add    0x746e69(,%eax,1),%eax
      56:	02 08                	add    (%eax),%cl
      58:	05 ad 00 00 00       	add    $0xad,%eax
      5d:	02 08                	add    (%eax),%cl
      5f:	07                   	pop    %es
      60:	50                   	push   %eax
      61:	00 00                	add    %al,(%eax)
      63:	00 02                	add    %al,(%edx)
      65:	04 05                	add    $0x5,%al
      67:	b2 00                	mov    $0x0,%dl
      69:	00 00                	add    %al,(%eax)
      6b:	04 04                	add    $0x4,%al
      6d:	07                   	pop    %es
      6e:	02 01                	add    (%ecx),%al
      70:	06                   	push   %es
      71:	70 00                	jo     73 <_init-0x8048b95>
      73:	00 00                	add    %al,(%eax)
      75:	05 41 00 00 00       	add    $0x41,%eax
      7a:	01 19                	add    %ebx,(%ecx)
      7c:	87 00                	xchg   %eax,(%eax)
      7e:	00 00                	add    %al,(%eax)
      80:	01 05 03 dc ab 04    	add    %eax,0x4abdc03
      86:	08 06                	or     %al,(%esi)
      88:	4f                   	dec    %edi
      89:	00 00                	add    %al,(%eax)
      8b:	00 00                	add    %al,(%eax)
      8d:	89 00                	mov    %eax,(%eax)
      8f:	00 00                	add    %al,(%eax)
      91:	02 00                	add    (%eax),%al
      93:	4b                   	dec    %ebx
      94:	00 00                	add    %al,(%eax)
      96:	00 04 01             	add    %al,(%ecx,%eax,1)
      99:	27                   	daa    
      9a:	00 00                	add    %al,(%eax)
      9c:	00 00                	add    %al,(%eax)
      9e:	00 00                	add    %al,(%eax)
      a0:	00 2f                	add    %ch,(%edi)
      a2:	62 75 69             	bound  %esi,0x69(%ebp)
      a5:	6c                   	insb   (%dx),%es:(%edi)
      a6:	64                   	fs
      a7:	2f                   	das    
      a8:	62 75 69             	bound  %esi,0x69(%ebp)
      ab:	6c                   	insb   (%dx),%es:(%edi)
      ac:	64                   	fs
      ad:	64                   	fs
      ae:	2f                   	das    
      af:	67 6c                	addr16 insb (%dx),%es:(%di)
      b1:	69 62 63 2d 32 2e 37 	imul   $0x372e322d,0x63(%edx),%esp
      b8:	2f                   	das    
      b9:	62 75 69             	bound  %esi,0x69(%ebp)
      bc:	6c                   	insb   (%dx),%es:(%edi)
      bd:	64                   	fs
      be:	2d 74 72 65 65       	sub    $0x65657274,%eax
      c3:	2f                   	das    
      c4:	69 33 38 36 2d 6c    	imul   $0x6c2d3638,(%ebx),%esi
      ca:	69 62 63 2f 63 73 75 	imul   $0x7573632f,0x63(%edx),%esp
      d1:	2f                   	das    
      d2:	63 72 74             	arpl   %si,0x74(%edx)
      d5:	69 2e 53 00 2f 62    	imul   $0x622f0053,(%esi),%ebp
      db:	75 69                	jne    146 <_init-0x8048ac2>
      dd:	6c                   	insb   (%dx),%es:(%edi)
      de:	64                   	fs
      df:	2f                   	das    
      e0:	62 75 69             	bound  %esi,0x69(%ebp)
      e3:	6c                   	insb   (%dx),%es:(%edi)
      e4:	64                   	fs
      e5:	64                   	fs
      e6:	2f                   	das    
      e7:	67 6c                	addr16 insb (%dx),%es:(%di)
      e9:	69 62 63 2d 32 2e 37 	imul   $0x372e322d,0x63(%edx),%esp
      f0:	2f                   	das    
      f1:	62 75 69             	bound  %esi,0x69(%ebp)
      f4:	6c                   	insb   (%dx),%es:(%edi)
      f5:	64                   	fs
      f6:	2d 74 72 65 65       	sub    $0x65657274,%eax
      fb:	2f                   	das    
      fc:	67 6c                	addr16 insb (%dx),%es:(%di)
      fe:	69 62 63 2d 32 2e 37 	imul   $0x372e322d,0x63(%edx),%esp
     105:	2f                   	das    
     106:	63 73 75             	arpl   %si,0x75(%ebx)
     109:	00 47 4e             	add    %al,0x4e(%edi)
     10c:	55                   	push   %ebp
     10d:	20 41 53             	and    %al,0x53(%ecx)
     110:	20 32                	and    %dh,(%edx)
     112:	2e 31 38             	xor    %edi,%cs:(%eax)
     115:	2e 30 00             	xor    %al,%cs:(%eax)
     118:	01 80 8d 07 00 00    	add    %eax,0x78d(%eax)
     11e:	02 00                	add    (%eax),%al
     120:	5d                   	pop    %ebp
     121:	00 00                	add    %al,(%eax)
     123:	00 04 01             	add    %al,(%ecx,%eax,1)
     126:	d4 01                	aam    $0x1
     128:	00 00                	add    %al,(%eax)
     12a:	01 4e 02             	add    %ecx,0x2(%esi)
     12d:	00 00                	add    %al,(%eax)
     12f:	56                   	push   %esi
     130:	03 00                	add    (%eax),%eax
     132:	00 c0                	add    %al,%al
     134:	90                   	nop    
     135:	04 08                	add    $0x8,%al
     137:	ad                   	lods   %ds:(%esi),%eax
     138:	96                   	xchg   %eax,%esi
     139:	04 08                	add    $0x8,%al
     13b:	ad                   	lods   %ds:(%esi),%eax
     13c:	00 00                	add    %al,(%eax)
     13e:	00 02                	add    %al,(%edx)
     140:	47                   	inc    %edi
     141:	07                   	pop    %es
     142:	00 00                	add    %al,(%eax)
     144:	02 d6                	add    %dh,%dl
     146:	30 00                	xor    %al,(%eax)
     148:	00 00                	add    %al,(%eax)
     14a:	03 04 07             	add    (%edi,%eax,1),%eax
     14d:	5a                   	pop    %edx
     14e:	00 00                	add    %al,(%eax)
     150:	00 03                	add    %al,(%ebx)
     152:	01 08                	add    %ecx,(%eax)
     154:	67 00 00             	addr16 add %al,(%bx,%si)
     157:	00 03                	add    %al,(%ebx)
     159:	02 07                	add    (%edi),%al
     15b:	24 00                	and    $0x0,%al
     15d:	00 00                	add    %al,(%eax)
     15f:	03 04 07             	add    (%edi,%eax,1),%eax
     162:	55                   	push   %ebp
     163:	00 00                	add    %al,(%eax)
     165:	00 03                	add    %al,(%ebx)
     167:	01 06                	add    %eax,(%esi)
     169:	69 00 00 00 03 02    	imul   $0x2030000,(%eax),%eax
     16f:	05 37 00 00 00       	add    $0x37,%eax
     174:	04 04                	add    $0x4,%al
     176:	05 69 6e 74 00       	add    $0x746e69,%eax
     17b:	03 08                	add    (%eax),%ecx
     17d:	05 ad 00 00 00       	add    $0xad,%eax
     182:	03 08                	add    (%eax),%ecx
     184:	07                   	pop    %es
     185:	50                   	push   %eax
     186:	00 00                	add    %al,(%eax)
     188:	00 02                	add    %al,(%edx)
     18a:	77 01                	ja     18d <_init-0x8048a7b>
     18c:	00 00                	add    %al,(%eax)
     18e:	03 38                	add    (%eax),%edi
     190:	61                   	popa   
     191:	00 00                	add    %al,(%eax)
     193:	00 02                	add    %al,(%edx)
     195:	a5                   	movsl  %ds:(%esi),%es:(%edi)
     196:	03 00                	add    (%eax),%eax
     198:	00 03                	add    %al,(%ebx)
     19a:	87 30                	xchg   %esi,(%eax)
     19c:	00 00                	add    %al,(%eax)
     19e:	00 02                	add    %al,(%edx)
     1a0:	c3                   	ret    
     1a1:	00 00                	add    %al,(%eax)
     1a3:	00 03                	add    %al,(%ebx)
     1a5:	88 30                	mov    %dh,(%eax)
     1a7:	00 00                	add    %al,(%eax)
     1a9:	00 02                	add    %al,(%edx)
     1ab:	bb 00 00 00 03       	mov    $0x3000000,%ebx
     1b0:	8d 9b 00 00 00 03    	lea    0x3000000(%ebx),%ebx
     1b6:	04 05                	add    $0x5,%al
     1b8:	b2 00                	mov    $0x0,%dl
     1ba:	00 00                	add    %al,(%eax)
     1bc:	02 b3 03 00 00 03    	add    0x3000003(%ebx),%dh
     1c2:	8e 6f 00             	mov    0x0(%edi),%gs
     1c5:	00 00                	add    %al,(%eax)
     1c7:	05 04 07 02 39       	add    $0x39020704,%eax
     1cc:	03 00                	add    (%eax),%eax
     1ce:	00 03                	add    %al,(%ebx)
     1d0:	95                   	xchg   %eax,%ebp
     1d1:	9b                   	fwait
     1d2:	00 00                	add    %al,(%eax)
     1d4:	00 02                	add    %al,(%edx)
     1d6:	fd                   	std    
     1d7:	01 00                	add    %eax,(%eax)
     1d9:	00 03                	add    %al,(%ebx)
     1db:	97                   	xchg   %eax,%edi
     1dc:	9b                   	fwait
     1dd:	00 00                	add    %al,(%eax)
     1df:	00 06                	add    %al,(%esi)
     1e1:	04 07                	add    $0x7,%al
     1e3:	04 ce                	add    $0xce,%al
     1e5:	00 00                	add    %al,(%eax)
     1e7:	00 03                	add    %al,(%ebx)
     1e9:	01 06                	add    %eax,(%esi)
     1eb:	70 00                	jo     1ed <_init-0x8048a1b>
     1ed:	00 00                	add    %al,(%eax)
     1ef:	08 c8                	or     %cl,%al
     1f1:	02 00                	add    (%eax),%al
     1f3:	00 94 05 2d 95 02 00 	add    %dl,0x2952d(%ebp,%eax,1)
     1fa:	00 09                	add    %cl,(%ecx)
     1fc:	4c                   	dec    %esp
     1fd:	01 00                	add    %eax,(%eax)
     1ff:	00 04 10             	add    %al,(%eax,%edx,1)
     202:	01 5a 00             	add    %ebx,0x0(%edx)
     205:	00 00                	add    %al,(%eax)
     207:	02 23                	add    (%ebx),%ah
     209:	00 09                	add    %cl,(%ecx)
     20b:	cb                   	lret   
     20c:	00 00                	add    %al,(%eax)
     20e:	00 04 15 01 c8 00 00 	add    %al,0xc801(,%edx,1)
     215:	00 02                	add    %al,(%edx)
     217:	23 04 09             	and    (%ecx,%ecx,1),%eax
     21a:	3f                   	aas    
     21b:	01 00                	add    %eax,(%eax)
     21d:	00 04 16             	add    %al,(%esi,%edx,1)
     220:	01 c8                	add    %ecx,%eax
     222:	00 00                	add    %al,(%eax)
     224:	00 02                	add    %al,(%edx)
     226:	23 08                	and    (%eax),%ecx
     228:	09 bd 03 00 00 04    	or     %edi,0x4000003(%ebp)
     22e:	17                   	pop    %ss
     22f:	01 c8                	add    %ecx,%eax
     231:	00 00                	add    %al,(%eax)
     233:	00 02                	add    %al,(%edx)
     235:	23 0c 09             	and    (%ecx,%ecx,1),%ecx
     238:	b4 04                	mov    $0x4,%ah
     23a:	00 00                	add    %al,(%eax)
     23c:	04 18                	add    $0x18,%al
     23e:	01 c8                	add    %ecx,%eax
     240:	00 00                	add    %al,(%eax)
     242:	00 02                	add    %al,(%edx)
     244:	23 10                	and    (%eax),%edx
     246:	09 0b                	or     %ecx,(%ebx)
     248:	02 00                	add    (%eax),%al
     24a:	00 04 19             	add    %al,(%ecx,%ebx,1)
     24d:	01 c8                	add    %ecx,%eax
     24f:	00 00                	add    %al,(%eax)
     251:	00 02                	add    %al,(%edx)
     253:	23 14 09             	and    (%ecx,%ecx,1),%edx
     256:	06                   	push   %es
     257:	04 00                	add    $0x0,%al
     259:	00 04 1a             	add    %al,(%edx,%ebx,1)
     25c:	01 c8                	add    %ecx,%eax
     25e:	00 00                	add    %al,(%eax)
     260:	00 02                	add    %al,(%edx)
     262:	23 18                	and    (%eax),%ebx
     264:	09 fa                	or     %edi,%edx
     266:	00 00                	add    %al,(%eax)
     268:	00 04 1b             	add    %al,(%ebx,%ebx,1)
     26b:	01 c8                	add    %ecx,%eax
     26d:	00 00                	add    %al,(%eax)
     26f:	00 02                	add    %al,(%edx)
     271:	23 1c 09             	and    (%ecx,%ecx,1),%ebx
     274:	53                   	push   %ebx
     275:	01 00                	add    %eax,(%eax)
     277:	00 04 1c             	add    %al,(%esp,%ebx,1)
     27a:	01 c8                	add    %ecx,%eax
     27c:	00 00                	add    %al,(%eax)
     27e:	00 02                	add    %al,(%edx)
     280:	23 20                	and    (%eax),%esp
     282:	09 3a                	or     %edi,(%edx)
     284:	02 00                	add    (%eax),%al
     286:	00 04 1e             	add    %al,(%esi,%ebx,1)
     289:	01 c8                	add    %ecx,%eax
     28b:	00 00                	add    %al,(%eax)
     28d:	00 02                	add    %al,(%edx)
     28f:	23 24 09             	and    (%ecx,%ecx,1),%esp
     292:	60                   	pusha  
     293:	04 00                	add    $0x0,%al
     295:	00 04 1f             	add    %al,(%edi,%ebx,1)
     298:	01 c8                	add    %ecx,%eax
     29a:	00 00                	add    %al,(%eax)
     29c:	00 02                	add    %al,(%edx)
     29e:	23 28                	and    (%eax),%ebp
     2a0:	09 cb                	or     %ecx,%ebx
     2a2:	03 00                	add    (%eax),%eax
     2a4:	00 04 20             	add    %al,(%eax)
     2a7:	01 c8                	add    %ecx,%eax
     2a9:	00 00                	add    %al,(%eax)
     2ab:	00 02                	add    %al,(%edx)
     2ad:	23 2c 09             	and    (%ecx,%ecx,1),%ebp
     2b0:	f9                   	stc    
     2b1:	02 00                	add    (%eax),%al
     2b3:	00 04 22             	add    %al,(%edx)
     2b6:	01 d3                	add    %edx,%ebx
     2b8:	02 00                	add    (%eax),%al
     2ba:	00 02                	add    %al,(%edx)
     2bc:	23 30                	and    (%eax),%esi
     2be:	09 d8                	or     %ebx,%eax
     2c0:	00 00                	add    %al,(%eax)
     2c2:	00 04 24             	add    %al,(%esp)
     2c5:	01 d9                	add    %ebx,%ecx
     2c7:	02 00                	add    (%eax),%al
     2c9:	00 02                	add    %al,(%edx)
     2cb:	23 34 09             	and    (%ecx,%ecx,1),%esi
     2ce:	37                   	aaa    
     2cf:	01 00                	add    %eax,(%eax)
     2d1:	00 04 26             	add    %al,(%esi)
     2d4:	01 5a 00             	add    %ebx,0x0(%edx)
     2d7:	00 00                	add    %al,(%eax)
     2d9:	02 23                	add    (%ebx),%ah
     2db:	38 09                	cmp    %cl,(%ecx)
     2dd:	66                   	data16
     2de:	02 00                	add    (%eax),%al
     2e0:	00 04 2a             	add    %al,(%edx,%ebp,1)
     2e3:	01 5a 00             	add    %ebx,0x0(%edx)
     2e6:	00 00                	add    %al,(%eax)
     2e8:	02 23                	add    (%ebx),%ah
     2ea:	3c 09                	cmp    $0x9,%al
     2ec:	8c 01                	mov    %es,(%ecx)
     2ee:	00 00                	add    %al,(%eax)
     2f0:	04 2c                	add    $0x2c,%al
     2f2:	01 90 00 00 00 02    	add    %edx,0x2000000(%eax)
     2f8:	23 40 09             	and    0x9(%eax),%eax
     2fb:	5f                   	pop    %edi
     2fc:	01 00                	add    %eax,(%eax)
     2fe:	00 04 30             	add    %al,(%eax,%esi,1)
     301:	01 3e                	add    %edi,(%esi)
     303:	00 00                	add    %al,(%eax)
     305:	00 02                	add    %al,(%edx)
     307:	23 44 09 2a          	and    0x2a(%ecx,%ecx,1),%eax
     30b:	03 00                	add    (%eax),%eax
     30d:	00 04 31             	add    %al,(%ecx,%esi,1)
     310:	01 4c 00 00          	add    %ecx,0x0(%eax,%eax,1)
     314:	00 02                	add    %al,(%edx)
     316:	23 46 09             	and    0x9(%esi),%eax
     319:	df 00                	fild   (%eax)
     31b:	00 00                	add    %al,(%eax)
     31d:	04 32                	add    $0x32,%al
     31f:	01 df                	add    %ebx,%edi
     321:	02 00                	add    (%eax),%al
     323:	00 02                	add    %al,(%edx)
     325:	23 47 09             	and    0x9(%edi),%eax
     328:	55                   	push   %ebp
     329:	02 00                	add    (%eax),%al
     32b:	00 04 36             	add    %al,(%esi,%esi,1)
     32e:	01 ef                	add    %ebp,%edi
     330:	02 00                	add    (%eax),%al
     332:	00 02                	add    %al,(%edx)
     334:	23 48 09             	and    0x9(%eax),%ecx
     337:	90                   	nop    
     338:	01 00                	add    %eax,(%eax)
     33a:	00 04 3f             	add    %al,(%edi,%edi,1)
     33d:	01 a2 00 00 00 02    	add    %esp,0x2000000(%edx)
     343:	23 4c 09 e3          	and    -0x1d(%ecx,%ecx,1),%ecx
     347:	03 00                	add    (%eax),%eax
     349:	00 04 48             	add    %al,(%eax,%ecx,2)
     34c:	01 c6                	add    %eax,%esi
     34e:	00 00                	add    %al,(%eax)
     350:	00 02                	add    %al,(%edx)
     352:	23 54 09 ea          	and    -0x16(%ecx,%ecx,1),%edx
     356:	03 00                	add    (%eax),%eax
     358:	00 04 49             	add    %al,(%ecx,%ecx,2)
     35b:	01 c6                	add    %eax,%esi
     35d:	00 00                	add    %al,(%eax)
     35f:	00 02                	add    %al,(%edx)
     361:	23 58 09             	and    0x9(%eax),%ebx
     364:	f1                   	icebp  
     365:	03 00                	add    (%eax),%eax
     367:	00 04 4a             	add    %al,(%edx,%ecx,2)
     36a:	01 c6                	add    %eax,%esi
     36c:	00 00                	add    %al,(%eax)
     36e:	00 02                	add    %al,(%edx)
     370:	23 5c 09 f8          	and    -0x8(%ecx,%ecx,1),%ebx
     374:	03 00                	add    (%eax),%eax
     376:	00 04 4b             	add    %al,(%ebx,%ecx,2)
     379:	01 c6                	add    %eax,%esi
     37b:	00 00                	add    %al,(%eax)
     37d:	00 02                	add    %al,(%edx)
     37f:	23 60 09             	and    0x9(%eax),%esp
     382:	ff 03                	incl   (%ebx)
     384:	00 00                	add    %al,(%eax)
     386:	04 4c                	add    $0x4c,%al
     388:	01 25 00 00 00 02    	add    %esp,0x2000000
     38e:	23 64 09 ba          	and    -0x46(%ecx,%ecx,1),%esp
     392:	07                   	pop    %es
     393:	00 00                	add    %al,(%eax)
     395:	04 4e                	add    $0x4e,%al
     397:	01 5a 00             	add    %ebx,0x0(%edx)
     39a:	00 00                	add    %al,(%eax)
     39c:	02 23                	add    (%ebx),%ah
     39e:	68 09 20 04 00       	push   $0x42009
     3a3:	00 04 50             	add    %al,(%eax,%edx,2)
     3a6:	01 f5                	add    %esi,%ebp
     3a8:	02 00                	add    (%eax),%al
     3aa:	00 02                	add    %al,(%edx)
     3ac:	23 6c 00 0a          	and    0xa(%eax,%eax,1),%ebp
     3b0:	bd 02 00 00 04       	mov    $0x4000002,%ebp
     3b5:	b4 08                	mov    $0x8,%ah
     3b7:	a9 01 00 00 0c       	test   $0xc000001,%eax
     3bc:	04 ba                	add    $0xba,%al
     3be:	d3 02                	roll   %cl,(%edx)
     3c0:	00 00                	add    %al,(%eax)
     3c2:	0b ad 03 00 00 04    	or     0x4000003(%ebp),%ebp
     3c8:	bb d3 02 00 00       	mov    $0x2d3,%ebx
     3cd:	02 23                	add    (%ebx),%ah
     3cf:	00 0b                	add    %cl,(%ebx)
     3d1:	20 02                	and    %al,(%edx)
     3d3:	00 00                	add    %al,(%eax)
     3d5:	04 bc                	add    $0xbc,%al
     3d7:	d9 02                	flds   (%edx)
     3d9:	00 00                	add    %al,(%eax)
     3db:	02 23                	add    (%ebx),%ah
     3dd:	04 0b                	add    $0xb,%al
     3df:	35 02 00 00 04       	xor    $0x4000002,%eax
     3e4:	c0 5a 00 00          	rcrb   $0x0,0x0(%edx)
     3e8:	00 02                	add    %al,(%edx)
     3ea:	23 08                	and    (%eax),%ecx
     3ec:	00 07                	add    %al,(%edi)
     3ee:	04 9c                	add    $0x9c,%al
     3f0:	02 00                	add    (%eax),%al
     3f2:	00 07                	add    %al,(%edi)
     3f4:	04 d5                	add    $0xd5,%al
     3f6:	00 00                	add    %al,(%eax)
     3f8:	00 0c ce             	add    %cl,(%esi,%ecx,8)
     3fb:	00 00                	add    %al,(%eax)
     3fd:	00 ef                	add    %ch,%bh
     3ff:	02 00                	add    (%eax),%al
     401:	00 0d ad 00 00 00    	add    %cl,0xad
     407:	00 00                	add    %al,(%eax)
     409:	07                   	pop    %es
     40a:	04 95                	add    $0x95,%al
     40c:	02 00                	add    (%eax),%al
     40e:	00 0c ce             	add    %cl,(%esi,%ecx,8)
     411:	00 00                	add    %al,(%eax)
     413:	00 05 03 00 00 0d    	add    %al,0xd000003
     419:	ad                   	lods   %ds:(%esi),%eax
     41a:	00 00                	add    %al,(%eax)
     41c:	00 27                	add    %ah,(%edi)
     41e:	00 08                	add    %cl,(%eax)
     420:	6e                   	outsb  %ds:(%esi),(%dx)
     421:	02 00                	add    (%eax),%al
     423:	00 08                	add    %cl,(%eax)
     425:	06                   	push   %es
     426:	46                   	inc    %esi
     427:	2e 03 00             	add    %cs:(%eax),%eax
     42a:	00 0b                	add    %cl,(%ebx)
     42c:	a5                   	movsl  %ds:(%esi),%es:(%edi)
     42d:	02 00                	add    (%eax),%al
     42f:	00 06                	add    %al,(%esi)
     431:	47                   	inc    %edi
     432:	b0 00                	mov    $0x0,%al
     434:	00 00                	add    %al,(%eax)
     436:	02 23                	add    (%ebx),%ah
     438:	00 0b                	add    %cl,(%ebx)
     43a:	4e                   	dec    %esi
     43b:	03 00                	add    (%eax),%eax
     43d:	00 06                	add    %al,(%esi)
     43f:	48                   	dec    %eax
     440:	bb 00 00 00 02       	mov    $0x2000000,%ebx
     445:	23 04 00             	and    (%eax,%eax,1),%eax
     448:	02 17                	add    (%edi),%dl
     44a:	03 00                	add    (%eax),%eax
     44c:	00 07                	add    %al,(%edi)
     44e:	37                   	aaa    
     44f:	9b                   	fwait
     450:	00 00                	add    %al,(%eax)
     452:	00 0e                	add    %cl,(%esi)
     454:	80 07 44             	addb   $0x44,(%edi)
     457:	50                   	push   %eax
     458:	03 00                	add    (%eax),%eax
     45a:	00 0b                	add    %cl,(%ebx)
     45c:	df 04 00             	fild   (%eax,%eax,1)
     45f:	00 07                	add    %al,(%edi)
     461:	4b                   	dec    %ebx
     462:	50                   	push   %eax
     463:	03 00                	add    (%eax),%eax
     465:	00 02                	add    %al,(%edx)
     467:	23 00                	and    (%eax),%eax
     469:	00 0c 2e             	add    %cl,(%esi,%ebp,1)
     46c:	03 00                	add    (%eax),%eax
     46e:	00 60 03             	add    %ah,0x3(%eax)
     471:	00 00                	add    %al,(%eax)
     473:	0d ad 00 00 00       	or     $0xad,%eax
     478:	1f                   	pop    %ds
     479:	00 02                	add    %al,(%edx)
     47b:	bd 01 00 00 07       	mov    $0x7000001,%ebp
     480:	4e                   	dec    %esi
     481:	39 03                	cmp    %eax,(%ebx)
     483:	00 00                	add    %al,(%eax)
     485:	02 cb                	add    %bl,%cl
     487:	01 00                	add    %eax,(%eax)
     489:	00 08                	add    %cl,(%eax)
     48b:	32 3e                	xor    (%esi),%bh
     48d:	00 00                	add    %al,(%eax)
     48f:	00 02                	add    %al,(%edx)
     491:	d6                   	(bad)  
     492:	04 00                	add    $0x0,%al
     494:	00 08                	add    %cl,(%eax)
     496:	34 30                	xor    $0x30,%al
     498:	00 00                	add    %al,(%eax)
     49a:	00 0f                	add    %cl,(%edi)
     49c:	02 03                	add    (%ebx),%al
     49e:	00 00                	add    %al,(%eax)
     4a0:	04 0a                	add    $0xa,%al
     4a2:	2b b2 03 00 00 10    	sub    0x10000003(%edx),%esi
     4a8:	6b 01 00             	imul   $0x0,(%ecx),%eax
     4ab:	00 01                	add    %al,(%ecx)
     4ad:	10 31                	adc    %dh,(%ecx)
     4af:	04 00                	add    $0x0,%al
     4b1:	00 02                	add    %al,(%edx)
     4b3:	10 97 04 00 00 03    	adc    %dl,0x3000004(%edi)
     4b9:	10 b4 01 00 00 04 10 	adc    %dh,0x10040000(%ecx,%eax,1)
     4c0:	a0 04 00 00 05       	mov    0x5000004,%al
     4c5:	10 42 03             	adc    %al,0x3(%edx)
     4c8:	00 00                	add    %al,(%eax)
     4ca:	0a 00                	or     (%eax),%al
     4cc:	02 14 04             	add    (%esp,%eax,1),%dl
     4cf:	00 00                	add    %al,(%eax)
     4d1:	09 1d 3e 00 00 00    	or     %ebx,0x3e
     4d7:	08 91 03 00 00 10    	or     %dl,0x10000003(%ecx)
     4dd:	0a 97 e6 03 00 00    	or     0x3e6(%edi),%dl
     4e3:	0b da                	or     %edx,%ebx
     4e5:	02 00                	add    (%eax),%al
     4e7:	00 0a                	add    %cl,(%edx)
     4e9:	98                   	cwtl   
     4ea:	b2 03                	mov    $0x3,%dl
     4ec:	00 00                	add    %al,(%eax)
     4ee:	02 23                	add    (%ebx),%ah
     4f0:	00 0b                	add    %cl,(%ebx)
     4f2:	8f 04 00             	popl   (%eax,%eax,1)
     4f5:	00 0a                	add    %cl,(%edx)
     4f7:	99                   	cltd   
     4f8:	e6 03                	out    %al,$0x3
     4fa:	00 00                	add    %al,(%eax)
     4fc:	02 23                	add    (%ebx),%ah
     4fe:	02 00                	add    (%eax),%al
     500:	0c ce                	or     $0xce,%al
     502:	00 00                	add    %al,(%eax)
     504:	00 f6                	add    %dh,%dh
     506:	03 00                	add    (%eax),%eax
     508:	00 0d ad 00 00 00    	add    %cl,0xad
     50e:	0d 00 02 cc 04       	or     $0x4cc0200,%eax
     513:	00 00                	add    %al,(%eax)
     515:	0b 5d 6b             	or     0x6b(%ebp),%ebx
     518:	03 00                	add    (%eax),%eax
     51a:	00 02                	add    %al,(%edx)
     51c:	07                   	pop    %es
     51d:	01 00                	add    %eax,(%eax)
     51f:	00 0b                	add    %cl,(%ebx)
     521:	89 76 03             	mov    %esi,0x3(%esi)
     524:	00 00                	add    %al,(%eax)
     526:	08 2d 02 00 00 04    	or     %ch,0x4000002
     52c:	0b 8b 27 04 00 00    	or     0x427(%ebx),%ecx
     532:	0b c4                	or     %esp,%eax
     534:	01 00                	add    %eax,(%eax)
     536:	00 0b                	add    %cl,(%ebx)
     538:	8c 01                	mov    %es,(%ecx)
     53a:	04 00                	add    $0x0,%al
     53c:	00 02                	add    %al,(%edx)
     53e:	23 00                	and    (%eax),%eax
     540:	00 08                	add    %cl,(%eax)
     542:	3c 04                	cmp    $0x4,%al
     544:	00 00                	add    %al,(%eax)
     546:	10 0b                	adc    %cl,(%ebx)
     548:	da 6c 04 00          	fisubrl 0x0(%esp,%eax,1)
     54c:	00 0b                	add    %cl,(%ebx)
     54e:	92                   	xchg   %eax,%edx
     54f:	02 00                	add    (%eax),%al
     551:	00 0b                	add    %cl,(%ebx)
     553:	db b2 03 00 00 02    	(bad)  0x2000003(%edx)
     559:	23 00                	and    (%eax),%eax
     55b:	0b d1                	or     %ecx,%edx
     55d:	02 00                	add    (%eax),%al
     55f:	00 0b                	add    %cl,(%ebx)
     561:	dc f6                	fdiv   %st,%st(6)
     563:	03 00                	add    (%eax),%eax
     565:	00 02                	add    %al,(%edx)
     567:	23 02                	and    (%edx),%eax
     569:	0b 2c 02             	or     (%edx,%eax,1),%ebp
     56c:	00 00                	add    %al,(%eax)
     56e:	0b dd                	or     %ebp,%ebx
     570:	0c 04                	or     $0x4,%al
     572:	00 00                	add    %al,(%eax)
     574:	02 23                	add    (%ebx),%ah
     576:	04 0b                	add    $0xb,%al
     578:	98                   	cwtl   
     579:	01 00                	add    %eax,(%eax)
     57b:	00 0b                	add    %cl,(%ebx)
     57d:	e3 6c                	jecxz  5eb <_init-0x804861d>
     57f:	04 00                	add    $0x0,%al
     581:	00 02                	add    %al,(%edx)
     583:	23 08                	and    (%eax),%ecx
     585:	00 0c 37             	add    %cl,(%edi,%esi,1)
     588:	00 00                	add    %al,(%eax)
     58a:	00 7c 04 00          	add    %bh,0x0(%esp,%eax,1)
     58e:	00 0d ad 00 00 00    	add    %cl,0xad
     594:	07                   	pop    %es
     595:	00 08                	add    %cl,(%eax)
     597:	8b 02                	mov    (%edx),%eax
     599:	00 00                	add    %al,(%eax)
     59b:	1c 0c                	sbb    $0xc,%al
     59d:	33 eb                	xor    %ebx,%ebp
     59f:	04 00                	add    $0x0,%al
     5a1:	00 0b                	add    %cl,(%ebx)
     5a3:	29 04 00             	sub    %eax,(%eax,%eax,1)
     5a6:	00 0c 34             	add    %cl,(%esp,%esi,1)
     5a9:	c8 00 00 00          	enter  $0x0,$0x0
     5ad:	02 23                	add    (%ebx),%ah
     5af:	00 0b                	add    %cl,(%ebx)
     5b1:	88 02                	mov    %al,(%edx)
     5b3:	00 00                	add    %al,(%eax)
     5b5:	0c 35                	or     $0x35,%al
     5b7:	c8 00 00 00          	enter  $0x0,$0x0
     5bb:	02 23                	add    (%ebx),%ah
     5bd:	04 0b                	add    $0xb,%al
     5bf:	ac                   	lods   %ds:(%esi),%al
     5c0:	02 00                	add    (%eax),%al
     5c2:	00 0c 36             	add    %cl,(%esi,%esi,1)
     5c5:	7a 00                	jp     5c7 <_init-0x8048641>
     5c7:	00 00                	add    %al,(%eax)
     5c9:	02 23                	add    (%ebx),%ah
     5cb:	08 0b                	or     %cl,(%ebx)
     5cd:	e9 00 00 00 0c       	jmp    c0005d2 <_end+0x3fb2156>
     5d2:	37                   	aaa    
     5d3:	85 00                	test   %eax,(%eax)
     5d5:	00 00                	add    %al,(%eax)
     5d7:	02 23                	add    (%ebx),%ah
     5d9:	0c 0b                	or     $0xb,%al
     5db:	21 03                	and    %eax,(%ebx)
     5dd:	00 00                	add    %al,(%eax)
     5df:	0c 38                	or     $0x38,%al
     5e1:	c8 00 00 00          	enter  $0x0,$0x0
     5e5:	02 23                	add    (%ebx),%ah
     5e7:	10 0b                	adc    %cl,(%ebx)
     5e9:	10 03                	adc    %al,(%ebx)
     5eb:	00 00                	add    %al,(%eax)
     5ed:	0c 39                	or     $0x39,%al
     5ef:	c8 00 00 00          	enter  $0x0,$0x0
     5f3:	02 23                	add    (%ebx),%ah
     5f5:	14 0b                	adc    $0xb,%al
     5f7:	1b 01                	sbb    (%ecx),%eax
     5f9:	00 00                	add    %al,(%eax)
     5fb:	0c 3a                	or     $0x3a,%al
     5fd:	c8 00 00 00          	enter  $0x0,$0x0
     601:	02 23                	add    (%ebx),%ah
     603:	18 00                	sbb    %al,(%eax)
     605:	11 fb                	adc    %edi,%ebx
     607:	04 0d                	add    $0xd,%al
     609:	18 3f                	sbb    %bh,(%edi)
     60b:	05 00 00 0b f1       	add    $0xf10b0000,%eax
     610:	05 00 00 0d 19       	add    $0x190d0000,%eax
     615:	3f                   	aas    
     616:	05 00 00 02 23       	add    $0x23020000,%eax
     61b:	00 0b                	add    %cl,(%ebx)
     61d:	48                   	dec    %eax
     61e:	04 00                	add    $0x0,%al
     620:	00 0d 1a 3f 05 00    	add    %cl,0x53f1a
     626:	00 03                	add    %al,(%ebx)
     628:	23 ff                	and    %edi,%edi
     62a:	01 0b                	add    %ecx,(%ebx)
     62c:	80 01 00             	addb   $0x0,(%ecx)
     62f:	00 0d 1b 3f 05 00    	add    %cl,0x53f1b
     635:	00 03                	add    %al,(%ebx)
     637:	23 fe                	and    %esi,%edi
     639:	03 0b                	add    (%ebx),%ecx
     63b:	f0 00 00             	lock add %al,(%eax)
     63e:	00 0d 1c 3f 05 00    	add    %cl,0x53f1c
     644:	00 03                	add    %al,(%ebx)
     646:	23 fd                	and    %ebp,%edi
     648:	05 0b 7d 02 00       	add    $0x27d0b,%eax
     64d:	00 0d 1d 3f 05 00    	add    %cl,0x53f1d
     653:	00 03                	add    %al,(%ebx)
     655:	23 fc                	and    %esp,%edi
     657:	07                   	pop    %es
     658:	00 0c ce             	add    %cl,(%esi,%ecx,8)
     65b:	00 00                	add    %al,(%eax)
     65d:	00 4f 05             	add    %cl,0x5(%edi)
     660:	00 00                	add    %al,(%eax)
     662:	0d ad 00 00 00       	or     $0xad,%eax
     667:	fe 00                	incb   (%eax)
     669:	02 a1 01 00 00 0d    	add    0xd000001(%ecx),%ah
     66f:	1e                   	push   %ds
     670:	eb 04                	jmp    676 <_init-0x8048592>
     672:	00 00                	add    %al,(%eax)
     674:	12 01                	adc    (%ecx),%al
     676:	80 04 00 00          	addb   $0x0,(%eax,%eax,1)
     67a:	01 df                	add    %ebx,%edi
     67c:	01 c0                	add    %eax,%eax
     67e:	90                   	nop    
     67f:	04 08                	add    $0x8,%al
     681:	2e                   	cs
     682:	91                   	xchg   %eax,%ecx
     683:	04 08                	add    $0x8,%al
     685:	00 00                	add    %al,(%eax)
     687:	00 00                	add    %al,(%eax)
     689:	83 05 00 00 13 19 02 	addl   $0x2,0x19130000
     690:	00 00                	add    %al,(%eax)
     692:	01 de                	add    %ebx,%esi
     694:	5a                   	pop    %edx
     695:	00 00                	add    %al,(%eax)
     697:	00 2c 00             	add    %ch,(%eax,%eax,1)
     69a:	00 00                	add    %al,(%eax)
     69c:	00 14 01             	add    %dl,(%ecx,%eax,1)
     69f:	ec                   	in     (%dx),%al
     6a0:	02 00                	add    (%eax),%al
     6a2:	00 01                	add    %al,(%ecx)
     6a4:	c6                   	(bad)  
     6a5:	5a                   	pop    %edx
     6a6:	00 00                	add    %al,(%eax)
     6a8:	00 30                	add    %dh,(%eax)
     6aa:	91                   	xchg   %eax,%ecx
     6ab:	04 08                	add    $0x8,%al
     6ad:	e2 91                	loop   640 <_init-0x80485c8>
     6af:	04 08                	add    $0x8,%al
     6b1:	62 00                	bound  %eax,(%eax)
     6b3:	00 00                	add    %al,(%eax)
     6b5:	ca 05 00             	lret   $0x5
     6b8:	00 15 9a 03 00 00    	add    %dl,0x39a
     6be:	01 c7                	add    %eax,%edi
     6c0:	27                   	daa    
     6c1:	04 00                	add    $0x0,%al
     6c3:	00 02                	add    %al,(%edx)
     6c5:	91                   	xchg   %eax,%ecx
     6c6:	60                   	pusha  
     6c7:	15 f8 01 00 00       	adc    $0x1f8,%eax
     6cc:	01 c8                	add    %ecx,%eax
     6ce:	25 00 00 00 02       	and    $0x2000000,%eax
     6d3:	75 78                	jne    74d <_init-0x80484bb>
     6d5:	16                   	push   %ss
     6d6:	70 77                	jo     74f <_init-0x80484b9>
     6d8:	00 01                	add    %al,(%ecx)
     6da:	c9                   	leave  
     6db:	ca 05 00             	lret   $0x5
     6de:	00 8e 00 00 00 00    	add    %cl,0x0(%esi)
     6e4:	07                   	pop    %es
     6e5:	04 7c                	add    $0x7c,%al
     6e7:	04 00                	add    $0x0,%al
     6e9:	00 14 01             	add    %dl,(%ecx,%eax,1)
     6ec:	af                   	scas   %es:(%edi),%eax
     6ed:	04 00                	add    $0x0,%al
     6ef:	00 01                	add    %al,(%ecx)
     6f1:	32 5a 00             	xor    0x0(%edx),%bl
     6f4:	00 00                	add    %al,(%eax)
     6f6:	f0 91                	lock xchg %eax,%ecx
     6f8:	04 08                	add    $0x8,%al
     6fa:	ad                   	lods   %ds:(%esi),%eax
     6fb:	96                   	xchg   %eax,%esi
     6fc:	04 08                	add    $0x8,%al
     6fe:	ac                   	lods   %ds:(%esi),%al
     6ff:	00 00                	add    %al,(%eax)
     701:	00 fe                	add    %bh,%dh
     703:	06                   	push   %es
     704:	00 00                	add    %al,(%eax)
     706:	16                   	push   %ss
     707:	78 78                	js     781 <_init-0x8048487>
     709:	00 01                	add    %al,(%ecx)
     70b:	33 5a 00             	xor    0x0(%edx),%ebx
     70e:	00 00                	add    %al,(%eax)
     710:	ef                   	out    %eax,(%dx)
     711:	00 00                	add    %al,(%eax)
     713:	00 17                	add    %dl,(%edi)
     715:	24 01                	and    $0x1,%al
     717:	00 00                	add    %al,(%eax)
     719:	01 33                	add    %esi,(%ebx)
     71b:	5a                   	pop    %edx
     71c:	00 00                	add    %al,(%eax)
     71e:	00 18                	add    %bl,(%eax)
     720:	01 00                	add    %eax,(%eax)
     722:	00 17                	add    %dl,(%edi)
     724:	70 04                	jo     72a <_init-0x80484de>
     726:	00 00                	add    %al,(%eax)
     728:	01 33                	add    %esi,(%ebx)
     72a:	5a                   	pop    %edx
     72b:	00 00                	add    %al,(%eax)
     72d:	00 41 01             	add    %al,0x1(%ecx)
     730:	00 00                	add    %al,(%eax)
     732:	18 c3                	sbb    %al,%bl
     734:	04 00                	add    $0x0,%al
     736:	00 01                	add    %al,(%ecx)
     738:	33 5a 00             	xor    0x0(%edx),%ebx
     73b:	00 00                	add    %al,(%eax)
     73d:	15 e4 02 00 00       	adc    $0x2e4,%eax
     742:	01 34 27             	add    %esi,(%edi)
     745:	04 00                	add    $0x0,%al
     747:	00 02                	add    %al,(%edx)
     749:	91                   	xchg   %eax,%ecx
     74a:	48                   	dec    %eax
     74b:	15 9a 03 00 00       	adc    $0x39a,%eax
     750:	01 35 27 04 00 00    	add    %esi,0x427
     756:	03 91 b8 7f 17 77    	add    0x77177fb8(%ecx),%edx
     75c:	04 00                	add    $0x0,%al
     75e:	00 01                	add    %al,(%ecx)
     760:	36                   	ss
     761:	5a                   	pop    %edx
     762:	00 00                	add    %al,(%eax)
     764:	00 5f 01             	add    %bl,0x1(%edi)
     767:	00 00                	add    %al,(%eax)
     769:	16                   	push   %ss
     76a:	69 00 01 36 5a 00    	imul   $0x5a3601,(%eax),%eax
     770:	00 00                	add    %al,(%eax)
     772:	7f 01                	jg     775 <_init-0x8048493>
     774:	00 00                	add    %al,(%eax)
     776:	19 74 76 00          	sbb    %esi,0x0(%esi,%esi,2)
     77a:	01 37                	add    %esi,(%edi)
     77c:	05 03 00 00 02       	add    $0x2000003,%eax
     781:	91                   	xchg   %eax,%ecx
     782:	58                   	pop    %eax
     783:	15 9d 02 00 00       	adc    $0x29d,%eax
     788:	01 38                	add    %edi,(%eax)
     78a:	60                   	pusha  
     78b:	03 00                	add    (%eax),%eax
     78d:	00 03                	add    %al,(%ebx)
     78f:	91                   	xchg   %eax,%ecx
     790:	b8 7e 15 b3 02       	mov    $0x2b3157e,%eax
     795:	00 00                	add    %al,(%eax)
     797:	01 38                	add    %edi,(%eax)
     799:	60                   	pusha  
     79a:	03 00                	add    (%eax),%eax
     79c:	00 03                	add    %al,(%ebx)
     79e:	91                   	xchg   %eax,%ecx
     79f:	b8 7d 16 70 77       	mov    $0x7770167d,%eax
     7a4:	00 01                	add    %al,(%ecx)
     7a6:	39 ca                	cmp    %ecx,%edx
     7a8:	05 00 00 9f 01       	add    $0x19f0000,%eax
     7ad:	00 00                	add    %al,(%eax)
     7af:	1a 7c 93 04          	sbb    0x4(%ebx,%edx,4),%bh
     7b3:	08 85 93 04 08 bd    	or     %al,-0x42f7fb6d(%ebp)
     7b9:	06                   	push   %es
     7ba:	00 00                	add    %al,(%eax)
     7bc:	16                   	push   %ss
     7bd:	5f                   	pop    %edi
     7be:	5f                   	pop    %edi
     7bf:	76 00                	jbe    7c1 <_init-0x8048447>
     7c1:	01 69 3e             	add    %ebp,0x3e(%ecx)
     7c4:	00 00                	add    %al,(%eax)
     7c6:	00 bd 01 00 00 1b    	add    %bh,0x1b000001(%ebp)
     7cc:	5f                   	pop    %edi
     7cd:	5f                   	pop    %edi
     7ce:	78 00                	js     7d0 <_init-0x8048438>
     7d0:	01 69 3e             	add    %ebp,0x3e(%ecx)
     7d3:	00 00                	add    %al,(%eax)
     7d5:	00 00                	add    %al,(%eax)
     7d7:	1a a5 95 04 08 c7    	sbb    -0x38f7fb6b(%ebp),%ah
     7dd:	95                   	xchg   %eax,%ebp
     7de:	04 08                	add    $0x8,%al
     7e0:	e1 06                	loope  7e8 <_init-0x8048420>
     7e2:	00 00                	add    %al,(%eax)
     7e4:	1b 5f 5f             	sbb    0x5f(%edi),%ebx
     7e7:	69 00 01 a1 30 00    	imul   $0x30a101,(%eax),%eax
     7ed:	00 00                	add    %al,(%eax)
     7ef:	18 26                	sbb    %ah,(%esi)
     7f1:	02 00                	add    (%eax),%al
     7f3:	00 01                	add    %al,(%ecx)
     7f5:	a1 fe 06 00 00       	mov    0x6fe,%eax
     7fa:	00 1c 20             	add    %bl,(%eax)
     7fd:	00 00                	add    %al,(%eax)
     7ff:	00 1b                	add    %bl,(%ebx)
     801:	5f                   	pop    %edi
     802:	5f                   	pop    %edi
     803:	69 00 01 a3 30 00    	imul   $0x30a301,(%eax),%eax
     809:	00 00                	add    %al,(%eax)
     80b:	18 26                	sbb    %ah,(%esi)
     80d:	02 00                	add    (%eax),%al
     80f:	00 01                	add    %al,(%ecx)
     811:	a3 fe 06 00 00       	mov    %eax,0x6fe
     816:	00 00                	add    %al,(%eax)
     818:	07                   	pop    %es
     819:	04 60                	add    $0x60,%al
     81b:	03 00                	add    (%eax),%eax
     81d:	00 1d 48 02 00 00    	add    %bl,0x248
     823:	05 91 d9 02 00       	add    $0x2d991,%eax
     828:	00 01                	add    %al,(%ecx)
     82a:	01 1d 76 02 00 00    	add    %ebx,0x276
     830:	05 92 d9 02 00       	add    $0x2d992,%eax
     835:	00 01                	add    %al,(%ecx)
     837:	01 1e                	add    %ebx,(%esi)
     839:	5b                   	pop    %ebx
     83a:	02 00                	add    (%eax),%al
     83c:	00 01                	add    %al,(%ecx)
     83e:	2b 30                	sub    (%eax),%esi
     840:	00 00                	add    %al,(%eax)
     842:	00 01                	add    %al,(%ecx)
     844:	05 03 20 c4 04       	add    $0x4c42003,%eax
     849:	08 1e                	or     %bl,(%esi)
     84b:	d8 03                	fadds  (%ebx)
     84d:	00 00                	add    %al,(%eax)
     84f:	01 2d 3f 05 00 00    	add    %ebp,0x53f
     855:	01 05 03 40 c5 04    	add    %eax,0x4c54003
     85b:	08 1e                	or     %bl,(%esi)
     85d:	55                   	push   %ebp
     85e:	04 00                	add    $0x0,%al
     860:	00 01                	add    %al,(%ecx)
     862:	2c 3f                	sub    $0x3f,%al
     864:	05 00 00 01 05       	add    $0x5010000,%eax
     869:	03 40 c4             	add    -0x3c(%eax),%eax
     86c:	04 08                	add    $0x8,%al
     86e:	1e                   	push   %ds
     86f:	11 01                	adc    %eax,(%ecx)
     871:	00 00                	add    %al,(%eax)
     873:	01 28                	add    %ebp,(%eax)
     875:	45                   	inc    %ebp
     876:	00 00                	add    %al,(%eax)
     878:	00 01                	add    %al,(%ecx)
     87a:	05 03 68 df 04       	add    $0x4df6803,%eax
     87f:	08 1e                	or     %bl,(%esi)
     881:	14 01                	adc    $0x1,%al
     883:	00 00                	add    %al,(%eax)
     885:	01 29                	add    %ebp,(%ecx)
     887:	78 07                	js     890 <_init-0x8048378>
     889:	00 00                	add    %al,(%eax)
     88b:	01 05 03 6c df 04    	add    %eax,0x4df6c03
     891:	08 07                	or     %al,(%edi)
     893:	04 4f                	add    $0x4f,%al
     895:	05 00 00 1e 2b       	add    $0x2b1e0000,%eax
     89a:	01 00                	add    %eax,(%eax)
     89c:	00 01                	add    %al,(%ecx)
     89e:	2f                   	das    
     89f:	4f                   	dec    %edi
     8a0:	05 00 00 01 05       	add    $0x5010000,%eax
     8a5:	03 80 df 04 08 00    	add    0x804df(%eax),%eax
     8ab:	54                   	push   %esp
     8ac:	08 00                	or     %al,(%eax)
     8ae:	00 02                	add    %al,(%edx)
     8b0:	00 f0                	add    %dh,%al
     8b2:	01 00                	add    %eax,(%eax)
     8b4:	00 04 01             	add    %al,(%ecx,%eax,1)
     8b7:	d4 01                	aam    $0x1
     8b9:	00 00                	add    %al,(%eax)
     8bb:	01 1f                	add    %ebx,(%edi)
     8bd:	05 00 00 56 03       	add    $0x3560000,%eax
     8c2:	00 00                	add    %al,(%eax)
     8c4:	b0 96                	mov    $0x96,%al
     8c6:	04 08                	add    $0x8,%al
     8c8:	f8                   	clc    
     8c9:	a2 04 08 90 02       	mov    %al,0x2900804
     8ce:	00 00                	add    %al,(%eax)
     8d0:	02 47 07             	add    0x7(%edi),%al
     8d3:	00 00                	add    %al,(%eax)
     8d5:	02 d6                	add    %dh,%dl
     8d7:	30 00                	xor    %al,(%eax)
     8d9:	00 00                	add    %al,(%eax)
     8db:	03 04 07             	add    (%edi,%eax,1),%eax
     8de:	5a                   	pop    %edx
     8df:	00 00                	add    %al,(%eax)
     8e1:	00 03                	add    %al,(%ebx)
     8e3:	01 08                	add    %ecx,(%eax)
     8e5:	67 00 00             	addr16 add %al,(%bx,%si)
     8e8:	00 03                	add    %al,(%ebx)
     8ea:	02 07                	add    (%edi),%al
     8ec:	24 00                	and    $0x0,%al
     8ee:	00 00                	add    %al,(%eax)
     8f0:	03 04 07             	add    (%edi,%eax,1),%eax
     8f3:	55                   	push   %ebp
     8f4:	00 00                	add    %al,(%eax)
     8f6:	00 03                	add    %al,(%ebx)
     8f8:	01 06                	add    %eax,(%esi)
     8fa:	69 00 00 00 03 02    	imul   $0x2030000,(%eax),%eax
     900:	05 37 00 00 00       	add    $0x37,%eax
     905:	04 04                	add    $0x4,%al
     907:	05 69 6e 74 00       	add    $0x746e69,%eax
     90c:	03 08                	add    (%eax),%ecx
     90e:	05 ad 00 00 00       	add    $0xad,%eax
     913:	03 08                	add    (%eax),%ecx
     915:	07                   	pop    %es
     916:	50                   	push   %eax
     917:	00 00                	add    %al,(%eax)
     919:	00 02                	add    %al,(%edx)
     91b:	77 01                	ja     91e <_init-0x80482ea>
     91d:	00 00                	add    %al,(%eax)
     91f:	03 38                	add    (%eax),%edi
     921:	61                   	popa   
     922:	00 00                	add    %al,(%eax)
     924:	00 02                	add    %al,(%edx)
     926:	a7                   	cmpsl  %es:(%edi),%ds:(%esi)
     927:	05 00 00 03 89       	add    $0x89030000,%eax
     92c:	45                   	inc    %ebp
     92d:	00 00                	add    %al,(%eax)
     92f:	00 02                	add    %al,(%edx)
     931:	bb 00 00 00 03       	mov    $0x3000000,%ebx
     936:	8d 90 00 00 00 03    	lea    0x3000000(%eax),%edx
     93c:	04 05                	add    $0x5,%al
     93e:	b2 00                	mov    $0x0,%dl
     940:	00 00                	add    %al,(%eax)
     942:	02 b3 03 00 00 03    	add    0x3000003(%ebx),%dh
     948:	8e 6f 00             	mov    0x0(%edi),%gs
     94b:	00 00                	add    %al,(%eax)
     94d:	05 04 07 06 04       	add    $0x4060704,%eax
     952:	07                   	pop    %es
     953:	04 ad                	add    $0xad,%al
     955:	00 00                	add    %al,(%eax)
     957:	00 03                	add    %al,(%ebx)
     959:	01 06                	add    %eax,(%esi)
     95b:	70 00                	jo     95d <_init-0x80482ab>
     95d:	00 00                	add    %al,(%eax)
     95f:	02 cc                	add    %ah,%cl
     961:	02 00                	add    (%eax),%al
     963:	00 04 31             	add    %al,(%ecx,%esi,1)
     966:	bf 00 00 00 08       	mov    $0x8000000,%edi
     96b:	c8 02 00 00          	enter  $0x2,$0x0
     96f:	94                   	xchg   %eax,%esp
     970:	04 2d                	add    $0x2d,%al
     972:	7f 02                	jg     976 <_init-0x8048292>
     974:	00 00                	add    %al,(%eax)
     976:	09 4c 01 00          	or     %ecx,0x0(%ecx,%eax,1)
     97a:	00 05 10 01 5a 00    	add    %al,0x5a0110
     980:	00 00                	add    %al,(%eax)
     982:	02 23                	add    (%ebx),%ah
     984:	00 09                	add    %cl,(%ecx)
     986:	cb                   	lret   
     987:	00 00                	add    %al,(%eax)
     989:	00 05 15 01 a7 00    	add    %al,0xa70115
     98f:	00 00                	add    %al,(%eax)
     991:	02 23                	add    (%ebx),%ah
     993:	04 09                	add    $0x9,%al
     995:	3f                   	aas    
     996:	01 00                	add    %eax,(%eax)
     998:	00 05 16 01 a7 00    	add    %al,0xa70116
     99e:	00 00                	add    %al,(%eax)
     9a0:	02 23                	add    (%ebx),%ah
     9a2:	08 09                	or     %cl,(%ecx)
     9a4:	bd 03 00 00 05       	mov    $0x5000003,%ebp
     9a9:	17                   	pop    %ss
     9aa:	01 a7 00 00 00 02    	add    %esp,0x2000000(%edi)
     9b0:	23 0c 09             	and    (%ecx,%ecx,1),%ecx
     9b3:	b4 04                	mov    $0x4,%ah
     9b5:	00 00                	add    %al,(%eax)
     9b7:	05 18 01 a7 00       	add    $0xa70118,%eax
     9bc:	00 00                	add    %al,(%eax)
     9be:	02 23                	add    (%ebx),%ah
     9c0:	10 09                	adc    %cl,(%ecx)
     9c2:	0b 02                	or     (%edx),%eax
     9c4:	00 00                	add    %al,(%eax)
     9c6:	05 19 01 a7 00       	add    $0xa70119,%eax
     9cb:	00 00                	add    %al,(%eax)
     9cd:	02 23                	add    (%ebx),%ah
     9cf:	14 09                	adc    $0x9,%al
     9d1:	06                   	push   %es
     9d2:	04 00                	add    $0x0,%al
     9d4:	00 05 1a 01 a7 00    	add    %al,0xa7011a
     9da:	00 00                	add    %al,(%eax)
     9dc:	02 23                	add    (%ebx),%ah
     9de:	18 09                	sbb    %cl,(%ecx)
     9e0:	fa                   	cli    
     9e1:	00 00                	add    %al,(%eax)
     9e3:	00 05 1b 01 a7 00    	add    %al,0xa7011b
     9e9:	00 00                	add    %al,(%eax)
     9eb:	02 23                	add    (%ebx),%ah
     9ed:	1c 09                	sbb    $0x9,%al
     9ef:	53                   	push   %ebx
     9f0:	01 00                	add    %eax,(%eax)
     9f2:	00 05 1c 01 a7 00    	add    %al,0xa7011c
     9f8:	00 00                	add    %al,(%eax)
     9fa:	02 23                	add    (%ebx),%ah
     9fc:	20 09                	and    %cl,(%ecx)
     9fe:	3a 02                	cmp    (%edx),%al
     a00:	00 00                	add    %al,(%eax)
     a02:	05 1e 01 a7 00       	add    $0xa7011e,%eax
     a07:	00 00                	add    %al,(%eax)
     a09:	02 23                	add    (%ebx),%ah
     a0b:	24 09                	and    $0x9,%al
     a0d:	60                   	pusha  
     a0e:	04 00                	add    $0x0,%al
     a10:	00 05 1f 01 a7 00    	add    %al,0xa7011f
     a16:	00 00                	add    %al,(%eax)
     a18:	02 23                	add    (%ebx),%ah
     a1a:	28 09                	sub    %cl,(%ecx)
     a1c:	cb                   	lret   
     a1d:	03 00                	add    (%eax),%eax
     a1f:	00 05 20 01 a7 00    	add    %al,0xa70120
     a25:	00 00                	add    %al,(%eax)
     a27:	02 23                	add    (%ebx),%ah
     a29:	2c 09                	sub    $0x9,%al
     a2b:	f9                   	stc    
     a2c:	02 00                	add    (%eax),%al
     a2e:	00 05 22 01 bd 02    	add    %al,0x2bd0122
     a34:	00 00                	add    %al,(%eax)
     a36:	02 23                	add    (%ebx),%ah
     a38:	30 09                	xor    %cl,(%ecx)
     a3a:	d8 00                	fadds  (%eax)
     a3c:	00 00                	add    %al,(%eax)
     a3e:	05 24 01 c3 02       	add    $0x2c30124,%eax
     a43:	00 00                	add    %al,(%eax)
     a45:	02 23                	add    (%ebx),%ah
     a47:	34 09                	xor    $0x9,%al
     a49:	37                   	aaa    
     a4a:	01 00                	add    %eax,(%eax)
     a4c:	00 05 26 01 5a 00    	add    %al,0x5a0126
     a52:	00 00                	add    %al,(%eax)
     a54:	02 23                	add    (%ebx),%ah
     a56:	38 09                	cmp    %cl,(%ecx)
     a58:	66                   	data16
     a59:	02 00                	add    (%eax),%al
     a5b:	00 05 2a 01 5a 00    	add    %al,0x5a012a
     a61:	00 00                	add    %al,(%eax)
     a63:	02 23                	add    (%ebx),%ah
     a65:	3c 09                	cmp    $0x9,%al
     a67:	8c 01                	mov    %es,(%ecx)
     a69:	00 00                	add    %al,(%eax)
     a6b:	05 2c 01 85 00       	add    $0x85012c,%eax
     a70:	00 00                	add    %al,(%eax)
     a72:	02 23                	add    (%ebx),%ah
     a74:	40                   	inc    %eax
     a75:	09 5f 01             	or     %ebx,0x1(%edi)
     a78:	00 00                	add    %al,(%eax)
     a7a:	05 30 01 3e 00       	add    $0x3e0130,%eax
     a7f:	00 00                	add    %al,(%eax)
     a81:	02 23                	add    (%ebx),%ah
     a83:	44                   	inc    %esp
     a84:	09 2a                	or     %ebp,(%edx)
     a86:	03 00                	add    (%eax),%eax
     a88:	00 05 31 01 4c 00    	add    %al,0x4c0131
     a8e:	00 00                	add    %al,(%eax)
     a90:	02 23                	add    (%ebx),%ah
     a92:	46                   	inc    %esi
     a93:	09 df                	or     %ebx,%edi
     a95:	00 00                	add    %al,(%eax)
     a97:	00 05 32 01 c9 02    	add    %al,0x2c90132
     a9d:	00 00                	add    %al,(%eax)
     a9f:	02 23                	add    (%ebx),%ah
     aa1:	47                   	inc    %edi
     aa2:	09 55 02             	or     %edx,0x2(%ebp)
     aa5:	00 00                	add    %al,(%eax)
     aa7:	05 36 01 d9 02       	add    $0x2d90136,%eax
     aac:	00 00                	add    %al,(%eax)
     aae:	02 23                	add    (%ebx),%ah
     ab0:	48                   	dec    %eax
     ab1:	09 90 01 00 00 05    	or     %edx,0x5000001(%eax)
     ab7:	3f                   	aas    
     ab8:	01 97 00 00 00 02    	add    %edx,0x2000000(%edi)
     abe:	23 4c 09 e3          	and    -0x1d(%ecx,%ecx,1),%ecx
     ac2:	03 00                	add    (%eax),%eax
     ac4:	00 05 48 01 a5 00    	add    %al,0xa50148
     aca:	00 00                	add    %al,(%eax)
     acc:	02 23                	add    (%ebx),%ah
     ace:	54                   	push   %esp
     acf:	09 ea                	or     %ebp,%edx
     ad1:	03 00                	add    (%eax),%eax
     ad3:	00 05 49 01 a5 00    	add    %al,0xa50149
     ad9:	00 00                	add    %al,(%eax)
     adb:	02 23                	add    (%ebx),%ah
     add:	58                   	pop    %eax
     ade:	09 f1                	or     %esi,%ecx
     ae0:	03 00                	add    (%eax),%eax
     ae2:	00 05 4a 01 a5 00    	add    %al,0xa5014a
     ae8:	00 00                	add    %al,(%eax)
     aea:	02 23                	add    (%ebx),%ah
     aec:	5c                   	pop    %esp
     aed:	09 f8                	or     %edi,%eax
     aef:	03 00                	add    (%eax),%eax
     af1:	00 05 4b 01 a5 00    	add    %al,0xa5014b
     af7:	00 00                	add    %al,(%eax)
     af9:	02 23                	add    (%ebx),%ah
     afb:	60                   	pusha  
     afc:	09 ff                	or     %edi,%edi
     afe:	03 00                	add    (%eax),%eax
     b00:	00 05 4c 01 25 00    	add    %al,0x25014c
     b06:	00 00                	add    %al,(%eax)
     b08:	02 23                	add    (%ebx),%ah
     b0a:	64 09 ba 07 00 00 05 	or     %edi,%fs:0x5000007(%edx)
     b11:	4e                   	dec    %esi
     b12:	01 5a 00             	add    %ebx,0x0(%edx)
     b15:	00 00                	add    %al,(%eax)
     b17:	02 23                	add    (%ebx),%ah
     b19:	68 09 20 04 00       	push   $0x42009
     b1e:	00 05 50 01 df 02    	add    %al,0x2df0150
     b24:	00 00                	add    %al,(%eax)
     b26:	02 23                	add    (%ebx),%ah
     b28:	6c                   	insb   (%dx),%es:(%edi)
     b29:	00 0a                	add    %cl,(%edx)
     b2b:	bd 02 00 00 05       	mov    $0x5000002,%ebp
     b30:	b4 08                	mov    $0x8,%ah
     b32:	a9 01 00 00 0c       	test   $0xc000001,%eax
     b37:	05 ba bd 02 00       	add    $0x2bdba,%eax
     b3c:	00 0b                	add    %cl,(%ebx)
     b3e:	ad                   	lods   %ds:(%esi),%eax
     b3f:	03 00                	add    (%eax),%eax
     b41:	00 05 bb bd 02 00    	add    %al,0x2bdbb
     b47:	00 02                	add    %al,(%edx)
     b49:	23 00                	and    (%eax),%eax
     b4b:	0b 20                	or     (%eax),%esp
     b4d:	02 00                	add    (%eax),%al
     b4f:	00 05 bc c3 02 00    	add    %al,0x2c3bc
     b55:	00 02                	add    %al,(%edx)
     b57:	23 04 0b             	and    (%ebx,%ecx,1),%eax
     b5a:	35 02 00 00 05       	xor    $0x5000002,%eax
     b5f:	c0 5a 00 00          	rcrb   $0x0,0x0(%edx)
     b63:	00 02                	add    %al,(%edx)
     b65:	23 08                	and    (%eax),%ecx
     b67:	00 07                	add    %al,(%edi)
     b69:	04 86                	add    $0x86,%al
     b6b:	02 00                	add    (%eax),%al
     b6d:	00 07                	add    %al,(%edi)
     b6f:	04 bf                	add    $0xbf,%al
     b71:	00 00                	add    %al,(%eax)
     b73:	00 0c ad 00 00 00 d9 	add    %cl,-0x27000000(,%ebp,4)
     b7a:	02 00                	add    (%eax),%al
     b7c:	00 0d a2 00 00 00    	add    %cl,0xa2
     b82:	00 00                	add    %al,(%eax)
     b84:	07                   	pop    %es
     b85:	04 7f                	add    $0x7f,%al
     b87:	02 00                	add    (%eax),%al
     b89:	00 0c ad 00 00 00 ef 	add    %cl,-0x11000000(,%ebp,4)
     b90:	02 00                	add    (%eax),%al
     b92:	00 0d a2 00 00 00    	add    %cl,0xa2
     b98:	27                   	daa    
     b99:	00 02                	add    %al,(%edx)
     b9b:	cb                   	lret   
     b9c:	01 00                	add    %eax,(%eax)
     b9e:	00 06                	add    %al,(%esi)
     ba0:	32 3e                	xor    (%esi),%bh
     ba2:	00 00                	add    %al,(%eax)
     ba4:	00 02                	add    %al,(%edx)
     ba6:	d6                   	(bad)  
     ba7:	04 00                	add    $0x0,%al
     ba9:	00 06                	add    %al,(%esi)
     bab:	34 30                	xor    $0x30,%al
     bad:	00 00                	add    %al,(%eax)
     baf:	00 02                	add    %al,(%edx)
     bb1:	14 04                	adc    $0x4,%al
     bb3:	00 00                	add    %al,(%eax)
     bb5:	07                   	pop    %es
     bb6:	1d 3e 00 00 00       	sbb    $0x3e,%eax
     bbb:	08 91 03 00 00 10    	or     %dl,0x10000003(%ecx)
     bc1:	08 97 39 03 00 00    	or     %dl,0x339(%edi)
     bc7:	0b da                	or     %edx,%ebx
     bc9:	02 00                	add    (%eax),%al
     bcb:	00 08                	add    %cl,(%eax)
     bcd:	98                   	cwtl   
     bce:	05 03 00 00 02       	add    $0x2000003,%eax
     bd3:	23 00                	and    (%eax),%eax
     bd5:	0b 8f 04 00 00 08    	or     0x8000004(%edi),%ecx
     bdb:	99                   	cltd   
     bdc:	39 03                	cmp    %eax,(%ebx)
     bde:	00 00                	add    %al,(%eax)
     be0:	02 23                	add    (%ebx),%ah
     be2:	02 00                	add    (%eax),%al
     be4:	0c ad                	or     $0xad,%al
     be6:	00 00                	add    %al,(%eax)
     be8:	00 49 03             	add    %cl,0x3(%ecx)
     beb:	00 00                	add    %al,(%eax)
     bed:	0d a2 00 00 00       	or     $0xa2,%eax
     bf2:	0d 00 02 cc 04       	or     $0x4cc0200,%eax
     bf7:	00 00                	add    %al,(%eax)
     bf9:	09 5d ef             	or     %ebx,-0x11(%ebp)
     bfc:	02 00                	add    (%eax),%al
     bfe:	00 02                	add    %al,(%edx)
     c00:	07                   	pop    %es
     c01:	01 00                	add    %eax,(%eax)
     c03:	00 09                	add    %cl,(%ecx)
     c05:	89 fa                	mov    %edi,%edx
     c07:	02 00                	add    (%eax),%al
     c09:	00 08                	add    %cl,(%eax)
     c0b:	2d 02 00 00 04       	sub    $0x4000002,%eax
     c10:	09 8b 7a 03 00 00    	or     %ecx,0x37a(%ebx)
     c16:	0b c4                	or     %esp,%eax
     c18:	01 00                	add    %eax,(%eax)
     c1a:	00 09                	add    %cl,(%ecx)
     c1c:	8c 54 03 00          	mov    %ss,0x0(%ebx,%eax,1)
     c20:	00 02                	add    %al,(%edx)
     c22:	23 00                	and    (%eax),%eax
     c24:	00 08                	add    %cl,(%eax)
     c26:	3c 04                	cmp    $0x4,%al
     c28:	00 00                	add    %al,(%eax)
     c2a:	10 09                	adc    %cl,(%ecx)
     c2c:	da bf 03 00 00 0b    	fidivrl 0xb000003(%edi)
     c32:	92                   	xchg   %eax,%edx
     c33:	02 00                	add    (%eax),%al
     c35:	00 09                	add    %cl,(%ecx)
     c37:	db 05 03 00 00 02    	fildl  0x2000003
     c3d:	23 00                	and    (%eax),%eax
     c3f:	0b d1                	or     %ecx,%edx
     c41:	02 00                	add    (%eax),%al
     c43:	00 09                	add    %cl,(%ecx)
     c45:	dc 49 03             	fmull  0x3(%ecx)
     c48:	00 00                	add    %al,(%eax)
     c4a:	02 23                	add    (%ebx),%ah
     c4c:	02 0b                	add    (%ebx),%cl
     c4e:	2c 02                	sub    $0x2,%al
     c50:	00 00                	add    %al,(%eax)
     c52:	09 dd                	or     %ebx,%ebp
     c54:	5f                   	pop    %edi
     c55:	03 00                	add    (%eax),%eax
     c57:	00 02                	add    %al,(%edx)
     c59:	23 04 0b             	and    (%ebx,%ecx,1),%eax
     c5c:	98                   	cwtl   
     c5d:	01 00                	add    %eax,(%eax)
     c5f:	00 09                	add    %cl,(%ecx)
     c61:	e3 bf                	jecxz  c22 <_init-0x8047fe6>
     c63:	03 00                	add    (%eax),%eax
     c65:	00 02                	add    %al,(%edx)
     c67:	23 08                	and    (%eax),%ecx
     c69:	00 0c 37             	add    %cl,(%edi,%esi,1)
     c6c:	00 00                	add    %al,(%eax)
     c6e:	00 cf                	add    %cl,%bh
     c70:	03 00                	add    (%eax),%eax
     c72:	00 0d a2 00 00 00    	add    %cl,0xa2
     c78:	07                   	pop    %es
     c79:	00 0e                	add    %cl,(%esi)
     c7b:	fc                   	cld    
     c7c:	04 00                	add    $0x0,%al
     c7e:	00 0c 01             	add    %cl,(%ecx,%eax,1)
     c81:	0a 18                	or     (%eax),%bl
     c83:	23 04 00             	and    (%eax,%eax,1),%eax
     c86:	00 0b                	add    %cl,(%ebx)
     c88:	5e                   	pop    %esi
     c89:	05 00 00 0a 1a       	add    $0x1a0a0000,%eax
     c8e:	7a 00                	jp     c90 <_init-0x8047f78>
     c90:	00 00                	add    %al,(%eax)
     c92:	02 23                	add    (%ebx),%ah
     c94:	00 0b                	add    %cl,(%ebx)
     c96:	c1 05 00 00 0a 1b 85 	roll   $0x85,0x1b0a0000
     c9d:	00 00                	add    %al,(%eax)
     c9f:	00 02                	add    %al,(%edx)
     ca1:	23 04 0b             	and    (%ebx,%ecx,1),%eax
     ca4:	16                   	push   %ss
     ca5:	05 00 00 0a 20       	add    $0x200a0000,%eax
     caa:	3e 00 00             	add    %al,%ds:(%eax)
     cad:	00 02                	add    %al,(%edx)
     caf:	23 08                	and    (%eax),%ecx
     cb1:	0b 34 05 00 00 0a 21 	or     0x210a0000(,%eax,1),%esi
     cb8:	37                   	aaa    
     cb9:	00 00                	add    %al,(%eax)
     cbb:	00 02                	add    %al,(%edx)
     cbd:	23 0a                	and    (%edx),%ecx
     cbf:	0b af 05 00 00 0a    	or     0xa000005(%edi),%ebp
     cc5:	22 23                	and    (%ebx),%ah
     cc7:	04 00                	add    $0x0,%al
     cc9:	00 02                	add    %al,(%edx)
     ccb:	23 0b                	and    (%ebx),%ecx
     ccd:	00 0c ad 00 00 00 33 	add    %cl,0x33000000(,%ebp,4)
     cd4:	04 00                	add    $0x0,%al
     cd6:	00 0d a2 00 00 00    	add    %cl,0xa2
     cdc:	ff 00                	incl   (%eax)
     cde:	0f fb 04 0b          	psubq  (%ebx,%ecx,1),%mm0
     ce2:	18 87 04 00 00 0b    	sbb    %al,0xb000004(%edi)
     ce8:	f1                   	icebp  
     ce9:	05 00 00 0b 19       	add    $0x190b0000,%eax
     cee:	87 04 00             	xchg   %eax,(%eax,%eax,1)
     cf1:	00 02                	add    %al,(%edx)
     cf3:	23 00                	and    (%eax),%eax
     cf5:	0b 48 04             	or     0x4(%eax),%ecx
     cf8:	00 00                	add    %al,(%eax)
     cfa:	0b 1a                	or     (%edx),%ebx
     cfc:	87 04 00             	xchg   %eax,(%eax,%eax,1)
     cff:	00 03                	add    %al,(%ebx)
     d01:	23 ff                	and    %edi,%edi
     d03:	01 0b                	add    %ecx,(%ebx)
     d05:	80 01 00             	addb   $0x0,(%ecx)
     d08:	00 0b                	add    %cl,(%ebx)
     d0a:	1b 87 04 00 00 03    	sbb    0x3000004(%edi),%eax
     d10:	23 fe                	and    %esi,%edi
     d12:	03 0b                	add    (%ebx),%ecx
     d14:	f0 00 00             	lock add %al,(%eax)
     d17:	00 0b                	add    %cl,(%ebx)
     d19:	1c 87                	sbb    $0x87,%al
     d1b:	04 00                	add    $0x0,%al
     d1d:	00 03                	add    %al,(%ebx)
     d1f:	23 fd                	and    %ebp,%edi
     d21:	05 0b 7d 02 00       	add    $0x27d0b,%eax
     d26:	00 0b                	add    %cl,(%ebx)
     d28:	1d 87 04 00 00       	sbb    $0x487,%eax
     d2d:	03 23                	add    (%ebx),%esp
     d2f:	fc                   	cld    
     d30:	07                   	pop    %es
     d31:	00 0c ad 00 00 00 97 	add    %cl,-0x69000000(,%ebp,4)
     d38:	04 00                	add    $0x0,%al
     d3a:	00 0d a2 00 00 00    	add    %cl,0xa2
     d40:	fe 00                	incb   (%eax)
     d42:	02 a1 01 00 00 0b    	add    0xb000001(%ecx),%ah
     d48:	1e                   	push   %ds
     d49:	33 04 00             	xor    (%eax,%eax,1),%eax
     d4c:	00 10                	add    %dl,(%eax)
     d4e:	01 4b 05             	add    %ecx,0x5(%ebx)
     d51:	00 00                	add    %al,(%eax)
     d53:	01 03                	add    %eax,(%ebx)
     d55:	01 01                	add    %eax,(%ecx)
     d57:	b0 96                	mov    $0x96,%al
     d59:	04 08                	add    $0x8,%al
     d5b:	be 98 04 08 d0       	mov    $0xd0080498,%esi
     d60:	01 00                	add    %eax,(%eax)
     d62:	00 66 05             	add    %ah,0x5(%esi)
     d65:	00 00                	add    %al,(%eax)
     d67:	11 2a                	adc    %ebp,(%edx)
     d69:	05 00 00 01 02       	add    $0x2010000,%eax
     d6e:	01 a7 00 00 00 fc    	add    %esp,-0x4000000(%edi)
     d74:	01 00                	add    %eax,(%eax)
     d76:	00 11                	add    %dl,(%ecx)
     d78:	24 01                	and    $0x1,%al
     d7a:	00 00                	add    %al,(%eax)
     d7c:	01 02                	add    %eax,(%edx)
     d7e:	01 5a 00             	add    %ebx,0x0(%edx)
     d81:	00 00                	add    %al,(%eax)
     d83:	28 02                	sub    %al,(%edx)
     d85:	00 00                	add    %al,(%eax)
     d87:	11 ee                	adc    %ebp,%esi
     d89:	05 00 00 01 02       	add    $0x2010000,%eax
     d8e:	01 66 05             	add    %esp,0x5(%esi)
     d91:	00 00                	add    %al,(%eax)
     d93:	48                   	dec    %eax
     d94:	02 00                	add    (%eax),%al
     d96:	00 12                	add    %dl,(%edx)
     d98:	c7 05 00 00 01 04 01 	movl   $0x56c01,0x4010000
     d9f:	6c 05 00 
     da2:	00 68 02             	add    %ch,0x2(%eax)
     da5:	00 00                	add    %al,(%eax)
     da7:	13 6e 00             	adc    0x0(%esi),%ebp
     daa:	01 05 01 5a 00 00    	add    %eax,0x5a01
     db0:	00 03                	add    %al,(%ebx)
     db2:	75 98                	jne    d4c <_init-0x8047ebc>
     db4:	6c                   	insb   (%dx),%es:(%edi)
     db5:	12 e4                	adc    %ah,%ah
     db7:	05 00 00 01 05       	add    $0x5010000,%eax
     dbc:	01 5a 00             	add    %ebx,0x0(%edx)
     dbf:	00 00                	add    %al,(%eax)
     dc1:	88 02                	mov    %al,(%edx)
     dc3:	00 00                	add    %al,(%eax)
     dc5:	12 d9                	adc    %cl,%bl
     dc7:	06                   	push   %es
     dc8:	00 00                	add    %al,(%eax)
     dca:	01 06                	add    %eax,(%esi)
     dcc:	01 45 00             	add    %eax,0x0(%ebp)
     dcf:	00 00                	add    %al,(%eax)
     dd1:	aa                   	stos   %al,%es:(%edi)
     dd2:	02 00                	add    (%eax),%al
     dd4:	00 14 69             	add    %dl,(%ecx,%ebp,2)
     dd7:	6e                   	outsb  %ds:(%esi),(%dx)
     dd8:	00 01                	add    %al,(%ecx)
     dda:	07                   	pop    %es
     ddb:	01 78 05             	add    %edi,0x5(%eax)
     dde:	00 00                	add    %al,(%eax)
     de0:	15 b6 05 00 00       	adc    $0x5b6,%eax
     de5:	01 08                	add    %ecx,(%eax)
     de7:	01 87 04 00 00 03    	add    %eax,0x3000004(%edi)
     ded:	91                   	xchg   %eax,%ecx
     dee:	aa                   	stos   %al,%es:(%edi)
     def:	7c 15                	jl     e06 <_init-0x8047e02>
     df1:	d0 05 00 00 01 09    	rolb   0x9010000
     df7:	01 7e 05             	add    %edi,0x5(%esi)
     dfa:	00 00                	add    %al,(%eax)
     dfc:	03 91 aa 6c 15 82    	add    -0x7dea9356(%ecx),%edx
     e02:	05 00 00 01 0a       	add    $0xa010000,%eax
     e07:	01 9f 05 00 00 03    	add    %ebx,0x3000005(%edi)
     e0d:	91                   	xchg   %eax,%ecx
     e0e:	a9 7e 00 07 04       	test   $0x407007e,%eax
     e13:	97                   	xchg   %eax,%edi
     e14:	04 00                	add    $0x0,%al
     e16:	00 07                	add    %al,(%edi)
     e18:	04 72                	add    $0x72,%al
     e1a:	05 00 00 07 04       	add    $0x4070000,%eax
     e1f:	cf                   	iret   
     e20:	03 00                	add    (%eax),%eax
     e22:	00 07                	add    %al,(%edi)
     e24:	04 b4                	add    $0xb4,%al
     e26:	00 00                	add    %al,(%eax)
     e28:	00 0c ad 00 00 00 8f 	add    %cl,-0x71000000(,%ebp,4)
     e2f:	05 00 00 16 a2       	add    $0xa2160000,%eax
     e34:	00 00                	add    %al,(%eax)
     e36:	00 ff                	add    %bh,%bh
     e38:	07                   	pop    %es
     e39:	00 0c ad 00 00 00 9f 	add    %cl,-0x61000000(,%ebp,4)
     e40:	05 00 00 0d a2       	add    $0xa20d0000,%eax
     e45:	00 00                	add    %al,(%eax)
     e47:	00 be 00 17 8f 05    	add    %bh,0x58f1700(%esi)
     e4d:	00 00                	add    %al,(%eax)
     e4f:	18 01                	sbb    %al,(%ecx)
     e51:	64                   	fs
     e52:	05 00 00 01 e8       	add    $0xe8010000,%eax
     e57:	01 c0                	add    %eax,%eax
     e59:	98                   	cwtl   
     e5a:	04 08                	add    $0x8,%al
     e5c:	dc 99 04 08 c8 02    	fcompl 0x2c80804(%ecx)
     e62:	00 00                	add    %al,(%eax)
     e64:	49                   	dec    %ecx
     e65:	06                   	push   %es
     e66:	00 00                	add    %al,(%eax)
     e68:	19 08                	sbb    %ecx,(%eax)
     e6a:	07                   	pop    %es
     e6b:	00 00                	add    %al,(%eax)
     e6d:	01 e7                	add    %esp,%edi
     e6f:	a7                   	cmpsl  %es:(%edi),%ds:(%esi)
     e70:	00 00                	add    %al,(%eax)
     e72:	00 f4                	add    %dh,%ah
     e74:	02 00                	add    (%eax),%al
     e76:	00 19                	add    %bl,(%ecx)
     e78:	67 05 00 00 01 e7    	addr16 add $0xe7010000,%eax
     e7e:	a7                   	cmpsl  %es:(%edi),%ds:(%esi)
     e7f:	00 00                	add    %al,(%eax)
     e81:	00 1f                	add    %bl,(%edi)
     e83:	03 00                	add    (%eax),%eax
     e85:	00 1a                	add    %bl,(%edx)
     e87:	b6 05                	mov    $0x5,%dh
     e89:	00 00                	add    %al,(%eax)
     e8b:	01 e9                	add    %ebp,%ecx
     e8d:	49                   	dec    %ecx
     e8e:	06                   	push   %es
     e8f:	00 00                	add    %al,(%eax)
     e91:	03 91 ba 7f 1a 96    	add    -0x69e58046(%ecx),%edx
     e97:	05 00 00 01 ea       	add    $0xea010000,%eax
     e9c:	49                   	dec    %ecx
     e9d:	06                   	push   %es
     e9e:	00 00                	add    %al,(%eax)
     ea0:	03 91 88 7f 1b e4    	add    -0x1be48078(%ecx),%edx
     ea6:	05 00 00 01 eb       	add    $0xeb010000,%eax
     eab:	30 00                	xor    %al,(%eax)
     ead:	00 00                	add    %al,(%eax)
     eaf:	4b                   	dec    %ebx
     eb0:	03 00                	add    (%eax),%eax
     eb2:	00 1c 29             	add    %bl,(%ecx,%ebp,1)
     eb5:	99                   	cltd   
     eb6:	04 08                	add    $0x8,%al
     eb8:	30 99 04 08 1d f3    	xor    %bl,-0xce2f7fc(%ecx)
     ebe:	04 00                	add    $0x0,%al
     ec0:	00 01                	add    %al,(%ecx)
     ec2:	fc                   	cld    
     ec3:	25 00 00 00 1d       	and    $0x1d000000,%eax
     ec8:	0d 05 00 00 01       	or     $0x1000005,%eax
     ecd:	fc                   	cld    
     ece:	25 00 00 00 1c       	and    $0x1c000000,%eax
     ed3:	29 99 04 08 30 99    	sub    %ebx,-0x66cff7fc(%ecx)
     ed9:	04 08                	add    $0x8,%al
     edb:	1d a2 05 00 00       	sbb    $0x5a2,%eax
     ee0:	01 fc                	add    %edi,%esp
     ee2:	59                   	pop    %ecx
     ee3:	06                   	push   %es
     ee4:	00 00                	add    %al,(%eax)
     ee6:	1d 79 05 00 00       	sbb    $0x579,%eax
     eeb:	01 fc                	add    %edi,%esp
     eed:	5a                   	pop    %edx
     eee:	00 00                	add    %al,(%eax)
     ef0:	00 00                	add    %al,(%eax)
     ef2:	00 00                	add    %al,(%eax)
     ef4:	0c ad                	or     $0xad,%al
     ef6:	00 00                	add    %al,(%eax)
     ef8:	00 59 06             	add    %bl,0x6(%ecx)
     efb:	00 00                	add    %al,(%eax)
     efd:	0d a2 00 00 00       	or     $0xa2,%eax
     f02:	31 00                	xor    %eax,(%eax)
     f04:	07                   	pop    %es
     f05:	04 5f                	add    $0x5f,%al
     f07:	06                   	push   %es
     f08:	00 00                	add    %al,(%eax)
     f0a:	17                   	pop    %ss
     f0b:	37                   	aaa    
     f0c:	00 00                	add    %al,(%eax)
     f0e:	00 1e                	add    %bl,(%esi)
     f10:	01 3b                	add    %edi,(%ebx)
     f12:	05 00 00 01 26       	add    $0x26010000,%eax
     f17:	01 5a 00             	add    %ebx,0x0(%edx)
     f1a:	00 00                	add    %al,(%eax)
     f1c:	e0 99                	loopne eb7 <_init-0x8047d51>
     f1e:	04 08                	add    $0x8,%al
     f20:	f8                   	clc    
     f21:	a2 04 08 69 03       	mov    %al,0x3690804
     f26:	00 00                	add    %al,(%eax)
     f28:	c9                   	leave  
     f29:	07                   	pop    %es
     f2a:	00 00                	add    %al,(%eax)
     f2c:	19 24 01             	sbb    %esp,(%ecx,%eax,1)
     f2f:	00 00                	add    %al,(%eax)
     f31:	01 25 5a 00 00 00    	add    %esp,0x5a
     f37:	95                   	xchg   %eax,%ebp
     f38:	03 00                	add    (%eax),%eax
     f3a:	00 1f                	add    %bl,(%edi)
     f3c:	69 6e 00 01 27 78 05 	imul   $0x5782701,0x0(%esi),%ebp
     f43:	00 00                	add    %al,(%eax)
     f45:	15 04 00 00 1a       	adc    $0x1a000004,%eax
     f4a:	70 05                	jo     f51 <_init-0x8047cb7>
     f4c:	00 00                	add    %al,(%eax)
     f4e:	01 28                	add    %ebp,(%eax)
     f50:	c9                   	leave  
     f51:	07                   	pop    %es
     f52:	00 00                	add    %al,(%eax)
     f54:	04 91                	add    $0x91,%al
     f56:	a7                   	cmpsl  %es:(%edi),%ds:(%esi)
     f57:	bd 7f 1f 70 74       	mov    $0x74701f7f,%ebp
     f5c:	72 00                	jb     f5e <_init-0x8047caa>
     f5e:	01 28                	add    %ebp,(%eax)
     f60:	a7                   	cmpsl  %es:(%edi),%ds:(%esi)
     f61:	00 00                	add    %al,(%eax)
     f63:	00 54 04 00          	add    %dl,0x0(%esp,%eax,1)
     f67:	00 1b                	add    %bl,(%ebx)
     f69:	df 05 00 00 01 28    	fild   0x28010000
     f6f:	a7                   	cmpsl  %es:(%edi),%ds:(%esi)
     f70:	00 00                	add    %al,(%eax)
     f72:	00 a7 04 00 00 1b    	add    %ah,0x1b000004(%edi)
     f78:	8c 05 00 00 01 28    	mov    %es,0x28010000
     f7e:	a7                   	cmpsl  %es:(%edi),%ds:(%esi)
     f7f:	00 00                	add    %al,(%eax)
     f81:	00 e6                	add    %ah,%dh
     f83:	04 00                	add    $0x0,%al
     f85:	00 1b                	add    %bl,(%ebx)
     f87:	da 05 00 00 01 28    	fiaddl 0x28010000
     f8d:	a7                   	cmpsl  %es:(%edi),%ds:(%esi)
     f8e:	00 00                	add    %al,(%eax)
     f90:	00 04 05 00 00 1a b6 	add    %al,-0x49e60000(,%eax,1)
     f97:	05 00 00 01 29       	add    $0x29010000,%eax
     f9c:	c9                   	leave  
     f9d:	07                   	pop    %es
     f9e:	00 00                	add    %al,(%eax)
     fa0:	04 91                	add    $0x91,%al
     fa2:	a7                   	cmpsl  %es:(%edi),%ds:(%esi)
     fa3:	fd                   	std    
     fa4:	7e 1a                	jle    fc0 <_init-0x8047c48>
     fa6:	67 05 00 00 01 29    	addr16 add $0x29010000,%eax
     fac:	49                   	dec    %ecx
     fad:	06                   	push   %es
     fae:	00 00                	add    %al,(%eax)
     fb0:	03 91 a6 7f 1a 08    	add    0x81a7fa6(%ecx),%edx
     fb6:	07                   	pop    %es
     fb7:	00 00                	add    %al,(%eax)
     fb9:	01 2a                	add    %ebp,(%edx)
     fbb:	87 04 00             	xchg   %eax,(%eax,%eax,1)
     fbe:	00 03                	add    %al,(%ebx)
     fc0:	91                   	xchg   %eax,%ecx
     fc1:	a7                   	cmpsl  %es:(%edi),%ds:(%esi)
     fc2:	7d 1b                	jge    fdf <_init-0x8047c29>
     fc4:	e4 05                	in     $0x5,%al
     fc6:	00 00                	add    %al,(%eax)
     fc8:	01 2b                	add    %ebp,(%ebx)
     fca:	30 00                	xor    %al,(%eax)
     fcc:	00 00                	add    %al,(%eax)
     fce:	44                   	inc    %esp
     fcf:	05 00 00 1b e9       	add    $0xe91b0000,%eax
     fd4:	05 00 00 01 2b       	add    $0x2b010000,%eax
     fd9:	30 00                	xor    %al,(%eax)
     fdb:	00 00                	add    %al,(%eax)
     fdd:	83 05 00 00 1b c3 04 	addl   $0x4,0xc31b0000
     fe4:	00 00                	add    %al,(%eax)
     fe6:	01 2c 5a             	add    %ebp,(%edx,%ebx,2)
     fe9:	00 00                	add    %al,(%eax)
     feb:	00 d1                	add    %dl,%cl
     fed:	05 00 00 20 74       	add    $0x74200000,%eax
     ff2:	6e                   	outsb  %ds:(%esi),(%dx)
     ff3:	6f                   	outsl  %ds:(%esi),(%dx)
     ff4:	00 01                	add    %al,(%ecx)
     ff6:	2d 5a 00 00 00       	sub    $0x5a,%eax
     ffb:	21 73 61             	and    %esi,0x61(%ebx)
     ffe:	00 01                	add    %al,(%ecx)
    1000:	2e 7a 03             	jp,pn  1006 <_init-0x8047c02>
    1003:	00 00                	add    %al,(%eax)
    1005:	02 91 58 1a f6 05    	add    0x5f61a58(%ecx),%dl
    100b:	00 00                	add    %al,(%eax)
    100d:	01 2f                	add    %ebp,(%edi)
    100f:	5a                   	pop    %edx
    1010:	00 00                	add    %al,(%eax)
    1012:	00 02                	add    %al,(%edx)
    1014:	75 70                	jne    1086 <_init-0x8047b82>
    1016:	1b ee                	sbb    %esi,%ebp
    1018:	05 00 00 01 30       	add    $0x30010000,%eax
    101d:	66 05 00 00          	add    $0x0,%ax
    1021:	ef                   	out    %eax,(%dx)
    1022:	05 00 00 1d 03       	add    $0x31d0000,%eax
    1027:	05 00 00 01 31       	add    $0x31010000,%eax
    102c:	a7                   	cmpsl  %es:(%edi),%ds:(%esi)
    102d:	00 00                	add    %al,(%eax)
    102f:	00 22                	add    %ah,(%edx)
    1031:	ea 04 00 00 01 b7 2f 	ljmp   $0x2fb7,$0x1000004
    1038:	9b                   	fwait
    1039:	04 08                	add    $0x8,%al
    103b:	23 38                	and    (%eax),%edi
    103d:	00 00                	add    %al,(%eax)
    103f:	00 1d f3 04 00 00    	add    %bl,0x4f3
    1045:	01 43 25             	add    %eax,0x25(%ebx)
    1048:	00 00                	add    %al,(%eax)
    104a:	00 1d 0d 05 00 00    	add    %bl,0x50d
    1050:	01 43 25             	add    %eax,0x25(%ebx)
    1053:	00 00                	add    %al,(%eax)
    1055:	00 23                	add    %ah,(%ebx)
    1057:	50                   	push   %eax
    1058:	00 00                	add    %al,(%eax)
    105a:	00 1d a2 05 00 00    	add    %bl,0x5a2
    1060:	01 43 59             	add    %eax,0x59(%ebx)
    1063:	06                   	push   %es
    1064:	00 00                	add    %al,(%eax)
    1066:	1d 79 05 00 00       	sbb    $0x579,%eax
    106b:	01 43 5a             	add    %eax,0x5a(%ebx)
    106e:	00 00                	add    %al,(%eax)
    1070:	00 00                	add    %al,(%eax)
    1072:	00 00                	add    %al,(%eax)
    1074:	0c ad                	or     $0xad,%al
    1076:	00 00                	add    %al,(%eax)
    1078:	00 da                	add    %bl,%dl
    107a:	07                   	pop    %es
    107b:	00 00                	add    %al,(%eax)
    107d:	16                   	push   %ss
    107e:	a2 00 00 00 ff       	mov    %al,0xff000000
    1083:	1f                   	pop    %ds
    1084:	00 24 48             	add    %ah,(%eax,%ecx,2)
    1087:	02 00                	add    (%eax),%al
    1089:	00 04 91             	add    %al,(%ecx,%edx,4)
    108c:	c3                   	ret    
    108d:	02 00                	add    (%eax),%al
    108f:	00 01                	add    %al,(%ecx)
    1091:	01 24 76             	add    %esp,(%esi,%esi,2)
    1094:	02 00                	add    (%eax),%al
    1096:	00 04 92             	add    %al,(%edx,%edx,4)
    1099:	c3                   	ret    
    109a:	02 00                	add    (%eax),%al
    109c:	00 01                	add    %al,(%ecx)
    109e:	01 24 d8             	add    %esp,(%eax,%ebx,8)
    10a1:	03 00                	add    (%eax),%eax
    10a3:	00 0b                	add    %cl,(%ebx)
    10a5:	2e 87 04 00          	xchg   %eax,%cs:(%eax,%eax,1)
    10a9:	00 01                	add    %al,(%ecx)
    10ab:	01 24 11             	add    %esp,(%ecx,%edx,1)
    10ae:	01 00                	add    %eax,(%eax)
    10b0:	00 0b                	add    %cl,(%ebx)
    10b2:	30 45 00             	xor    %al,0x0(%ebp)
    10b5:	00 00                	add    %al,(%eax)
    10b7:	01 01                	add    %eax,(%ecx)
    10b9:	24 14                	and    $0x14,%al
    10bb:	01 00                	add    %eax,(%eax)
    10bd:	00 0b                	add    %cl,(%ebx)
    10bf:	31 66 05             	xor    %esp,0x5(%esi)
    10c2:	00 00                	add    %al,(%eax)
    10c4:	01 01                	add    %eax,(%ecx)
    10c6:	24 2b                	and    $0x2b,%al
    10c8:	01 00                	add    %eax,(%eax)
    10ca:	00 0b                	add    %cl,(%ebx)
    10cc:	32 97 04 00 00 01    	xor    0x1000004(%edi),%dl
    10d2:	01 0c ad 00 00 00 44 	add    %ecx,0x44000000(,%ebp,4)
    10d9:	08 00                	or     %al,(%eax)
    10db:	00 0d a2 00 00 00    	add    %cl,0xa2
    10e1:	1f                   	pop    %ds
    10e2:	0d a2 00 00 00       	or     $0xa2,%eax
    10e7:	01 0d a2 00 00 00    	add    %ecx,0xa2
    10ed:	63 00                	arpl   %ax,(%eax)
    10ef:	25 53 05 00 00       	and    $0x553,%eax
    10f4:	01 27                	add    %esp,(%edi)
    10f6:	01 28                	add    %ebp,(%eax)
    10f8:	08 00                	or     %al,(%eax)
    10fa:	00 01                	add    %al,(%ecx)
    10fc:	05 03 40 c6 04       	add    $0x4c64003,%eax
    1101:	08 00                	or     %al,(%eax)
    1103:	ed                   	in     (%dx),%eax
    1104:	09 00                	or     %eax,(%eax)
    1106:	00 02                	add    %al,(%edx)
    1108:	00 ea                	add    %ch,%dl
    110a:	03 00                	add    (%eax),%eax
    110c:	00 04 01             	add    %al,(%ecx,%eax,1)
    110f:	d4 01                	aam    $0x1
    1111:	00 00                	add    %al,(%eax)
    1113:	01 5b 07             	add    %ebx,0x7(%ebx)
    1116:	00 00                	add    %al,(%eax)
    1118:	56                   	push   %esi
    1119:	03 00                	add    (%eax),%eax
    111b:	00 00                	add    %al,(%eax)
    111d:	a3 04 08 17 ab       	mov    %eax,0xab170804
    1122:	04 08                	add    $0x8,%al
    1124:	d7                   	xlat   %ds:(%ebx)
    1125:	04 00                	add    $0x0,%al
    1127:	00 02                	add    %al,(%edx)
    1129:	47                   	inc    %edi
    112a:	07                   	pop    %es
    112b:	00 00                	add    %al,(%eax)
    112d:	04 d6                	add    $0xd6,%al
    112f:	30 00                	xor    %al,(%eax)
    1131:	00 00                	add    %al,(%eax)
    1133:	03 04 07             	add    (%edi,%eax,1),%eax
    1136:	5a                   	pop    %edx
    1137:	00 00                	add    %al,(%eax)
    1139:	00 03                	add    %al,(%ebx)
    113b:	01 08                	add    %ecx,(%eax)
    113d:	67 00 00             	addr16 add %al,(%bx,%si)
    1140:	00 03                	add    %al,(%ebx)
    1142:	02 07                	add    (%edi),%al
    1144:	24 00                	and    $0x0,%al
    1146:	00 00                	add    %al,(%eax)
    1148:	03 04 07             	add    (%edi,%eax,1),%eax
    114b:	55                   	push   %ebp
    114c:	00 00                	add    %al,(%eax)
    114e:	00 03                	add    %al,(%ebx)
    1150:	01 06                	add    %eax,(%esi)
    1152:	69 00 00 00 03 02    	imul   $0x2030000,(%eax),%eax
    1158:	05 37 00 00 00       	add    $0x37,%eax
    115d:	04 04                	add    $0x4,%al
    115f:	05 69 6e 74 00       	add    $0x746e69,%eax
    1164:	03 08                	add    (%eax),%ecx
    1166:	05 ad 00 00 00       	add    $0xad,%eax
    116b:	03 08                	add    (%eax),%ecx
    116d:	07                   	pop    %es
    116e:	50                   	push   %eax
    116f:	00 00                	add    %al,(%eax)
    1171:	00 02                	add    %al,(%edx)
    1173:	77 01                	ja     1176 <_init-0x8047a92>
    1175:	00 00                	add    %al,(%eax)
    1177:	05 38 61 00 00       	add    $0x6138,%eax
    117c:	00 02                	add    %al,(%edx)
    117e:	06                   	push   %es
    117f:	06                   	push   %es
    1180:	00 00                	add    %al,(%eax)
    1182:	05 39 68 00 00       	add    $0x6839,%eax
    1187:	00 02                	add    %al,(%edx)
    1189:	22 07                	and    (%edi),%al
    118b:	00 00                	add    %al,(%eax)
    118d:	05 86 7a 00 00       	add    $0x7a86,%eax
    1192:	00 02                	add    %al,(%edx)
    1194:	a5                   	movsl  %ds:(%esi),%es:(%edi)
    1195:	03 00                	add    (%eax),%eax
    1197:	00 05 87 30 00 00    	add    %al,0x3087
    119d:	00 02                	add    %al,(%edx)
    119f:	c3                   	ret    
    11a0:	00 00                	add    %al,(%eax)
    11a2:	00 05 88 30 00 00    	add    %al,0x3088
    11a8:	00 02                	add    %al,(%edx)
    11aa:	a7                   	cmpsl  %es:(%edi),%ds:(%esi)
    11ab:	05 00 00 05 89       	add    $0x89050000,%eax
    11b0:	45                   	inc    %ebp
    11b1:	00 00                	add    %al,(%eax)
    11b3:	00 02                	add    %al,(%edx)
    11b5:	46                   	inc    %esi
    11b6:	06                   	push   %es
    11b7:	00 00                	add    %al,(%eax)
    11b9:	05 8b 30 00 00       	add    $0x308b,%eax
    11be:	00 02                	add    %al,(%edx)
    11c0:	e6 06                	out    %al,$0x6
    11c2:	00 00                	add    %al,(%eax)
    11c4:	05 8c 30 00 00       	add    $0x308c,%eax
    11c9:	00 02                	add    %al,(%edx)
    11cb:	bb 00 00 00 05       	mov    $0x5000000,%ebx
    11d0:	8d                   	lea    (bad),%edx
    11d1:	d2 00                	rolb   %cl,(%eax)
    11d3:	00 00                	add    %al,(%eax)
    11d5:	03 04 05 b2 00 00 00 	add    0xb2(,%eax,1),%eax
    11dc:	02 b3 03 00 00 05    	add    0x5000003(%ebx),%dh
    11e2:	8e 6f 00             	mov    0x0(%edi),%gs
    11e5:	00 00                	add    %al,(%eax)
    11e7:	05 04 07 02 39       	add    $0x39020704,%eax
    11ec:	03 00                	add    (%eax),%eax
    11ee:	00 05 95 d2 00 00    	add    %al,0xd295
    11f4:	00 06                	add    %al,(%esi)
    11f6:	04 02                	add    $0x2,%al
    11f8:	42                   	inc    %edx
    11f9:	07                   	pop    %es
    11fa:	00 00                	add    %al,(%eax)
    11fc:	05 a4 d2 00 00       	add    $0xd2a4,%eax
    1201:	00 02                	add    %al,(%edx)
    1203:	63 06                	arpl   %ax,(%esi)
    1205:	00 00                	add    %al,(%eax)
    1207:	05 a9 d2 00 00       	add    $0xd2a9,%eax
    120c:	00 07                	add    %al,(%edi)
    120e:	04 10                	add    $0x10,%al
    1210:	01 00                	add    %eax,(%eax)
    1212:	00 03                	add    %al,(%ebx)
    1214:	01 06                	add    %eax,(%esi)
    1216:	70 00                	jo     1218 <_init-0x80479f0>
    1218:	00 00                	add    %al,(%eax)
    121a:	02 cc                	add    %ah,%cl
    121c:	02 00                	add    (%eax),%al
    121e:	00 06                	add    %al,(%esi)
    1220:	31 22                	xor    %esp,(%edx)
    1222:	01 00                	add    %eax,(%eax)
    1224:	00 08                	add    %cl,(%eax)
    1226:	c8 02 00 00          	enter  $0x2,$0x0
    122a:	94                   	xchg   %eax,%esp
    122b:	06                   	push   %es
    122c:	2d e2 02 00 00       	sub    $0x2e2,%eax
    1231:	09 4c 01 00          	or     %ecx,0x0(%ecx,%eax,1)
    1235:	00 07                	add    %al,(%edi)
    1237:	10 01                	adc    %al,(%ecx)
    1239:	5a                   	pop    %edx
    123a:	00 00                	add    %al,(%eax)
    123c:	00 02                	add    %al,(%edx)
    123e:	23 00                	and    (%eax),%eax
    1240:	09 cb                	or     %ecx,%ebx
    1242:	00 00                	add    %al,(%eax)
    1244:	00 07                	add    %al,(%edi)
    1246:	15 01 0a 01 00       	adc    $0x10a01,%eax
    124b:	00 02                	add    %al,(%edx)
    124d:	23 04 09             	and    (%ecx,%ecx,1),%eax
    1250:	3f                   	aas    
    1251:	01 00                	add    %eax,(%eax)
    1253:	00 07                	add    %al,(%edi)
    1255:	16                   	push   %ss
    1256:	01 0a                	add    %ecx,(%edx)
    1258:	01 00                	add    %eax,(%eax)
    125a:	00 02                	add    %al,(%edx)
    125c:	23 08                	and    (%eax),%ecx
    125e:	09 bd 03 00 00 07    	or     %edi,0x7000003(%ebp)
    1264:	17                   	pop    %ss
    1265:	01 0a                	add    %ecx,(%edx)
    1267:	01 00                	add    %eax,(%eax)
    1269:	00 02                	add    %al,(%edx)
    126b:	23 0c 09             	and    (%ecx,%ecx,1),%ecx
    126e:	b4 04                	mov    $0x4,%ah
    1270:	00 00                	add    %al,(%eax)
    1272:	07                   	pop    %es
    1273:	18 01                	sbb    %al,(%ecx)
    1275:	0a 01                	or     (%ecx),%al
    1277:	00 00                	add    %al,(%eax)
    1279:	02 23                	add    (%ebx),%ah
    127b:	10 09                	adc    %cl,(%ecx)
    127d:	0b 02                	or     (%edx),%eax
    127f:	00 00                	add    %al,(%eax)
    1281:	07                   	pop    %es
    1282:	19 01                	sbb    %eax,(%ecx)
    1284:	0a 01                	or     (%ecx),%al
    1286:	00 00                	add    %al,(%eax)
    1288:	02 23                	add    (%ebx),%ah
    128a:	14 09                	adc    $0x9,%al
    128c:	06                   	push   %es
    128d:	04 00                	add    $0x0,%al
    128f:	00 07                	add    %al,(%edi)
    1291:	1a 01                	sbb    (%ecx),%al
    1293:	0a 01                	or     (%ecx),%al
    1295:	00 00                	add    %al,(%eax)
    1297:	02 23                	add    (%ebx),%ah
    1299:	18 09                	sbb    %cl,(%ecx)
    129b:	fa                   	cli    
    129c:	00 00                	add    %al,(%eax)
    129e:	00 07                	add    %al,(%edi)
    12a0:	1b 01                	sbb    (%ecx),%eax
    12a2:	0a 01                	or     (%ecx),%al
    12a4:	00 00                	add    %al,(%eax)
    12a6:	02 23                	add    (%ebx),%ah
    12a8:	1c 09                	sbb    $0x9,%al
    12aa:	53                   	push   %ebx
    12ab:	01 00                	add    %eax,(%eax)
    12ad:	00 07                	add    %al,(%edi)
    12af:	1c 01                	sbb    $0x1,%al
    12b1:	0a 01                	or     (%ecx),%al
    12b3:	00 00                	add    %al,(%eax)
    12b5:	02 23                	add    (%ebx),%ah
    12b7:	20 09                	and    %cl,(%ecx)
    12b9:	3a 02                	cmp    (%edx),%al
    12bb:	00 00                	add    %al,(%eax)
    12bd:	07                   	pop    %es
    12be:	1e                   	push   %ds
    12bf:	01 0a                	add    %ecx,(%edx)
    12c1:	01 00                	add    %eax,(%eax)
    12c3:	00 02                	add    %al,(%edx)
    12c5:	23 24 09             	and    (%ecx,%ecx,1),%esp
    12c8:	60                   	pusha  
    12c9:	04 00                	add    $0x0,%al
    12cb:	00 07                	add    %al,(%edi)
    12cd:	1f                   	pop    %ds
    12ce:	01 0a                	add    %ecx,(%edx)
    12d0:	01 00                	add    %eax,(%eax)
    12d2:	00 02                	add    %al,(%edx)
    12d4:	23 28                	and    (%eax),%ebp
    12d6:	09 cb                	or     %ecx,%ebx
    12d8:	03 00                	add    (%eax),%eax
    12da:	00 07                	add    %al,(%edi)
    12dc:	20 01                	and    %al,(%ecx)
    12de:	0a 01                	or     (%ecx),%al
    12e0:	00 00                	add    %al,(%eax)
    12e2:	02 23                	add    (%ebx),%ah
    12e4:	2c 09                	sub    $0x9,%al
    12e6:	f9                   	stc    
    12e7:	02 00                	add    (%eax),%al
    12e9:	00 07                	add    %al,(%edi)
    12eb:	22 01                	and    (%ecx),%al
    12ed:	35 03 00 00 02       	xor    $0x2000003,%eax
    12f2:	23 30                	and    (%eax),%esi
    12f4:	09 d8                	or     %ebx,%eax
    12f6:	00 00                	add    %al,(%eax)
    12f8:	00 07                	add    %al,(%edi)
    12fa:	24 01                	and    $0x1,%al
    12fc:	3b 03                	cmp    (%ebx),%eax
    12fe:	00 00                	add    %al,(%eax)
    1300:	02 23                	add    (%ebx),%ah
    1302:	34 09                	xor    $0x9,%al
    1304:	37                   	aaa    
    1305:	01 00                	add    %eax,(%eax)
    1307:	00 07                	add    %al,(%edi)
    1309:	26 01 5a 00          	add    %ebx,%es:0x0(%edx)
    130d:	00 00                	add    %al,(%eax)
    130f:	02 23                	add    (%ebx),%ah
    1311:	38 09                	cmp    %cl,(%ecx)
    1313:	66                   	data16
    1314:	02 00                	add    (%eax),%al
    1316:	00 07                	add    %al,(%edi)
    1318:	2a 01                	sub    (%ecx),%al
    131a:	5a                   	pop    %edx
    131b:	00 00                	add    %al,(%eax)
    131d:	00 02                	add    %al,(%edx)
    131f:	23 3c 09             	and    (%ecx,%ecx,1),%edi
    1322:	8c 01                	mov    %es,(%ecx)
    1324:	00 00                	add    %al,(%eax)
    1326:	07                   	pop    %es
    1327:	2c 01                	sub    $0x1,%al
    1329:	c7 00 00 00 02 23    	movl   $0x23020000,(%eax)
    132f:	40                   	inc    %eax
    1330:	09 5f 01             	or     %ebx,0x1(%edi)
    1333:	00 00                	add    %al,(%eax)
    1335:	07                   	pop    %es
    1336:	30 01                	xor    %al,(%ecx)
    1338:	3e 00 00             	add    %al,%ds:(%eax)
    133b:	00 02                	add    %al,(%edx)
    133d:	23 44 09 2a          	and    0x2a(%ecx,%ecx,1),%eax
    1341:	03 00                	add    (%eax),%eax
    1343:	00 07                	add    %al,(%edi)
    1345:	31 01                	xor    %eax,(%ecx)
    1347:	4c                   	dec    %esp
    1348:	00 00                	add    %al,(%eax)
    134a:	00 02                	add    %al,(%edx)
    134c:	23 46 09             	and    0x9(%esi),%eax
    134f:	df 00                	fild   (%eax)
    1351:	00 00                	add    %al,(%eax)
    1353:	07                   	pop    %es
    1354:	32 01                	xor    (%ecx),%al
    1356:	41                   	inc    %ecx
    1357:	03 00                	add    (%eax),%eax
    1359:	00 02                	add    %al,(%edx)
    135b:	23 47 09             	and    0x9(%edi),%eax
    135e:	55                   	push   %ebp
    135f:	02 00                	add    (%eax),%al
    1361:	00 07                	add    %al,(%edi)
    1363:	36 01 51 03          	add    %edx,%ss:0x3(%ecx)
    1367:	00 00                	add    %al,(%eax)
    1369:	02 23                	add    (%ebx),%ah
    136b:	48                   	dec    %eax
    136c:	09 90 01 00 00 07    	or     %edx,0x7000001(%eax)
    1372:	3f                   	aas    
    1373:	01 d9                	add    %ebx,%ecx
    1375:	00 00                	add    %al,(%eax)
    1377:	00 02                	add    %al,(%edx)
    1379:	23 4c 09 e3          	and    -0x1d(%ecx,%ecx,1),%ecx
    137d:	03 00                	add    (%eax),%eax
    137f:	00 07                	add    %al,(%edi)
    1381:	48                   	dec    %eax
    1382:	01 f2                	add    %esi,%edx
    1384:	00 00                	add    %al,(%eax)
    1386:	00 02                	add    %al,(%edx)
    1388:	23 54 09 ea          	and    -0x16(%ecx,%ecx,1),%edx
    138c:	03 00                	add    (%eax),%eax
    138e:	00 07                	add    %al,(%edi)
    1390:	49                   	dec    %ecx
    1391:	01 f2                	add    %esi,%edx
    1393:	00 00                	add    %al,(%eax)
    1395:	00 02                	add    %al,(%edx)
    1397:	23 58 09             	and    0x9(%eax),%ebx
    139a:	f1                   	icebp  
    139b:	03 00                	add    (%eax),%eax
    139d:	00 07                	add    %al,(%edi)
    139f:	4a                   	dec    %edx
    13a0:	01 f2                	add    %esi,%edx
    13a2:	00 00                	add    %al,(%eax)
    13a4:	00 02                	add    %al,(%edx)
    13a6:	23 5c 09 f8          	and    -0x8(%ecx,%ecx,1),%ebx
    13aa:	03 00                	add    (%eax),%eax
    13ac:	00 07                	add    %al,(%edi)
    13ae:	4b                   	dec    %ebx
    13af:	01 f2                	add    %esi,%edx
    13b1:	00 00                	add    %al,(%eax)
    13b3:	00 02                	add    %al,(%edx)
    13b5:	23 60 09             	and    0x9(%eax),%esp
    13b8:	ff 03                	incl   (%ebx)
    13ba:	00 00                	add    %al,(%eax)
    13bc:	07                   	pop    %es
    13bd:	4c                   	dec    %esp
    13be:	01 25 00 00 00 02    	add    %esp,0x2000000
    13c4:	23 64 09 ba          	and    -0x46(%ecx,%ecx,1),%esp
    13c8:	07                   	pop    %es
    13c9:	00 00                	add    %al,(%eax)
    13cb:	07                   	pop    %es
    13cc:	4e                   	dec    %esi
    13cd:	01 5a 00             	add    %ebx,0x0(%edx)
    13d0:	00 00                	add    %al,(%eax)
    13d2:	02 23                	add    (%ebx),%ah
    13d4:	68 09 20 04 00       	push   $0x42009
    13d9:	00 07                	add    %al,(%edi)
    13db:	50                   	push   %eax
    13dc:	01 57 03             	add    %edx,0x3(%edi)
    13df:	00 00                	add    %al,(%eax)
    13e1:	02 23                	add    (%ebx),%ah
    13e3:	6c                   	insb   (%dx),%es:(%edi)
    13e4:	00 02                	add    %al,(%edx)
    13e6:	2a 07                	sub    (%edi),%al
    13e8:	00 00                	add    %al,(%eax)
    13ea:	08 2b                	or     %ch,(%ebx)
    13ec:	ed                   	in     (%dx),%eax
    13ed:	02 00                	add    (%eax),%al
    13ef:	00 0a                	add    %cl,(%edx)
    13f1:	04 8b                	add    $0x8b,%al
    13f3:	06                   	push   %es
    13f4:	00 00                	add    %al,(%eax)
    13f6:	10 01                	adc    %al,(%ecx)
    13f8:	00 00                	add    %al,(%eax)
    13fa:	0b bd 02 00 00 07    	or     0x7000002(%ebp),%edi
    1400:	b4 08                	mov    $0x8,%ah
    1402:	a9 01 00 00 0c       	test   $0xc000001,%eax
    1407:	07                   	pop    %es
    1408:	ba 35 03 00 00       	mov    $0x335,%edx
    140d:	0c ad                	or     $0xad,%al
    140f:	03 00                	add    (%eax),%eax
    1411:	00 07                	add    %al,(%edi)
    1413:	bb 35 03 00 00       	mov    $0x335,%ebx
    1418:	02 23                	add    (%ebx),%ah
    141a:	00 0c 20             	add    %cl,(%eax)
    141d:	02 00                	add    (%eax),%al
    141f:	00 07                	add    %al,(%edi)
    1421:	bc 3b 03 00 00       	mov    $0x33b,%esp
    1426:	02 23                	add    (%ebx),%ah
    1428:	04 0c                	add    $0xc,%al
    142a:	35 02 00 00 07       	xor    $0x7000002,%eax
    142f:	c0 5a 00 00          	rcrb   $0x0,0x0(%edx)
    1433:	00 02                	add    %al,(%edx)
    1435:	23 08                	and    (%eax),%ecx
    1437:	00 07                	add    %al,(%edi)
    1439:	04 fe                	add    $0xfe,%al
    143b:	02 00                	add    (%eax),%al
    143d:	00 07                	add    %al,(%edi)
    143f:	04 22                	add    $0x22,%al
    1441:	01 00                	add    %eax,(%eax)
    1443:	00 0d 10 01 00 00    	add    %cl,0x110
    1449:	51                   	push   %ecx
    144a:	03 00                	add    (%eax),%eax
    144c:	00 0e                	add    %cl,(%esi)
    144e:	e4 00                	in     $0x0,%al
    1450:	00 00                	add    %al,(%eax)
    1452:	00 00                	add    %al,(%eax)
    1454:	07                   	pop    %es
    1455:	04 f7                	add    $0xf7,%al
    1457:	02 00                	add    (%eax),%al
    1459:	00 0d 10 01 00 00    	add    %cl,0x110
    145f:	67 03 00             	addr16 add (%bx,%si),%eax
    1462:	00 0e                	add    %cl,(%esi)
    1464:	e4 00                	in     $0x0,%al
    1466:	00 00                	add    %al,(%eax)
    1468:	27                   	daa    
    1469:	00 07                	add    %al,(%edi)
    146b:	04 6d                	add    $0x6d,%al
    146d:	03 00                	add    (%eax),%eax
    146f:	00 0f                	add    %cl,(%edi)
    1471:	10 01                	adc    %al,(%ecx)
    1473:	00 00                	add    %al,(%eax)
    1475:	02 3b                	add    (%ebx),%bh
    1477:	03 00                	add    (%eax),%eax
    1479:	00 09                	add    %cl,(%ecx)
    147b:	4d                   	dec    %ebp
    147c:	e7 00                	out    %eax,$0x0
    147e:	00 00                	add    %al,(%eax)
    1480:	08 84 07 00 00 08 09 	or     %al,0x9080000(%edi,%eax,1)
    1487:	7a a6                	jp     142f <_init-0x80477d9>
    1489:	03 00                	add    (%eax),%eax
    148b:	00 0c a5 02 00 00 09 	add    %cl,0x9000002
    1492:	7b e7                	jnp    147b <_init-0x804778d>
    1494:	00 00                	add    %al,(%eax)
    1496:	00 02                	add    %al,(%edx)
    1498:	23 00                	and    (%eax),%eax
    149a:	0c 1a                	or     $0x1a,%al
    149c:	07                   	pop    %es
    149d:	00 00                	add    %al,(%eax)
    149f:	09 7c d2 00          	or     %edi,0x0(%edx,%edx,8)
    14a3:	00 00                	add    %al,(%eax)
    14a5:	02 23                	add    (%ebx),%ah
    14a7:	04 00                	add    $0x0,%al
    14a9:	08 3a                	or     %bh,(%edx)
    14ab:	06                   	push   %es
    14ac:	00 00                	add    %al,(%eax)
    14ae:	58                   	pop    %eax
    14af:	0a 2c a1             	or     (%ecx),%ch
    14b2:	04 00                	add    $0x0,%al
    14b4:	00 0c cf             	add    %cl,(%edi,%ecx,8)
    14b7:	07                   	pop    %es
    14b8:	00 00                	add    %al,(%eax)
    14ba:	0a 2d 85 00 00 00    	or     0x85,%ch
    14c0:	02 23                	add    (%ebx),%ah
    14c2:	00 0c e3             	add    %cl,(%ebx)
    14c5:	03 00                	add    (%eax),%eax
    14c7:	00 0a                	add    %cl,(%edx)
    14c9:	2f                   	das    
    14ca:	3e 00 00             	add    %al,%ds:(%eax)
    14cd:	00 02                	add    %al,(%edx)
    14cf:	23 08                	and    (%eax),%ecx
    14d1:	0c 3f                	or     $0x3f,%al
    14d3:	06                   	push   %es
    14d4:	00 00                	add    %al,(%eax)
    14d6:	0a 32                	or     (%edx),%dh
    14d8:	a6                   	cmpsb  %es:(%edi),%ds:(%esi)
    14d9:	00 00                	add    %al,(%eax)
    14db:	00 02                	add    %al,(%edx)
    14dd:	23 0c 0c             	and    (%esp,%ecx,1),%ecx
    14e0:	b8 07 00 00 0a       	mov    $0xa000007,%eax
    14e5:	37                   	aaa    
    14e6:	b1 00                	mov    $0x0,%cl
    14e8:	00 00                	add    %al,(%eax)
    14ea:	02 23                	add    (%ebx),%ah
    14ec:	10 0c 6b             	adc    %cl,(%ebx,%ebp,2)
    14ef:	07                   	pop    %es
    14f0:	00 00                	add    %al,(%eax)
    14f2:	0a 38                	or     (%eax),%bh
    14f4:	bc 00 00 00 02       	mov    $0x2000000,%esp
    14f9:	23 14 0c             	and    (%esp,%ecx,1),%edx
    14fc:	c9                   	leave  
    14fd:	06                   	push   %es
    14fe:	00 00                	add    %al,(%eax)
    1500:	0a 3d 90 00 00 00    	or     0x90,%bh
    1506:	02 23                	add    (%ebx),%ah
    1508:	18 0c c0             	sbb    %cl,(%eax,%eax,8)
    150b:	07                   	pop    %es
    150c:	00 00                	add    %al,(%eax)
    150e:	0a 3e                	or     (%esi),%bh
    1510:	9b                   	fwait
    1511:	00 00                	add    %al,(%eax)
    1513:	00 02                	add    %al,(%edx)
    1515:	23 1c 0c             	and    (%esp,%ecx,1),%ebx
    1518:	a0 07 00 00 0a       	mov    0xa000007,%al
    151d:	42                   	inc    %edx
    151e:	85 00                	test   %eax,(%eax)
    1520:	00 00                	add    %al,(%eax)
    1522:	02 23                	add    (%ebx),%ah
    1524:	20 0c ea             	and    %cl,(%edx,%ebp,8)
    1527:	03 00                	add    (%eax),%eax
    1529:	00 0a                	add    %cl,(%edx)
    152b:	44                   	inc    %esp
    152c:	3e 00 00             	add    %al,%ds:(%eax)
    152f:	00 02                	add    %al,(%edx)
    1531:	23 28                	and    (%eax),%ebp
    1533:	0c fd                	or     $0xfd,%al
    1535:	06                   	push   %es
    1536:	00 00                	add    %al,(%eax)
    1538:	0a 47 c7             	or     -0x39(%edi),%al
    153b:	00 00                	add    %al,(%eax)
    153d:	00 02                	add    %al,(%edx)
    153f:	23 2c 0c             	and    (%esp,%ecx,1),%ebp
    1542:	79 07                	jns    154b <_init-0x80476bd>
    1544:	00 00                	add    %al,(%eax)
    1546:	0a 4b f4             	or     -0xc(%ebx),%cl
    1549:	00 00                	add    %al,(%eax)
    154b:	00 02                	add    %al,(%edx)
    154d:	23 30                	and    (%eax),%esi
    154f:	0c b2                	or     $0xb2,%al
    1551:	06                   	push   %es
    1552:	00 00                	add    %al,(%eax)
    1554:	0a 4d ff             	or     -0x1(%ebp),%cl
    1557:	00 00                	add    %al,(%eax)
    1559:	00 02                	add    %al,(%edx)
    155b:	23 34 0c             	and    (%esp,%ecx,1),%esi
    155e:	c7 07 00 00 0a 58    	movl   $0x580a0000,(%edi)
    1564:	7d 03                	jge    1569 <_init-0x804769f>
    1566:	00 00                	add    %al,(%eax)
    1568:	02 23                	add    (%ebx),%ah
    156a:	38 0c de             	cmp    %cl,(%esi,%ebx,8)
    156d:	07                   	pop    %es
    156e:	00 00                	add    %al,(%eax)
    1570:	0a 59 7d             	or     0x7d(%ecx),%bl
    1573:	03 00                	add    (%eax),%eax
    1575:	00 02                	add    %al,(%edx)
    1577:	23 40 0c             	and    0xc(%eax),%eax
    157a:	fe 05 00 00 0a 5a    	incb   0x5a0a0000
    1580:	7d 03                	jge    1585 <_init-0x8047683>
    1582:	00 00                	add    %al,(%eax)
    1584:	02 23                	add    (%ebx),%ah
    1586:	48                   	dec    %eax
    1587:	0c 4f                	or     $0x4f,%al
    1589:	06                   	push   %es
    158a:	00 00                	add    %al,(%eax)
    158c:	0a 6a 45             	or     0x45(%edx),%ch
    158f:	00 00                	add    %al,(%eax)
    1591:	00 02                	add    %al,(%edx)
    1593:	23 50 0c             	and    0xc(%eax),%edx
    1596:	59                   	pop    %ecx
    1597:	06                   	push   %es
    1598:	00 00                	add    %al,(%eax)
    159a:	0a 6b 45             	or     0x45(%ebx),%ch
    159d:	00 00                	add    %al,(%eax)
    159f:	00 02                	add    %al,(%edx)
    15a1:	23 54 00 02          	and    0x2(%eax,%eax,1),%edx
    15a5:	31 07                	xor    %eax,(%edi)
    15a7:	00 00                	add    %al,(%eax)
    15a9:	08 69 e2             	or     %ch,-0x1e(%ecx)
    15ac:	02 00                	add    (%eax),%al
    15ae:	00 10                	add    %dl,(%eax)
    15b0:	fb                   	sti    
    15b1:	04 0b                	add    $0xb,%al
    15b3:	18 00                	sbb    %al,(%eax)
    15b5:	05 00 00 0c f1       	add    $0xf10c0000,%eax
    15ba:	05 00 00 0b 19       	add    $0x190b0000,%eax
    15bf:	00 05 00 00 02 23    	add    %al,0x23020000
    15c5:	00 0c 48             	add    %cl,(%eax,%ecx,2)
    15c8:	04 00                	add    $0x0,%al
    15ca:	00 0b                	add    %cl,(%ebx)
    15cc:	1a 00                	sbb    (%eax),%al
    15ce:	05 00 00 03 23       	add    $0x23030000,%eax
    15d3:	ff 01                	incl   (%ecx)
    15d5:	0c 80                	or     $0x80,%al
    15d7:	01 00                	add    %eax,(%eax)
    15d9:	00 0b                	add    %cl,(%ebx)
    15db:	1b 00                	sbb    (%eax),%eax
    15dd:	05 00 00 03 23       	add    $0x23030000,%eax
    15e2:	fe 03                	incb   (%ebx)
    15e4:	0c f0                	or     $0xf0,%al
    15e6:	00 00                	add    %al,(%eax)
    15e8:	00 0b                	add    %cl,(%ebx)
    15ea:	1c 00                	sbb    $0x0,%al
    15ec:	05 00 00 03 23       	add    $0x23030000,%eax
    15f1:	fd                   	std    
    15f2:	05 0c 7d 02 00       	add    $0x27d0c,%eax
    15f7:	00 0b                	add    %cl,(%ebx)
    15f9:	1d 00 05 00 00       	sbb    $0x500,%eax
    15fe:	03 23                	add    (%ebx),%esp
    1600:	fc                   	cld    
    1601:	07                   	pop    %es
    1602:	00 0d 10 01 00 00    	add    %cl,0x110
    1608:	10 05 00 00 0e e4    	adc    %al,0xe40e0000
    160e:	00 00                	add    %al,(%eax)
    1610:	00 fe                	add    %bh,%dh
    1612:	00 02                	add    %al,(%edx)
    1614:	a1 01 00 00 0b       	mov    0xb000001,%eax
    1619:	1e                   	push   %ds
    161a:	ac                   	lods   %ds:(%esi),%al
    161b:	04 00                	add    $0x0,%al
    161d:	00 11                	add    %dl,(%ecx)
    161f:	01 3a                	add    %edi,(%edx)
    1621:	06                   	push   %es
    1622:	00 00                	add    %al,(%eax)
    1624:	02 c4                	add    %ah,%al
    1626:	01 01                	add    %eax,(%ecx)
    1628:	5a                   	pop    %edx
    1629:	00 00                	add    %al,(%eax)
    162b:	00 03                	add    %al,(%ebx)
    162d:	47                   	inc    %edi
    162e:	05 00 00 12 11       	add    $0x11120000,%eax
    1633:	06                   	push   %es
    1634:	00 00                	add    %al,(%eax)
    1636:	02 c3                	add    %bl,%al
    1638:	01 67 03             	add    %esp,0x3(%edi)
    163b:	00 00                	add    %al,(%eax)
    163d:	12 ae 07 00 00 02    	adc    0x2000007(%esi),%ch
    1643:	c3                   	ret    
    1644:	01 47 05             	add    %eax,0x5(%edi)
    1647:	00 00                	add    %al,(%eax)
    1649:	00 07                	add    %al,(%edi)
    164b:	04 a6                	add    $0xa6,%al
    164d:	03 00                	add    (%eax),%eax
    164f:	00 13                	add    %dl,(%ebx)
    1651:	01 4c 6f 67          	add    %ecx,0x67(%edi,%ebp,2)
    1655:	00 01                	add    %al,(%ecx)
    1657:	d1 01                	roll   (%ecx)
    1659:	00 a3 04 08 1d a4    	add    %ah,-0x5be2f7fc(%ebx)
    165f:	04 08                	add    $0x8,%al
    1661:	2f                   	das    
    1662:	06                   	push   %es
    1663:	00 00                	add    %al,(%eax)
    1665:	f8                   	clc    
    1666:	05 00 00 14 8d       	add    $0x8d140000,%eax
    166b:	07                   	pop    %es
    166c:	00 00                	add    %al,(%eax)
    166e:	01 d0                	add    %edx,%eax
    1670:	0a 01                	or     (%ecx),%al
    1672:	00 00                	add    %al,(%eax)
    1674:	5b                   	pop    %ebx
    1675:	06                   	push   %es
    1676:	00 00                	add    %al,(%eax)
    1678:	15 16 d6 07 00       	adc    $0x7d616,%eax
    167d:	00 01                	add    %al,(%ecx)
    167f:	d2 f8                	sar    %cl,%al
    1681:	05 00 00 7b 06       	add    $0x67b0000,%eax
    1686:	00 00                	add    %al,(%eax)
    1688:	17                   	pop    %ss
    1689:	74 00                	je     168b <_init-0x804757d>
    168b:	01 d3                	add    %edx,%ebx
    168d:	72 03                	jb     1692 <_init-0x8047576>
    168f:	00 00                	add    %al,(%eax)
    1691:	02 91 68 18 74 6d    	add    0x6d741868(%ecx),%dl
    1697:	00 01                	add    %al,(%ecx)
    1699:	19 74 6d 00          	sbb    %esi,0x0(%ebp,%ebp,2)
    169d:	01 d4                	add    %edx,%esp
    169f:	fe 05 00 00 1a c4    	incb   0xc41a0000
    16a5:	06                   	push   %es
    16a6:	00 00                	add    %al,(%eax)
    16a8:	01 d5                	add    %edx,%ebp
    16aa:	04 06                	add    $0x6,%al
    16ac:	00 00                	add    %al,(%eax)
    16ae:	03 91 86 7d 1a a8    	add    -0x57e5827a(%ecx),%edx
    16b4:	07                   	pop    %es
    16b5:	00 00                	add    %al,(%eax)
    16b7:	01 d5                	add    %edx,%ebp
    16b9:	04 06                	add    $0x6,%al
    16bb:	00 00                	add    %al,(%eax)
    16bd:	03 91 be 7b 1a 05    	add    0x51a7bbe(%ecx),%edx
    16c3:	07                   	pop    %es
    16c4:	00 00                	add    %al,(%eax)
    16c6:	01 d6                	add    %edx,%esi
    16c8:	00 05 00 00 03 91    	add    %al,0x91030000
    16ce:	bf 79 1a 11 07       	mov    $0x7111a79,%edi
    16d3:	00 00                	add    %al,(%eax)
    16d5:	01 d7                	add    %edx,%edi
    16d7:	14 06                	adc    $0x6,%al
    16d9:	00 00                	add    %al,(%eax)
    16db:	02 91 4e 1a 9d 06    	add    0x69d1a4e(%ecx),%dl
    16e1:	00 00                	add    %al,(%eax)
    16e3:	01 d8                	add    %ebx,%eax
    16e5:	24 06                	and    $0x6,%al
    16e7:	00 00                	add    %al,(%eax)
    16e9:	03 91 ce 7e 17 61    	add    0x61177ece(%ecx),%edx
    16ef:	70 00                	jo     16f1 <_init-0x8047517>
    16f1:	01 d9                	add    %ebx,%ecx
    16f3:	a1 04 00 00 02       	mov    0x2000004,%eax
    16f8:	75 6c                	jne    1766 <_init-0x80474a2>
    16fa:	00 07                	add    %al,(%edi)
    16fc:	04 17                	add    $0x17,%al
    16fe:	01 00                	add    %eax,(%eax)
    1700:	00 07                	add    %al,(%edi)
    1702:	04 91                	add    $0x91,%al
    1704:	05 00 00 0d 10       	add    $0x100d0000,%eax
    1709:	01 00                	add    %eax,(%eax)
    170b:	00 14 06             	add    %dl,(%esi,%eax,1)
    170e:	00 00                	add    %al,(%eax)
    1710:	0e                   	push   %cs
    1711:	e4 00                	in     $0x0,%al
    1713:	00 00                	add    %al,(%eax)
    1715:	c7 00 0d 10 01 00    	movl   $0x1100d,(%eax)
    171b:	00 24 06             	add    %ah,(%esi,%eax,1)
    171e:	00 00                	add    %al,(%eax)
    1720:	0e                   	push   %cs
    1721:	e4 00                	in     $0x0,%al
    1723:	00 00                	add    %al,(%eax)
    1725:	15 00 0d 10 01       	adc    $0x1100d00,%eax
    172a:	00 00                	add    %al,(%eax)
    172c:	34 06                	xor    $0x6,%al
    172e:	00 00                	add    %al,(%eax)
    1730:	0e                   	push   %cs
    1731:	e4 00                	in     $0x0,%al
    1733:	00 00                	add    %al,(%eax)
    1735:	7f 00                	jg     1737 <_init-0x80474d1>
    1737:	1b 01                	sbb    (%ecx),%eax
    1739:	62 07                	bound  %eax,(%edi)
    173b:	00 00                	add    %al,(%eax)
    173d:	01 c3                	add    %eax,%ebx
    173f:	01 5a 00             	add    %ebx,0x0(%edx)
    1742:	00 00                	add    %al,(%eax)
    1744:	20 a4 04 08 84 a4 04 	and    %ah,0x4a48408(%esp,%eax,1)
    174b:	08 99 06 00 00 a9    	or     %bl,-0x56fffffa(%ecx)
    1751:	06                   	push   %es
    1752:	00 00                	add    %al,(%eax)
    1754:	14 bc                	adc    $0xbc,%al
    1756:	06                   	push   %es
    1757:	00 00                	add    %al,(%eax)
    1759:	01 c2                	add    %eax,%edx
    175b:	0a 01                	or     (%ecx),%al
    175d:	00 00                	add    %al,(%eax)
    175f:	c5 06                	lds    (%esi),%eax
    1761:	00 00                	add    %al,(%eax)
    1763:	14 9a                	adc    $0x9a,%al
    1765:	05 00 00 01 c2       	add    $0xc2010000,%eax
    176a:	0a 01                	or     (%ecx),%al
    176c:	00 00                	add    %al,(%eax)
    176e:	07                   	pop    %es
    176f:	07                   	pop    %es
    1770:	00 00                	add    %al,(%eax)
    1772:	1c e4                	sbb    $0xe4,%al
    1774:	05 00 00 01 c4       	add    $0xc4010000,%eax
    1779:	5a                   	pop    %edx
    177a:	00 00                	add    %al,(%eax)
    177c:	00 1d 40 a4 04 08    	add    %bl,0x804a440
    1782:	43                   	inc    %ebx
    1783:	a4                   	movsb  %ds:(%esi),%es:(%edi)
    1784:	04 08                	add    $0x8,%al
    1786:	93                   	xchg   %eax,%ebx
    1787:	06                   	push   %es
    1788:	00 00                	add    %al,(%eax)
    178a:	1c 55                	sbb    $0x55,%al
    178c:	07                   	pop    %es
    178d:	00 00                	add    %al,(%eax)
    178f:	01 c9                	add    %ecx,%ecx
    1791:	5a                   	pop    %edx
    1792:	00 00                	add    %al,(%eax)
    1794:	00 00                	add    %al,(%eax)
    1796:	1e                   	push   %ds
    1797:	43                   	inc    %ebx
    1798:	a4                   	movsb  %ds:(%esi),%es:(%edi)
    1799:	04 08                	add    $0x8,%al
    179b:	46                   	inc    %esi
    179c:	a4                   	movsb  %ds:(%esi),%es:(%edi)
    179d:	04 08                	add    $0x8,%al
    179f:	1c 55                	sbb    $0x55,%al
    17a1:	07                   	pop    %es
    17a2:	00 00                	add    %al,(%eax)
    17a4:	01 c9                	add    %ecx,%ecx
    17a6:	5a                   	pop    %edx
    17a7:	00 00                	add    %al,(%eax)
    17a9:	00 00                	add    %al,(%eax)
    17ab:	00 1f                	add    %bl,(%edi)
    17ad:	01 de                	add    %ebx,%esi
    17af:	06                   	push   %es
    17b0:	00 00                	add    %al,(%eax)
    17b2:	01 8a 01 90 a4 04    	add    %ecx,0x4a49001(%edx)
    17b8:	08 d4                	or     %dl,%ah
    17ba:	a4                   	movsb  %ds:(%esi),%es:(%edi)
    17bb:	04 08                	add    $0x8,%al
    17bd:	49                   	dec    %ecx
    17be:	07                   	pop    %es
    17bf:	00 00                	add    %al,(%eax)
    17c1:	f2 06                	repnz push %es
    17c3:	00 00                	add    %al,(%eax)
    17c5:	14 ba                	adc    $0xba,%al
    17c7:	05 00 00 01 89       	add    $0x89010000,%eax
    17cc:	0a 01                	or     (%ecx),%al
    17ce:	00 00                	add    %al,(%eax)
    17d0:	75 07                	jne    17d9 <_init-0x804742f>
    17d2:	00 00                	add    %al,(%eax)
    17d4:	1c e4                	sbb    $0xe4,%al
    17d6:	05 00 00 01 8b       	add    $0x8b010000,%eax
    17db:	30 00                	xor    %al,(%eax)
    17dd:	00 00                	add    %al,(%eax)
    17df:	1e                   	push   %ds
    17e0:	a7                   	cmpsl  %es:(%edi),%ds:(%esi)
    17e1:	a4                   	movsb  %ds:(%esi),%es:(%edi)
    17e2:	04 08                	add    $0x8,%al
    17e4:	ac                   	lods   %ds:(%esi),%al
    17e5:	a4                   	movsb  %ds:(%esi),%es:(%edi)
    17e6:	04 08                	add    $0x8,%al
    17e8:	1c 55                	sbb    $0x55,%al
    17ea:	07                   	pop    %es
    17eb:	00 00                	add    %al,(%eax)
    17ed:	01 8f 5a 00 00 00    	add    %ecx,0x5a(%edi)
    17f3:	00 00                	add    %al,(%eax)
    17f5:	1b 01                	sbb    (%ecx),%eax
    17f7:	2e                   	cs
    17f8:	06                   	push   %es
    17f9:	00 00                	add    %al,(%eax)
    17fb:	01 3e                	add    %edi,(%esi)
    17fd:	01 5a 00             	add    %ebx,0x0(%edx)
    1800:	00 00                	add    %al,(%eax)
    1802:	e0 a4                	loopne 17a8 <_init-0x8047460>
    1804:	04 08                	add    $0x8,%al
    1806:	1c a5                	sbb    $0xa5,%al
    1808:	04 08                	add    $0x8,%al
    180a:	a0 07 00 00 47       	mov    0x47000007,%al
    180f:	07                   	pop    %es
    1810:	00 00                	add    %al,(%eax)
    1812:	14 08                	adc    $0x8,%al
    1814:	07                   	pop    %es
    1815:	00 00                	add    %al,(%eax)
    1817:	01 3d 0a 01 00 00    	add    %edi,0x10a
    181d:	cc                   	int3   
    181e:	07                   	pop    %es
    181f:	00 00                	add    %al,(%eax)
    1821:	17                   	pop    %ss
    1822:	73 74                	jae    1898 <_init-0x8047370>
    1824:	00 01                	add    %al,(%ecx)
    1826:	3f                   	aas    
    1827:	a6                   	cmpsb  %es:(%edi),%ds:(%esi)
    1828:	03 00                	add    (%eax),%eax
    182a:	00 03                	add    %al,(%ebx)
    182c:	91                   	xchg   %eax,%ecx
    182d:	a0 7f 20 1b 05       	mov    0x51b207f,%al
    1832:	00 00                	add    %al,(%eax)
    1834:	e6 a4                	out    %al,$0xa4
    1836:	04 08                	add    $0x8,%al
    1838:	00 a5 04 08 01 41    	add    %ah,0x41010804(%ebp)
    183e:	21 3a                	and    %edi,(%edx)
    1840:	05 00 00 21 2e       	add    $0x2e210000,%eax
    1845:	05 00 00 00 00       	add    $0x0,%eax
    184a:	1b 01                	sbb    (%ecx),%eax
    184c:	d0 06                	rolb   (%esi)
    184e:	00 00                	add    %al,(%eax)
    1850:	01 37                	add    %esi,(%edi)
    1852:	01 45 00             	add    %eax,0x0(%ebp)
    1855:	00 00                	add    %al,(%eax)
    1857:	20 a5 04 08 4a a5    	and    %ah,-0x5ab5f7fc(%ebp)
    185d:	04 08                	add    $0x8,%al
    185f:	ec                   	in     (%dx),%al
    1860:	07                   	pop    %es
    1861:	00 00                	add    %al,(%eax)
    1863:	9b                   	fwait
    1864:	07                   	pop    %es
    1865:	00 00                	add    %al,(%eax)
    1867:	22 08                	and    (%eax),%cl
    1869:	07                   	pop    %es
    186a:	00 00                	add    %al,(%eax)
    186c:	01 36                	add    %esi,(%esi)
    186e:	0a 01                	or     (%ecx),%al
    1870:	00 00                	add    %al,(%eax)
    1872:	02 91 00 17 73 74    	add    0x74731700(%ecx),%dl
    1878:	00 01                	add    %al,(%ecx)
    187a:	38 a6 03 00 00 03    	cmp    %ah,0x3000003(%esi)
    1880:	91                   	xchg   %eax,%ecx
    1881:	a0 7f 20 1b 05       	mov    0x51b207f,%al
    1886:	00 00                	add    %al,(%eax)
    1888:	26 a5                	movsl  %es:(%esi),%es:(%edi)
    188a:	04 08                	add    $0x8,%al
    188c:	40                   	inc    %eax
    188d:	a5                   	movsl  %ds:(%esi),%es:(%edi)
    188e:	04 08                	add    $0x8,%al
    1890:	01 39                	add    %edi,(%ecx)
    1892:	21 3a                	and    %edi,(%edx)
    1894:	05 00 00 21 2e       	add    $0x2e210000,%eax
    1899:	05 00 00 00 00       	add    $0x0,%eax
    189e:	1f                   	pop    %ds
    189f:	01 94 07 00 00 01 29 	add    %edx,0x29010000(%edi,%eax,1)
    18a6:	01 50 a5             	add    %edx,-0x5b(%eax)
    18a9:	04 08                	add    $0x8,%al
    18ab:	aa                   	stos   %al,%es:(%edi)
    18ac:	a5                   	movsl  %ds:(%esi),%es:(%edi)
    18ad:	04 08                	add    $0x8,%al
    18af:	18 08                	sbb    %cl,(%eax)
    18b1:	00 00                	add    %al,(%eax)
    18b3:	dd 07                	fldl   (%edi)
    18b5:	00 00                	add    %al,(%eax)
    18b7:	14 9b                	adc    $0x9b,%al
    18b9:	07                   	pop    %es
    18ba:	00 00                	add    %al,(%eax)
    18bc:	01 28                	add    %ebp,(%eax)
    18be:	0a 01                	or     (%ecx),%al
    18c0:	00 00                	add    %al,(%eax)
    18c2:	44                   	inc    %esp
    18c3:	08 00                	or     %al,(%eax)
    18c5:	00 23                	add    %ah,(%ebx)
    18c7:	69 6e 00 01 28 f8 05 	imul   $0x5f82801,0x0(%esi),%ebp
    18ce:	00 00                	add    %al,(%eax)
    18d0:	6f                   	outsl  %ds:(%esi),(%dx)
    18d1:	08 00                	or     %al,(%eax)
    18d3:	00 1c e4             	add    %bl,(%esp)
    18d6:	05 00 00 01 2a       	add    $0x2a010000,%eax
    18db:	30 00                	xor    %al,(%eax)
    18dd:	00 00                	add    %al,(%eax)
    18df:	00 1f                	add    %bl,(%edi)
    18e1:	01 18                	add    %ebx,(%eax)
    18e3:	06                   	push   %es
    18e4:	00 00                	add    %al,(%eax)
    18e6:	01 60 01             	add    %esp,0x1(%eax)
    18e9:	b0 a5                	mov    $0xa5,%al
    18eb:	04 08                	add    $0x8,%al
    18ed:	e0 a7                	loopne 1896 <_init-0x8047372>
    18ef:	04 08                	add    $0x8,%al
    18f1:	8f                   	(bad)  
    18f2:	08 00                	or     %al,(%eax)
    18f4:	00 41 08             	add    %al,0x8(%ecx)
    18f7:	00 00                	add    %al,(%eax)
    18f9:	23 69 6e             	and    0x6e(%ecx),%ebp
    18fc:	00 01                	add    %al,(%ecx)
    18fe:	5f                   	pop    %edi
    18ff:	f8                   	clc    
    1900:	05 00 00 bb 08       	add    $0x8bb0000,%eax
    1905:	00 00                	add    %al,(%eax)
    1907:	1a b6 05 00 00 01    	sbb    0x1000005(%esi),%dh
    190d:	61                   	popa   
    190e:	00 05 00 00 03 91    	add    %al,0x91030000
    1914:	ed                   	in     (%dx),%eax
    1915:	7d 16                	jge    192d <_init-0x80472db>
    1917:	91                   	xchg   %eax,%ecx
    1918:	05 00 00 01 61       	add    $0x61010000,%eax
    191d:	0a 01                	or     (%ecx),%al
    191f:	00 00                	add    %al,(%eax)
    1921:	f1                   	icebp  
    1922:	08 00                	or     %al,(%eax)
    1924:	00 16                	add    %dl,(%esi)
    1926:	df 05 00 00 01 61    	fild   0x61010000
    192c:	0a 01                	or     (%ecx),%al
    192e:	00 00                	add    %al,(%eax)
    1930:	0f 09                	wbinvd 
    1932:	00 00                	add    %al,(%eax)
    1934:	1a 39                	sbb    (%ecx),%bh
    1936:	07                   	pop    %es
    1937:	00 00                	add    %al,(%eax)
    1939:	01 62 41             	add    %esp,0x41(%edx)
    193c:	08 00                	or     %al,(%eax)
    193e:	00 03                	add    %al,(%ebx)
    1940:	75 f0                	jne    1932 <_init-0x80472d6>
    1942:	7d 00                	jge    1944 <_init-0x80472c4>
    1944:	07                   	pop    %es
    1945:	04 10                	add    $0x10,%al
    1947:	05 00 00 11 01       	add    $0x1110000,%eax
    194c:	74 07                	je     1955 <_init-0x80472b3>
    194e:	00 00                	add    %al,(%eax)
    1950:	03 1d 01 01 5a 00    	add    0x5a0101,%ebx
    1956:	00 00                	add    %al,(%eax)
    1958:	03 67 08             	add    0x8(%edi),%esp
    195b:	00 00                	add    %al,(%eax)
    195d:	12 4e 07             	adc    0x7(%esi),%cl
    1960:	00 00                	add    %al,(%eax)
    1962:	03 1c 01             	add    (%ecx,%eax,1),%ebx
    1965:	67 03 00             	addr16 add (%bx,%si),%eax
    1968:	00 00                	add    %al,(%eax)
    196a:	24 01                	and    $0x1,%al
    196c:	f0 06                	lock push %es
    196e:	00 00                	add    %al,(%eax)
    1970:	01 93 e0 a7 04 08    	add    %edx,0x804a7e0(%ebx)
    1976:	03 aa 04 08 2d 09    	add    0x92d0804(%edx),%ebp
    197c:	00 00                	add    %al,(%eax)
    197e:	db 08                	fisttpl (%eax)
    1980:	00 00                	add    %al,(%eax)
    1982:	25 69 6e 00 01       	and    $0x1006e69,%eax
    1987:	94                   	xchg   %eax,%esp
    1988:	f8                   	clc    
    1989:	05 00 00 59 09       	add    $0x9590000,%eax
    198e:	00 00                	add    %al,(%eax)
    1990:	16                   	push   %ss
    1991:	91                   	xchg   %eax,%ecx
    1992:	05 00 00 01 95       	add    $0x95010000,%eax
    1997:	0a 01                	or     (%ecx),%al
    1999:	00 00                	add    %al,(%eax)
    199b:	82                   	(bad)  
    199c:	09 00                	or     %eax,(%eax)
    199e:	00 16                	add    %dl,(%esi)
    19a0:	df 05 00 00 01 95    	fild   0x95010000
    19a6:	0a 01                	or     (%ecx),%al
    19a8:	00 00                	add    %al,(%eax)
    19aa:	a0 09 00 00 1a       	mov    0x1a000009,%al
    19af:	b6 05                	mov    $0x5,%dh
    19b1:	00 00                	add    %al,(%eax)
    19b3:	01 96 00 05 00 00    	add    %edx,0x500(%esi)
    19b9:	03 91 ed 7d 1c e4    	add    -0x1be38213(%ecx),%edx
    19bf:	05 00 00 01 97       	add    $0x97010000,%eax
    19c4:	5a                   	pop    %edx
    19c5:	00 00                	add    %al,(%eax)
    19c7:	00 20                	add    %ah,(%eax)
    19c9:	47                   	inc    %edi
    19ca:	08 00                	or     %al,(%eax)
    19cc:	00 ab a9 04 08 c3    	add    %ch,-0x3cf7fb57(%ebx)
    19d2:	a9 04 08 01 b6       	test   $0xb6010804,%eax
    19d7:	21 5a 08             	and    %ebx,0x8(%edx)
    19da:	00 00                	add    %al,(%eax)
    19dc:	00 00                	add    %al,(%eax)
    19de:	26 01 7e 06          	add    %edi,%es:0x6(%esi)
    19e2:	00 00                	add    %al,(%eax)
    19e4:	01 48 45             	add    %ecx,0x45(%eax)
    19e7:	00 00                	add    %al,(%eax)
    19e9:	00 10                	add    %dl,(%eax)
    19eb:	aa                   	stos   %al,%es:(%edi)
    19ec:	04 08                	add    $0x8,%al
    19ee:	c7                   	(bad)  
    19ef:	aa                   	stos   %al,%es:(%edi)
    19f0:	04 08                	add    $0x8,%al
    19f2:	be 09 00 00 33       	mov    $0x33000009,%esi
    19f7:	09 00                	or     %eax,(%eax)
    19f9:	00 25 69 6e 00 01    	add    %ah,0x1006e69
    19ff:	49                   	dec    %ecx
    1a00:	f8                   	clc    
    1a01:	05 00 00 ea 09       	add    $0x9ea0000,%eax
    1a06:	00 00                	add    %al,(%eax)
    1a08:	16                   	push   %ss
    1a09:	ac                   	lods   %ds:(%esi),%al
    1a0a:	06                   	push   %es
    1a0b:	00 00                	add    %al,(%eax)
    1a0d:	01 4a 45             	add    %ecx,0x45(%edx)
    1a10:	00 00                	add    %al,(%eax)
    1a12:	00 08                	add    %cl,(%eax)
    1a14:	0a 00                	or     (%eax),%al
    1a16:	00 1a                	add    %bl,(%edx)
    1a18:	b6 05                	mov    $0x5,%dh
    1a1a:	00 00                	add    %al,(%eax)
    1a1c:	01 4b 00             	add    %ecx,0x0(%ebx)
    1a1f:	05 00 00 03 91       	add    $0x91030000,%eax
    1a24:	ed                   	in     (%dx),%eax
    1a25:	7d 16                	jge    1a3d <_init-0x80471cb>
    1a27:	91                   	xchg   %eax,%ecx
    1a28:	05 00 00 01 4b       	add    $0x4b010000,%eax
    1a2d:	0a 01                	or     (%ecx),%al
    1a2f:	00 00                	add    %al,(%eax)
    1a31:	1b 0a                	sbb    (%edx),%ecx
    1a33:	00 00                	add    %al,(%eax)
    1a35:	00 1b                	add    %bl,(%ebx)
    1a37:	01 6e 06             	add    %ebp,0x6(%esi)
    1a3a:	00 00                	add    %al,(%eax)
    1a3c:	01 30                	add    %esi,(%eax)
    1a3e:	01 5a 00             	add    %ebx,0x0(%edx)
    1a41:	00 00                	add    %al,(%eax)
    1a43:	d0 aa 04 08 17 ab    	shrb   -0x54e8f7fc(%edx)
    1a49:	04 08                	add    $0x8,%al
    1a4b:	39 0a                	cmp    %ecx,(%edx)
    1a4d:	00 00                	add    %al,(%eax)
    1a4f:	88 09                	mov    %cl,(%ecx)
    1a51:	00 00                	add    %al,(%eax)
    1a53:	14 08                	adc    $0x8,%al
    1a55:	07                   	pop    %es
    1a56:	00 00                	add    %al,(%eax)
    1a58:	01 2f                	add    %ebp,(%edi)
    1a5a:	0a 01                	or     (%ecx),%al
    1a5c:	00 00                	add    %al,(%eax)
    1a5e:	65 0a 00             	or     %gs:(%eax),%al
    1a61:	00 17                	add    %dl,(%edi)
    1a63:	73 74                	jae    1ad9 <_init-0x804712f>
    1a65:	00 01                	add    %al,(%ecx)
    1a67:	31 a6 03 00 00 03    	xor    %esp,0x3000003(%esi)
    1a6d:	91                   	xchg   %eax,%ecx
    1a6e:	9c                   	pushf  
    1a6f:	7f 20                	jg     1a91 <_init-0x8047177>
    1a71:	1b 05 00 00 da aa    	sbb    0xaada0000,%eax
    1a77:	04 08                	add    $0x8,%al
    1a79:	f1                   	icebp  
    1a7a:	aa                   	stos   %al,%es:(%edi)
    1a7b:	04 08                	add    $0x8,%al
    1a7d:	01 32                	add    %esi,(%edx)
    1a7f:	21 3a                	and    %edi,(%edx)
    1a81:	05 00 00 21 2e       	add    $0x2e210000,%eax
    1a86:	05 00 00 00 00       	add    $0x0,%eax
    1a8b:	27                   	daa    
    1a8c:	48                   	dec    %eax
    1a8d:	02 00                	add    (%eax),%al
    1a8f:	00 06                	add    %al,(%esi)
    1a91:	91                   	xchg   %eax,%ecx
    1a92:	3b 03                	cmp    (%ebx),%eax
    1a94:	00 00                	add    %al,(%eax)
    1a96:	01 01                	add    %eax,(%ecx)
    1a98:	27                   	daa    
    1a99:	76 02                	jbe    1a9d <_init-0x804716b>
    1a9b:	00 00                	add    %al,(%eax)
    1a9d:	06                   	push   %es
    1a9e:	92                   	xchg   %eax,%edx
    1a9f:	3b 03                	cmp    (%ebx),%eax
    1aa1:	00 00                	add    %al,(%eax)
    1aa3:	01 01                	add    %eax,(%ecx)
    1aa5:	27                   	daa    
    1aa6:	5b                   	pop    %ebx
    1aa7:	02 00                	add    (%eax),%al
    1aa9:	00 0b                	add    %cl,(%ebx)
    1aab:	2c 30                	sub    $0x30,%al
    1aad:	00 00                	add    %al,(%eax)
    1aaf:	00 01                	add    %al,(%ecx)
    1ab1:	01 27                	add    %esp,(%edi)
    1ab3:	d8 03                	fadds  (%ebx)
    1ab5:	00 00                	add    %al,(%eax)
    1ab7:	0b 2e                	or     (%esi),%ebp
    1ab9:	00 05 00 00 01 01    	add    %al,0x1010000
    1abf:	27                   	daa    
    1ac0:	55                   	push   %ebp
    1ac1:	04 00                	add    $0x0,%al
    1ac3:	00 0b                	add    %cl,(%ebx)
    1ac5:	2f                   	das    
    1ac6:	00 05 00 00 01 01    	add    %al,0x1010000
    1acc:	27                   	daa    
    1acd:	11 01                	adc    %eax,(%ecx)
    1acf:	00 00                	add    %al,(%eax)
    1ad1:	0b 30                	or     (%eax),%esi
    1ad3:	45                   	inc    %ebp
    1ad4:	00 00                	add    %al,(%eax)
    1ad6:	00 01                	add    %al,(%ecx)
    1ad8:	01 27                	add    %esp,(%edi)
    1ada:	14 01                	adc    $0x1,%al
    1adc:	00 00                	add    %al,(%eax)
    1ade:	0b 31                	or     (%ecx),%esi
    1ae0:	41                   	inc    %ecx
    1ae1:	08 00                	or     %al,(%eax)
    1ae3:	00 01                	add    %al,(%ecx)
    1ae5:	01 27                	add    %esp,(%edi)
    1ae7:	2b 01                	sub    (%ecx),%eax
    1ae9:	00 00                	add    %al,(%eax)
    1aeb:	0b 32                	or     (%edx),%esi
    1aed:	10 05 00 00 01 01    	adc    %al,0x1010000
    1af3:	00 89 00 00 00 02    	add    %cl,0x2000000(%ecx)
    1af9:	00 04 06             	add    %al,(%esi,%eax,1)
    1afc:	00 00                	add    %al,(%eax)
    1afe:	04 01                	add    $0x1,%al
    1b00:	03 07                	add    (%edi),%eax
    1b02:	00 00                	add    %al,(%eax)
    1b04:	68 00 00 00 2f       	push   $0x2f000000
    1b09:	62 75 69             	bound  %esi,0x69(%ebp)
    1b0c:	6c                   	insb   (%dx),%es:(%edi)
    1b0d:	64                   	fs
    1b0e:	2f                   	das    
    1b0f:	62 75 69             	bound  %esi,0x69(%ebp)
    1b12:	6c                   	insb   (%dx),%es:(%edi)
    1b13:	64                   	fs
    1b14:	64                   	fs
    1b15:	2f                   	das    
    1b16:	67 6c                	addr16 insb (%dx),%es:(%di)
    1b18:	69 62 63 2d 32 2e 37 	imul   $0x372e322d,0x63(%edx),%esp
    1b1f:	2f                   	das    
    1b20:	62 75 69             	bound  %esi,0x69(%ebp)
    1b23:	6c                   	insb   (%dx),%es:(%edi)
    1b24:	64                   	fs
    1b25:	2d 74 72 65 65       	sub    $0x65657274,%eax
    1b2a:	2f                   	das    
    1b2b:	69 33 38 36 2d 6c    	imul   $0x6c2d3638,(%ebx),%esi
    1b31:	69 62 63 2f 63 73 75 	imul   $0x7573632f,0x63(%edx),%esp
    1b38:	2f                   	das    
    1b39:	63 72 74             	arpl   %si,0x74(%edx)
    1b3c:	6e                   	outsb  %ds:(%esi),(%dx)
    1b3d:	2e                   	cs
    1b3e:	53                   	push   %ebx
    1b3f:	00 2f                	add    %ch,(%edi)
    1b41:	62 75 69             	bound  %esi,0x69(%ebp)
    1b44:	6c                   	insb   (%dx),%es:(%edi)
    1b45:	64                   	fs
    1b46:	2f                   	das    
    1b47:	62 75 69             	bound  %esi,0x69(%ebp)
    1b4a:	6c                   	insb   (%dx),%es:(%edi)
    1b4b:	64                   	fs
    1b4c:	64                   	fs
    1b4d:	2f                   	das    
    1b4e:	67 6c                	addr16 insb (%dx),%es:(%di)
    1b50:	69 62 63 2d 32 2e 37 	imul   $0x372e322d,0x63(%edx),%esp
    1b57:	2f                   	das    
    1b58:	62 75 69             	bound  %esi,0x69(%ebp)
    1b5b:	6c                   	insb   (%dx),%es:(%edi)
    1b5c:	64                   	fs
    1b5d:	2d 74 72 65 65       	sub    $0x65657274,%eax
    1b62:	2f                   	das    
    1b63:	67 6c                	addr16 insb (%dx),%es:(%di)
    1b65:	69 62 63 2d 32 2e 37 	imul   $0x372e322d,0x63(%edx),%esp
    1b6c:	2f                   	das    
    1b6d:	63 73 75             	arpl   %si,0x75(%ebx)
    1b70:	00 47 4e             	add    %al,0x4e(%edi)
    1b73:	55                   	push   %ebp
    1b74:	20 41 53             	and    %al,0x53(%ecx)
    1b77:	20 32                	and    %dh,(%edx)
    1b79:	2e 31 38             	xor    %edi,%cs:(%eax)
    1b7c:	2e 30 00             	xor    %al,%cs:(%eax)
    1b7f:	01                   	.byte 0x1
    1b80:	80                   	.byte 0x80
Disassembly of section .debug_abbrev:

00000000 <.debug_abbrev>:
   0:	01 11                	add    %edx,(%ecx)
   2:	01 25 0e 13 0b 03    	add    %esp,0x30b130e
   8:	0e                   	push   %cs
   9:	1b 0e                	sbb    (%esi),%ecx
   b:	11 01                	adc    %eax,(%ecx)
   d:	12 01                	adc    (%ecx),%al
   f:	10 06                	adc    %al,(%esi)
  11:	00 00                	add    %al,(%eax)
  13:	02 24 00             	add    (%eax,%eax,1),%ah
  16:	0b 0b                	or     (%ebx),%ecx
  18:	3e 0b 03             	or     %ds:(%ebx),%eax
  1b:	0e                   	push   %cs
  1c:	00 00                	add    %al,(%eax)
  1e:	03 24 00             	add    (%eax,%eax,1),%esp
  21:	0b 0b                	or     (%ebx),%ecx
  23:	3e 0b 03             	or     %ds:(%ebx),%eax
  26:	08 00                	or     %al,(%eax)
  28:	00 04 24             	add    %al,(%esp)
  2b:	00 0b                	add    %cl,(%ebx)
  2d:	0b 3e                	or     (%esi),%edi
  2f:	0b 00                	or     (%eax),%eax
  31:	00 05 34 00 03 0e    	add    %al,0xe030034
  37:	3a 0b                	cmp    (%ebx),%cl
  39:	3b 0b                	cmp    (%ebx),%ecx
  3b:	49                   	dec    %ecx
  3c:	13 3f                	adc    (%edi),%edi
  3e:	0c 02                	or     $0x2,%al
  40:	0a 00                	or     (%eax),%al
  42:	00 06                	add    %al,(%esi)
  44:	26 00 49 13          	add    %cl,%es:0x13(%ecx)
  48:	00 00                	add    %al,(%eax)
  4a:	00 01                	add    %al,(%ecx)
  4c:	11 00                	adc    %eax,(%eax)
  4e:	10 06                	adc    %al,(%esi)
  50:	55                   	push   %ebp
  51:	06                   	push   %es
  52:	03 08                	add    (%eax),%ecx
  54:	1b 08                	sbb    (%eax),%ecx
  56:	25 08 13 05 00       	and    $0x51308,%eax
  5b:	00 00                	add    %al,(%eax)
  5d:	01 11                	add    %edx,(%ecx)
  5f:	01 25 0e 13 0b 03    	add    %esp,0x30b130e
  65:	0e                   	push   %cs
  66:	1b 0e                	sbb    (%esi),%ecx
  68:	11 01                	adc    %eax,(%ecx)
  6a:	12 01                	adc    (%ecx),%al
  6c:	10 06                	adc    %al,(%esi)
  6e:	00 00                	add    %al,(%eax)
  70:	02 16                	add    (%esi),%dl
  72:	00 03                	add    %al,(%ebx)
  74:	0e                   	push   %cs
  75:	3a 0b                	cmp    (%ebx),%cl
  77:	3b 0b                	cmp    (%ebx),%ecx
  79:	49                   	dec    %ecx
  7a:	13 00                	adc    (%eax),%eax
  7c:	00 03                	add    %al,(%ebx)
  7e:	24 00                	and    $0x0,%al
  80:	0b 0b                	or     (%ebx),%ecx
  82:	3e 0b 03             	or     %ds:(%ebx),%eax
  85:	0e                   	push   %cs
  86:	00 00                	add    %al,(%eax)
  88:	04 24                	add    $0x24,%al
  8a:	00 0b                	add    %cl,(%ebx)
  8c:	0b 3e                	or     (%esi),%edi
  8e:	0b 03                	or     (%ebx),%eax
  90:	08 00                	or     %al,(%eax)
  92:	00 05 24 00 0b 0b    	add    %al,0xb0b0024
  98:	3e 0b 00             	or     %ds:(%eax),%eax
  9b:	00 06                	add    %al,(%esi)
  9d:	0f 00 0b             	str    (%ebx)
  a0:	0b 00                	or     (%eax),%eax
  a2:	00 07                	add    %al,(%edi)
  a4:	0f 00 0b             	str    (%ebx)
  a7:	0b 49 13             	or     0x13(%ecx),%ecx
  aa:	00 00                	add    %al,(%eax)
  ac:	08 13                	or     %dl,(%ebx)
  ae:	01 03                	add    %eax,(%ebx)
  b0:	0e                   	push   %cs
  b1:	0b 0b                	or     (%ebx),%ecx
  b3:	3a 0b                	cmp    (%ebx),%cl
  b5:	3b 0b                	cmp    (%ebx),%ecx
  b7:	01 13                	add    %edx,(%ebx)
  b9:	00 00                	add    %al,(%eax)
  bb:	09 0d 00 03 0e 3a    	or     %ecx,0x3a0e0300
  c1:	0b 3b                	or     (%ebx),%edi
  c3:	05 49 13 38 0a       	add    $0xa381349,%eax
  c8:	00 00                	add    %al,(%eax)
  ca:	0a 16                	or     (%esi),%dl
  cc:	00 03                	add    %al,(%ebx)
  ce:	0e                   	push   %cs
  cf:	3a 0b                	cmp    (%ebx),%cl
  d1:	3b 0b                	cmp    (%ebx),%ecx
  d3:	00 00                	add    %al,(%eax)
  d5:	0b 0d 00 03 0e 3a    	or     0x3a0e0300,%ecx
  db:	0b 3b                	or     (%ebx),%edi
  dd:	0b 49 13             	or     0x13(%ecx),%ecx
  e0:	38 0a                	cmp    %cl,(%edx)
  e2:	00 00                	add    %al,(%eax)
  e4:	0c 01                	or     $0x1,%al
  e6:	01 49 13             	add    %ecx,0x13(%ecx)
  e9:	01 13                	add    %edx,(%ebx)
  eb:	00 00                	add    %al,(%eax)
  ed:	0d 21 00 49 13       	or     $0x13490021,%eax
  f2:	2f                   	das    
  f3:	0b 00                	or     (%eax),%eax
  f5:	00 0e                	add    %cl,(%esi)
  f7:	13 01                	adc    (%ecx),%eax
  f9:	0b 0b                	or     (%ebx),%ecx
  fb:	3a 0b                	cmp    (%ebx),%cl
  fd:	3b 0b                	cmp    (%ebx),%ecx
  ff:	01 13                	add    %edx,(%ebx)
 101:	00 00                	add    %al,(%eax)
 103:	0f 04                	(bad)  
 105:	01 03                	add    %eax,(%ebx)
 107:	0e                   	push   %cs
 108:	0b 0b                	or     (%ebx),%ecx
 10a:	3a 0b                	cmp    (%ebx),%cl
 10c:	3b 0b                	cmp    (%ebx),%ecx
 10e:	01 13                	add    %edx,(%ebx)
 110:	00 00                	add    %al,(%eax)
 112:	10 28                	adc    %ch,(%eax)
 114:	00 03                	add    %al,(%ebx)
 116:	0e                   	push   %cs
 117:	1c 0d                	sbb    $0xd,%al
 119:	00 00                	add    %al,(%eax)
 11b:	11 13                	adc    %edx,(%ebx)
 11d:	01 0b                	add    %ecx,(%ebx)
 11f:	05 3a 0b 3b 0b       	add    $0xb3b0b3a,%eax
 124:	01 13                	add    %edx,(%ebx)
 126:	00 00                	add    %al,(%eax)
 128:	12 2e                	adc    (%esi),%ch
 12a:	01 3f                	add    %edi,(%edi)
 12c:	0c 03                	or     $0x3,%al
 12e:	0e                   	push   %cs
 12f:	3a 0b                	cmp    (%ebx),%cl
 131:	3b 0b                	cmp    (%ebx),%ecx
 133:	27                   	daa    
 134:	0c 11                	or     $0x11,%al
 136:	01 12                	add    %edx,(%edx)
 138:	01 40 06             	add    %eax,0x6(%eax)
 13b:	01 13                	add    %edx,(%ebx)
 13d:	00 00                	add    %al,(%eax)
 13f:	13 05 00 03 0e 3a    	adc    0x3a0e0300,%eax
 145:	0b 3b                	or     (%ebx),%edi
 147:	0b 49 13             	or     0x13(%ecx),%ecx
 14a:	02 06                	add    (%esi),%al
 14c:	00 00                	add    %al,(%eax)
 14e:	14 2e                	adc    $0x2e,%al
 150:	01 3f                	add    %edi,(%edi)
 152:	0c 03                	or     $0x3,%al
 154:	0e                   	push   %cs
 155:	3a 0b                	cmp    (%ebx),%cl
 157:	3b 0b                	cmp    (%ebx),%ecx
 159:	49                   	dec    %ecx
 15a:	13 11                	adc    (%ecx),%edx
 15c:	01 12                	add    %edx,(%edx)
 15e:	01 40 06             	add    %eax,0x6(%eax)
 161:	01 13                	add    %edx,(%ebx)
 163:	00 00                	add    %al,(%eax)
 165:	15 34 00 03 0e       	adc    $0xe030034,%eax
 16a:	3a 0b                	cmp    (%ebx),%cl
 16c:	3b 0b                	cmp    (%ebx),%ecx
 16e:	49                   	dec    %ecx
 16f:	13 02                	adc    (%edx),%eax
 171:	0a 00                	or     (%eax),%al
 173:	00 16                	add    %dl,(%esi)
 175:	34 00                	xor    $0x0,%al
 177:	03 08                	add    (%eax),%ecx
 179:	3a 0b                	cmp    (%ebx),%cl
 17b:	3b 0b                	cmp    (%ebx),%ecx
 17d:	49                   	dec    %ecx
 17e:	13 02                	adc    (%edx),%eax
 180:	06                   	push   %es
 181:	00 00                	add    %al,(%eax)
 183:	17                   	pop    %ss
 184:	34 00                	xor    $0x0,%al
 186:	03 0e                	add    (%esi),%ecx
 188:	3a 0b                	cmp    (%ebx),%cl
 18a:	3b 0b                	cmp    (%ebx),%ecx
 18c:	49                   	dec    %ecx
 18d:	13 02                	adc    (%edx),%eax
 18f:	06                   	push   %es
 190:	00 00                	add    %al,(%eax)
 192:	18 34 00             	sbb    %dh,(%eax,%eax,1)
 195:	03 0e                	add    (%esi),%ecx
 197:	3a 0b                	cmp    (%ebx),%cl
 199:	3b 0b                	cmp    (%ebx),%ecx
 19b:	49                   	dec    %ecx
 19c:	13 00                	adc    (%eax),%eax
 19e:	00 19                	add    %bl,(%ecx)
 1a0:	34 00                	xor    $0x0,%al
 1a2:	03 08                	add    (%eax),%ecx
 1a4:	3a 0b                	cmp    (%ebx),%cl
 1a6:	3b 0b                	cmp    (%ebx),%ecx
 1a8:	49                   	dec    %ecx
 1a9:	13 02                	adc    (%edx),%eax
 1ab:	0a 00                	or     (%eax),%al
 1ad:	00 1a                	add    %bl,(%edx)
 1af:	0b 01                	or     (%ecx),%eax
 1b1:	11 01                	adc    %eax,(%ecx)
 1b3:	12 01                	adc    (%ecx),%al
 1b5:	01 13                	add    %edx,(%ebx)
 1b7:	00 00                	add    %al,(%eax)
 1b9:	1b 34 00             	sbb    (%eax,%eax,1),%esi
 1bc:	03 08                	add    (%eax),%ecx
 1be:	3a 0b                	cmp    (%ebx),%cl
 1c0:	3b 0b                	cmp    (%ebx),%ecx
 1c2:	49                   	dec    %ecx
 1c3:	13 00                	adc    (%eax),%eax
 1c5:	00 1c 0b             	add    %bl,(%ebx,%ecx,1)
 1c8:	01 55 06             	add    %edx,0x6(%ebp)
 1cb:	00 00                	add    %al,(%eax)
 1cd:	1d 34 00 03 0e       	sbb    $0xe030034,%eax
 1d2:	3a 0b                	cmp    (%ebx),%cl
 1d4:	3b 0b                	cmp    (%ebx),%ecx
 1d6:	49                   	dec    %ecx
 1d7:	13 3f                	adc    (%edi),%edi
 1d9:	0c 3c                	or     $0x3c,%al
 1db:	0c 00                	or     $0x0,%al
 1dd:	00 1e                	add    %bl,(%esi)
 1df:	34 00                	xor    $0x0,%al
 1e1:	03 0e                	add    (%esi),%ecx
 1e3:	3a 0b                	cmp    (%ebx),%cl
 1e5:	3b 0b                	cmp    (%ebx),%ecx
 1e7:	49                   	dec    %ecx
 1e8:	13 3f                	adc    (%edi),%edi
 1ea:	0c 02                	or     $0x2,%al
 1ec:	0a 00                	or     (%eax),%al
 1ee:	00 00                	add    %al,(%eax)
 1f0:	01 11                	add    %edx,(%ecx)
 1f2:	01 25 0e 13 0b 03    	add    %esp,0x30b130e
 1f8:	0e                   	push   %cs
 1f9:	1b 0e                	sbb    (%esi),%ecx
 1fb:	11 01                	adc    %eax,(%ecx)
 1fd:	12 01                	adc    (%ecx),%al
 1ff:	10 06                	adc    %al,(%esi)
 201:	00 00                	add    %al,(%eax)
 203:	02 16                	add    (%esi),%dl
 205:	00 03                	add    %al,(%ebx)
 207:	0e                   	push   %cs
 208:	3a 0b                	cmp    (%ebx),%cl
 20a:	3b 0b                	cmp    (%ebx),%ecx
 20c:	49                   	dec    %ecx
 20d:	13 00                	adc    (%eax),%eax
 20f:	00 03                	add    %al,(%ebx)
 211:	24 00                	and    $0x0,%al
 213:	0b 0b                	or     (%ebx),%ecx
 215:	3e 0b 03             	or     %ds:(%ebx),%eax
 218:	0e                   	push   %cs
 219:	00 00                	add    %al,(%eax)
 21b:	04 24                	add    $0x24,%al
 21d:	00 0b                	add    %cl,(%ebx)
 21f:	0b 3e                	or     (%esi),%edi
 221:	0b 03                	or     (%ebx),%eax
 223:	08 00                	or     %al,(%eax)
 225:	00 05 24 00 0b 0b    	add    %al,0xb0b0024
 22b:	3e 0b 00             	or     %ds:(%eax),%eax
 22e:	00 06                	add    %al,(%esi)
 230:	0f 00 0b             	str    (%ebx)
 233:	0b 00                	or     (%eax),%eax
 235:	00 07                	add    %al,(%edi)
 237:	0f 00 0b             	str    (%ebx)
 23a:	0b 49 13             	or     0x13(%ecx),%ecx
 23d:	00 00                	add    %al,(%eax)
 23f:	08 13                	or     %dl,(%ebx)
 241:	01 03                	add    %eax,(%ebx)
 243:	0e                   	push   %cs
 244:	0b 0b                	or     (%ebx),%ecx
 246:	3a 0b                	cmp    (%ebx),%cl
 248:	3b 0b                	cmp    (%ebx),%ecx
 24a:	01 13                	add    %edx,(%ebx)
 24c:	00 00                	add    %al,(%eax)
 24e:	09 0d 00 03 0e 3a    	or     %ecx,0x3a0e0300
 254:	0b 3b                	or     (%ebx),%edi
 256:	05 49 13 38 0a       	add    $0xa381349,%eax
 25b:	00 00                	add    %al,(%eax)
 25d:	0a 16                	or     (%esi),%dl
 25f:	00 03                	add    %al,(%ebx)
 261:	0e                   	push   %cs
 262:	3a 0b                	cmp    (%ebx),%cl
 264:	3b 0b                	cmp    (%ebx),%ecx
 266:	00 00                	add    %al,(%eax)
 268:	0b 0d 00 03 0e 3a    	or     0x3a0e0300,%ecx
 26e:	0b 3b                	or     (%ebx),%edi
 270:	0b 49 13             	or     0x13(%ecx),%ecx
 273:	38 0a                	cmp    %cl,(%edx)
 275:	00 00                	add    %al,(%eax)
 277:	0c 01                	or     $0x1,%al
 279:	01 49 13             	add    %ecx,0x13(%ecx)
 27c:	01 13                	add    %edx,(%ebx)
 27e:	00 00                	add    %al,(%eax)
 280:	0d 21 00 49 13       	or     $0x13490021,%eax
 285:	2f                   	das    
 286:	0b 00                	or     (%eax),%eax
 288:	00 0e                	add    %cl,(%esi)
 28a:	13 01                	adc    (%ecx),%eax
 28c:	03 0e                	add    (%esi),%ecx
 28e:	0b 05 3a 0b 3b 0b    	or     0xb3b0b3a,%eax
 294:	01 13                	add    %edx,(%ebx)
 296:	00 00                	add    %al,(%eax)
 298:	0f 13 01             	movlps %xmm0,(%ecx)
 29b:	0b 05 3a 0b 3b 0b    	or     0xb3b0b3a,%eax
 2a1:	01 13                	add    %edx,(%ebx)
 2a3:	00 00                	add    %al,(%eax)
 2a5:	10 2e                	adc    %ch,(%esi)
 2a7:	01 3f                	add    %edi,(%edi)
 2a9:	0c 03                	or     $0x3,%al
 2ab:	0e                   	push   %cs
 2ac:	3a 0b                	cmp    (%ebx),%cl
 2ae:	3b 05 27 0c 11 01    	cmp    0x1110c27,%eax
 2b4:	12 01                	adc    (%ecx),%al
 2b6:	40                   	inc    %eax
 2b7:	06                   	push   %es
 2b8:	01 13                	add    %edx,(%ebx)
 2ba:	00 00                	add    %al,(%eax)
 2bc:	11 05 00 03 0e 3a    	adc    %eax,0x3a0e0300
 2c2:	0b 3b                	or     (%ebx),%edi
 2c4:	05 49 13 02 06       	add    $0x6021349,%eax
 2c9:	00 00                	add    %al,(%eax)
 2cb:	12 34 00             	adc    (%eax,%eax,1),%dh
 2ce:	03 0e                	add    (%esi),%ecx
 2d0:	3a 0b                	cmp    (%ebx),%cl
 2d2:	3b 05 49 13 02 06    	cmp    0x6021349,%eax
 2d8:	00 00                	add    %al,(%eax)
 2da:	13 34 00             	adc    (%eax,%eax,1),%esi
 2dd:	03 08                	add    (%eax),%ecx
 2df:	3a 0b                	cmp    (%ebx),%cl
 2e1:	3b 05 49 13 02 0a    	cmp    0xa021349,%eax
 2e7:	00 00                	add    %al,(%eax)
 2e9:	14 34                	adc    $0x34,%al
 2eb:	00 03                	add    %al,(%ebx)
 2ed:	08 3a                	or     %bh,(%edx)
 2ef:	0b 3b                	or     (%ebx),%edi
 2f1:	05 49 13 00 00       	add    $0x1349,%eax
 2f6:	15 34 00 03 0e       	adc    $0xe030034,%eax
 2fb:	3a 0b                	cmp    (%ebx),%cl
 2fd:	3b 05 49 13 02 0a    	cmp    0xa021349,%eax
 303:	00 00                	add    %al,(%eax)
 305:	16                   	push   %ss
 306:	21 00                	and    %eax,(%eax)
 308:	49                   	dec    %ecx
 309:	13 2f                	adc    (%edi),%ebp
 30b:	05 00 00 17 26       	add    $0x26170000,%eax
 310:	00 49 13             	add    %cl,0x13(%ecx)
 313:	00 00                	add    %al,(%eax)
 315:	18 2e                	sbb    %ch,(%esi)
 317:	01 3f                	add    %edi,(%edi)
 319:	0c 03                	or     $0x3,%al
 31b:	0e                   	push   %cs
 31c:	3a 0b                	cmp    (%ebx),%cl
 31e:	3b 0b                	cmp    (%ebx),%ecx
 320:	27                   	daa    
 321:	0c 11                	or     $0x11,%al
 323:	01 12                	add    %edx,(%edx)
 325:	01 40 06             	add    %eax,0x6(%eax)
 328:	01 13                	add    %edx,(%ebx)
 32a:	00 00                	add    %al,(%eax)
 32c:	19 05 00 03 0e 3a    	sbb    %eax,0x3a0e0300
 332:	0b 3b                	or     (%ebx),%edi
 334:	0b 49 13             	or     0x13(%ecx),%ecx
 337:	02 06                	add    (%esi),%al
 339:	00 00                	add    %al,(%eax)
 33b:	1a 34 00             	sbb    (%eax,%eax,1),%dh
 33e:	03 0e                	add    (%esi),%ecx
 340:	3a 0b                	cmp    (%ebx),%cl
 342:	3b 0b                	cmp    (%ebx),%ecx
 344:	49                   	dec    %ecx
 345:	13 02                	adc    (%edx),%eax
 347:	0a 00                	or     (%eax),%al
 349:	00 1b                	add    %bl,(%ebx)
 34b:	34 00                	xor    $0x0,%al
 34d:	03 0e                	add    (%esi),%ecx
 34f:	3a 0b                	cmp    (%ebx),%cl
 351:	3b 0b                	cmp    (%ebx),%ecx
 353:	49                   	dec    %ecx
 354:	13 02                	adc    (%edx),%eax
 356:	06                   	push   %es
 357:	00 00                	add    %al,(%eax)
 359:	1c 0b                	sbb    $0xb,%al
 35b:	01 11                	add    %edx,(%ecx)
 35d:	01 12                	add    %edx,(%edx)
 35f:	01 00                	add    %eax,(%eax)
 361:	00 1d 34 00 03 0e    	add    %bl,0xe030034
 367:	3a 0b                	cmp    (%ebx),%cl
 369:	3b 0b                	cmp    (%ebx),%ecx
 36b:	49                   	dec    %ecx
 36c:	13 00                	adc    (%eax),%eax
 36e:	00 1e                	add    %bl,(%esi)
 370:	2e 01 3f             	add    %edi,%cs:(%edi)
 373:	0c 03                	or     $0x3,%al
 375:	0e                   	push   %cs
 376:	3a 0b                	cmp    (%ebx),%cl
 378:	3b 0b                	cmp    (%ebx),%ecx
 37a:	27                   	daa    
 37b:	0c 49                	or     $0x49,%al
 37d:	13 11                	adc    (%ecx),%edx
 37f:	01 12                	add    %edx,(%edx)
 381:	01 40 06             	add    %eax,0x6(%eax)
 384:	01 13                	add    %edx,(%ebx)
 386:	00 00                	add    %al,(%eax)
 388:	1f                   	pop    %ds
 389:	34 00                	xor    $0x0,%al
 38b:	03 08                	add    (%eax),%ecx
 38d:	3a 0b                	cmp    (%ebx),%cl
 38f:	3b 0b                	cmp    (%ebx),%ecx
 391:	49                   	dec    %ecx
 392:	13 02                	adc    (%edx),%eax
 394:	06                   	push   %es
 395:	00 00                	add    %al,(%eax)
 397:	20 34 00             	and    %dh,(%eax,%eax,1)
 39a:	03 08                	add    (%eax),%ecx
 39c:	3a 0b                	cmp    (%ebx),%cl
 39e:	3b 0b                	cmp    (%ebx),%ecx
 3a0:	49                   	dec    %ecx
 3a1:	13 00                	adc    (%eax),%eax
 3a3:	00 21                	add    %ah,(%ecx)
 3a5:	34 00                	xor    $0x0,%al
 3a7:	03 08                	add    (%eax),%ecx
 3a9:	3a 0b                	cmp    (%ebx),%cl
 3ab:	3b 0b                	cmp    (%ebx),%ecx
 3ad:	49                   	dec    %ecx
 3ae:	13 02                	adc    (%edx),%eax
 3b0:	0a 00                	or     (%eax),%al
 3b2:	00 22                	add    %ah,(%edx)
 3b4:	0a 00                	or     (%eax),%al
 3b6:	03 0e                	add    (%esi),%ecx
 3b8:	3a 0b                	cmp    (%ebx),%cl
 3ba:	3b 0b                	cmp    (%ebx),%ecx
 3bc:	11 01                	adc    %eax,(%ecx)
 3be:	00 00                	add    %al,(%eax)
 3c0:	23 0b                	and    (%ebx),%ecx
 3c2:	01 55 06             	add    %edx,0x6(%ebp)
 3c5:	00 00                	add    %al,(%eax)
 3c7:	24 34                	and    $0x34,%al
 3c9:	00 03                	add    %al,(%ebx)
 3cb:	0e                   	push   %cs
 3cc:	3a 0b                	cmp    (%ebx),%cl
 3ce:	3b 0b                	cmp    (%ebx),%ecx
 3d0:	49                   	dec    %ecx
 3d1:	13 3f                	adc    (%edi),%edi
 3d3:	0c 3c                	or     $0x3c,%al
 3d5:	0c 00                	or     $0x0,%al
 3d7:	00 25 34 00 03 0e    	add    %ah,0xe030034
 3dd:	3a 0b                	cmp    (%ebx),%cl
 3df:	3b 05 49 13 3f 0c    	cmp    0xc3f1349,%eax
 3e5:	02 0a                	add    (%edx),%cl
 3e7:	00 00                	add    %al,(%eax)
 3e9:	00 01                	add    %al,(%ecx)
 3eb:	11 01                	adc    %eax,(%ecx)
 3ed:	25 0e 13 0b 03       	and    $0x30b130e,%eax
 3f2:	0e                   	push   %cs
 3f3:	1b 0e                	sbb    (%esi),%ecx
 3f5:	11 01                	adc    %eax,(%ecx)
 3f7:	12 01                	adc    (%ecx),%al
 3f9:	10 06                	adc    %al,(%esi)
 3fb:	00 00                	add    %al,(%eax)
 3fd:	02 16                	add    (%esi),%dl
 3ff:	00 03                	add    %al,(%ebx)
 401:	0e                   	push   %cs
 402:	3a 0b                	cmp    (%ebx),%cl
 404:	3b 0b                	cmp    (%ebx),%ecx
 406:	49                   	dec    %ecx
 407:	13 00                	adc    (%eax),%eax
 409:	00 03                	add    %al,(%ebx)
 40b:	24 00                	and    $0x0,%al
 40d:	0b 0b                	or     (%ebx),%ecx
 40f:	3e 0b 03             	or     %ds:(%ebx),%eax
 412:	0e                   	push   %cs
 413:	00 00                	add    %al,(%eax)
 415:	04 24                	add    $0x24,%al
 417:	00 0b                	add    %cl,(%ebx)
 419:	0b 3e                	or     (%esi),%edi
 41b:	0b 03                	or     (%ebx),%eax
 41d:	08 00                	or     %al,(%eax)
 41f:	00 05 24 00 0b 0b    	add    %al,0xb0b0024
 425:	3e 0b 00             	or     %ds:(%eax),%eax
 428:	00 06                	add    %al,(%esi)
 42a:	0f 00 0b             	str    (%ebx)
 42d:	0b 00                	or     (%eax),%eax
 42f:	00 07                	add    %al,(%edi)
 431:	0f 00 0b             	str    (%ebx)
 434:	0b 49 13             	or     0x13(%ecx),%ecx
 437:	00 00                	add    %al,(%eax)
 439:	08 13                	or     %dl,(%ebx)
 43b:	01 03                	add    %eax,(%ebx)
 43d:	0e                   	push   %cs
 43e:	0b 0b                	or     (%ebx),%ecx
 440:	3a 0b                	cmp    (%ebx),%cl
 442:	3b 0b                	cmp    (%ebx),%ecx
 444:	01 13                	add    %edx,(%ebx)
 446:	00 00                	add    %al,(%eax)
 448:	09 0d 00 03 0e 3a    	or     %ecx,0x3a0e0300
 44e:	0b 3b                	or     (%ebx),%edi
 450:	05 49 13 38 0a       	add    $0xa381349,%eax
 455:	00 00                	add    %al,(%eax)
 457:	0a 0f                	or     (%edi),%cl
 459:	00 0b                	add    %cl,(%ebx)
 45b:	0b 03                	or     (%ebx),%eax
 45d:	0e                   	push   %cs
 45e:	49                   	dec    %ecx
 45f:	13 00                	adc    (%eax),%eax
 461:	00 0b                	add    %cl,(%ebx)
 463:	16                   	push   %ss
 464:	00 03                	add    %al,(%ebx)
 466:	0e                   	push   %cs
 467:	3a 0b                	cmp    (%ebx),%cl
 469:	3b 0b                	cmp    (%ebx),%ecx
 46b:	00 00                	add    %al,(%eax)
 46d:	0c 0d                	or     $0xd,%al
 46f:	00 03                	add    %al,(%ebx)
 471:	0e                   	push   %cs
 472:	3a 0b                	cmp    (%ebx),%cl
 474:	3b 0b                	cmp    (%ebx),%ecx
 476:	49                   	dec    %ecx
 477:	13 38                	adc    (%eax),%edi
 479:	0a 00                	or     (%eax),%al
 47b:	00 0d 01 01 49 13    	add    %cl,0x13490101
 481:	01 13                	add    %edx,(%ebx)
 483:	00 00                	add    %al,(%eax)
 485:	0e                   	push   %cs
 486:	21 00                	and    %eax,(%eax)
 488:	49                   	dec    %ecx
 489:	13 2f                	adc    (%edi),%ebp
 48b:	0b 00                	or     (%eax),%eax
 48d:	00 0f                	add    %cl,(%edi)
 48f:	26 00 49 13          	add    %cl,%es:0x13(%ecx)
 493:	00 00                	add    %al,(%eax)
 495:	10 13                	adc    %dl,(%ebx)
 497:	01 0b                	add    %ecx,(%ebx)
 499:	05 3a 0b 3b 0b       	add    $0xb3b0b3a,%eax
 49e:	01 13                	add    %edx,(%ebx)
 4a0:	00 00                	add    %al,(%eax)
 4a2:	11 2e                	adc    %ebp,(%esi)
 4a4:	01 3f                	add    %edi,(%edi)
 4a6:	0c 03                	or     $0x3,%al
 4a8:	0e                   	push   %cs
 4a9:	3a 0b                	cmp    (%ebx),%cl
 4ab:	3b 05 27 0c 49 13    	cmp    0x13490c27,%eax
 4b1:	20 0b                	and    %cl,(%ebx)
 4b3:	01 13                	add    %edx,(%ebx)
 4b5:	00 00                	add    %al,(%eax)
 4b7:	12 05 00 03 0e 3a    	adc    0x3a0e0300,%al
 4bd:	0b 3b                	or     (%ebx),%edi
 4bf:	05 49 13 00 00       	add    $0x1349,%eax
 4c4:	13 2e                	adc    (%esi),%ebp
 4c6:	01 3f                	add    %edi,(%edi)
 4c8:	0c 03                	or     $0x3,%al
 4ca:	08 3a                	or     %bh,(%edx)
 4cc:	0b 3b                	or     (%ebx),%edi
 4ce:	0b 27                	or     (%edi),%esp
 4d0:	0c 11                	or     $0x11,%al
 4d2:	01 12                	add    %edx,(%edx)
 4d4:	01 40 06             	add    %eax,0x6(%eax)
 4d7:	01 13                	add    %edx,(%ebx)
 4d9:	00 00                	add    %al,(%eax)
 4db:	14 05                	adc    $0x5,%al
 4dd:	00 03                	add    %al,(%ebx)
 4df:	0e                   	push   %cs
 4e0:	3a 0b                	cmp    (%ebx),%cl
 4e2:	3b 0b                	cmp    (%ebx),%ecx
 4e4:	49                   	dec    %ecx
 4e5:	13 02                	adc    (%edx),%eax
 4e7:	06                   	push   %es
 4e8:	00 00                	add    %al,(%eax)
 4ea:	15 18 00 00 00       	adc    $0x18,%eax
 4ef:	16                   	push   %ss
 4f0:	34 00                	xor    $0x0,%al
 4f2:	03 0e                	add    (%esi),%ecx
 4f4:	3a 0b                	cmp    (%ebx),%cl
 4f6:	3b 0b                	cmp    (%ebx),%ecx
 4f8:	49                   	dec    %ecx
 4f9:	13 02                	adc    (%edx),%eax
 4fb:	06                   	push   %es
 4fc:	00 00                	add    %al,(%eax)
 4fe:	17                   	pop    %ss
 4ff:	34 00                	xor    $0x0,%al
 501:	03 08                	add    (%eax),%ecx
 503:	3a 0b                	cmp    (%ebx),%cl
 505:	3b 0b                	cmp    (%ebx),%ecx
 507:	49                   	dec    %ecx
 508:	13 02                	adc    (%edx),%eax
 50a:	0a 00                	or     (%eax),%al
 50c:	00 18                	add    %bl,(%eax)
 50e:	13 00                	adc    (%eax),%eax
 510:	03 08                	add    (%eax),%ecx
 512:	3c 0c                	cmp    $0xc,%al
 514:	00 00                	add    %al,(%eax)
 516:	19 34 00             	sbb    %esi,(%eax,%eax,1)
 519:	03 08                	add    (%eax),%ecx
 51b:	3a 0b                	cmp    (%ebx),%cl
 51d:	3b 0b                	cmp    (%ebx),%ecx
 51f:	49                   	dec    %ecx
 520:	13 00                	adc    (%eax),%eax
 522:	00 1a                	add    %bl,(%edx)
 524:	34 00                	xor    $0x0,%al
 526:	03 0e                	add    (%esi),%ecx
 528:	3a 0b                	cmp    (%ebx),%cl
 52a:	3b 0b                	cmp    (%ebx),%ecx
 52c:	49                   	dec    %ecx
 52d:	13 02                	adc    (%edx),%eax
 52f:	0a 00                	or     (%eax),%al
 531:	00 1b                	add    %bl,(%ebx)
 533:	2e 01 3f             	add    %edi,%cs:(%edi)
 536:	0c 03                	or     $0x3,%al
 538:	0e                   	push   %cs
 539:	3a 0b                	cmp    (%ebx),%cl
 53b:	3b 0b                	cmp    (%ebx),%ecx
 53d:	27                   	daa    
 53e:	0c 49                	or     $0x49,%al
 540:	13 11                	adc    (%ecx),%edx
 542:	01 12                	add    %edx,(%edx)
 544:	01 40 06             	add    %eax,0x6(%eax)
 547:	01 13                	add    %edx,(%ebx)
 549:	00 00                	add    %al,(%eax)
 54b:	1c 34                	sbb    $0x34,%al
 54d:	00 03                	add    %al,(%ebx)
 54f:	0e                   	push   %cs
 550:	3a 0b                	cmp    (%ebx),%cl
 552:	3b 0b                	cmp    (%ebx),%ecx
 554:	49                   	dec    %ecx
 555:	13 00                	adc    (%eax),%eax
 557:	00 1d 0b 01 11 01    	add    %bl,0x111010b
 55d:	12 01                	adc    (%ecx),%al
 55f:	01 13                	add    %edx,(%ebx)
 561:	00 00                	add    %al,(%eax)
 563:	1e                   	push   %ds
 564:	0b 01                	or     (%ecx),%eax
 566:	11 01                	adc    %eax,(%ecx)
 568:	12 01                	adc    (%ecx),%al
 56a:	00 00                	add    %al,(%eax)
 56c:	1f                   	pop    %ds
 56d:	2e 01 3f             	add    %edi,%cs:(%edi)
 570:	0c 03                	or     $0x3,%al
 572:	0e                   	push   %cs
 573:	3a 0b                	cmp    (%ebx),%cl
 575:	3b 0b                	cmp    (%ebx),%ecx
 577:	27                   	daa    
 578:	0c 11                	or     $0x11,%al
 57a:	01 12                	add    %edx,(%edx)
 57c:	01 40 06             	add    %eax,0x6(%eax)
 57f:	01 13                	add    %edx,(%ebx)
 581:	00 00                	add    %al,(%eax)
 583:	20 1d 01 31 13 11    	and    %bl,0x11133101
 589:	01 12                	add    %edx,(%edx)
 58b:	01 58 0b             	add    %ebx,0xb(%eax)
 58e:	59                   	pop    %ecx
 58f:	0b 00                	or     (%eax),%eax
 591:	00 21                	add    %ah,(%ecx)
 593:	05 00 31 13 00       	add    $0x133100,%eax
 598:	00 22                	add    %ah,(%edx)
 59a:	05 00 03 0e 3a       	add    $0x3a0e0300,%eax
 59f:	0b 3b                	or     (%ebx),%edi
 5a1:	0b 49 13             	or     0x13(%ecx),%ecx
 5a4:	02 0a                	add    (%edx),%cl
 5a6:	00 00                	add    %al,(%eax)
 5a8:	23 05 00 03 08 3a    	and    0x3a080300,%eax
 5ae:	0b 3b                	or     (%ebx),%edi
 5b0:	0b 49 13             	or     0x13(%ecx),%ecx
 5b3:	02 06                	add    (%esi),%al
 5b5:	00 00                	add    %al,(%eax)
 5b7:	24 2e                	and    $0x2e,%al
 5b9:	01 3f                	add    %edi,(%edi)
 5bb:	0c 03                	or     $0x3,%al
 5bd:	0e                   	push   %cs
 5be:	3a 0b                	cmp    (%ebx),%cl
 5c0:	3b 0b                	cmp    (%ebx),%ecx
 5c2:	11 01                	adc    %eax,(%ecx)
 5c4:	12 01                	adc    (%ecx),%al
 5c6:	40                   	inc    %eax
 5c7:	06                   	push   %es
 5c8:	01 13                	add    %edx,(%ebx)
 5ca:	00 00                	add    %al,(%eax)
 5cc:	25 34 00 03 08       	and    $0x8030034,%eax
 5d1:	3a 0b                	cmp    (%ebx),%cl
 5d3:	3b 0b                	cmp    (%ebx),%ecx
 5d5:	49                   	dec    %ecx
 5d6:	13 02                	adc    (%edx),%eax
 5d8:	06                   	push   %es
 5d9:	00 00                	add    %al,(%eax)
 5db:	26 2e 01 3f          	add    %edi,%cs:%es:(%edi)
 5df:	0c 03                	or     $0x3,%al
 5e1:	0e                   	push   %cs
 5e2:	3a 0b                	cmp    (%ebx),%cl
 5e4:	3b 0b                	cmp    (%ebx),%ecx
 5e6:	49                   	dec    %ecx
 5e7:	13 11                	adc    (%ecx),%edx
 5e9:	01 12                	add    %edx,(%edx)
 5eb:	01 40 06             	add    %eax,0x6(%eax)
 5ee:	01 13                	add    %edx,(%ebx)
 5f0:	00 00                	add    %al,(%eax)
 5f2:	27                   	daa    
 5f3:	34 00                	xor    $0x0,%al
 5f5:	03 0e                	add    (%esi),%ecx
 5f7:	3a 0b                	cmp    (%ebx),%cl
 5f9:	3b 0b                	cmp    (%ebx),%ecx
 5fb:	49                   	dec    %ecx
 5fc:	13 3f                	adc    (%edi),%edi
 5fe:	0c 3c                	or     $0x3c,%al
 600:	0c 00                	or     $0x0,%al
 602:	00 00                	add    %al,(%eax)
 604:	01 11                	add    %edx,(%ecx)
 606:	00 10                	add    %dl,(%eax)
 608:	06                   	push   %es
 609:	55                   	push   %ebp
 60a:	06                   	push   %es
 60b:	03 08                	add    (%eax),%ecx
 60d:	1b 08                	sbb    (%eax),%ecx
 60f:	25 08 13 05 00       	and    $0x51308,%eax
	...
Disassembly of section .debug_line:

00000000 <.debug_line>:
   0:	23 00                	and    (%eax),%eax
   2:	00 00                	add    %al,(%eax)
   4:	02 00                	add    (%eax),%al
   6:	1d 00 00 00 01       	sbb    $0x1000000,%eax
   b:	01 fb                	add    %edi,%ebx
   d:	0e                   	push   %cs
   e:	0d 00 01 01 01       	or     $0x1010100,%eax
  13:	01 00                	add    %eax,(%eax)
  15:	00 00                	add    %al,(%eax)
  17:	01 00                	add    %eax,(%eax)
  19:	00 01                	add    %al,(%ecx)
  1b:	00 69 6e             	add    %ch,0x6e(%ecx)
  1e:	69 74 2e 63 00 00 00 	imul   $0x0,0x63(%esi,%ebp,1),%esi
  25:	00 
  26:	00 82 00 00 00 02    	add    %al,0x2000000(%edx)
  2c:	00 4e 00             	add    %cl,0x0(%esi)
  2f:	00 00                	add    %al,(%eax)
  31:	01 01                	add    %eax,(%ecx)
  33:	fb                   	sti    
  34:	0e                   	push   %cs
  35:	0d 00 01 01 01       	or     $0x1010100,%eax
  3a:	01 00                	add    %eax,(%eax)
  3c:	00 00                	add    %al,(%eax)
  3e:	01 00                	add    %eax,(%eax)
  40:	00 01                	add    %al,(%ecx)
  42:	2f                   	das    
  43:	62 75 69             	bound  %esi,0x69(%ebp)
  46:	6c                   	insb   (%dx),%es:(%edi)
  47:	64                   	fs
  48:	2f                   	das    
  49:	62 75 69             	bound  %esi,0x69(%ebp)
  4c:	6c                   	insb   (%dx),%es:(%edi)
  4d:	64                   	fs
  4e:	64                   	fs
  4f:	2f                   	das    
  50:	67 6c                	addr16 insb (%dx),%es:(%di)
  52:	69 62 63 2d 32 2e 37 	imul   $0x372e322d,0x63(%edx),%esp
  59:	2f                   	das    
  5a:	62 75 69             	bound  %esi,0x69(%ebp)
  5d:	6c                   	insb   (%dx),%es:(%edi)
  5e:	64                   	fs
  5f:	2d 74 72 65 65       	sub    $0x65657274,%eax
  64:	2f                   	das    
  65:	69 33 38 36 2d 6c    	imul   $0x6c2d3638,(%ebx),%esi
  6b:	69 62 63 2f 63 73 75 	imul   $0x7573632f,0x63(%edx),%esp
  72:	00 00                	add    %al,(%eax)
  74:	63 72 74             	arpl   %si,0x74(%edx)
  77:	69 2e 53 00 01 00    	imul   $0x10053,(%esi),%ebp
  7d:	00 00                	add    %al,(%eax)
  7f:	00 05 02 08 8c 04    	add    %al,0x48c0802
  85:	08 03                	or     %al,(%ebx)
  87:	0e                   	push   %cs
  88:	01 21                	add    %esp,(%ecx)
  8a:	2f                   	das    
  8b:	21 3d 5a 21 67 67    	and    %edi,0x6767215a
  91:	2f                   	das    
  92:	2f                   	das    
  93:	02 05 00 01 01 00    	add    0x10100,%al
  99:	05 02 bc ab 04       	add    $0x4abbc02,%eax
  9e:	08 03                	or     %al,(%ebx)
  a0:	28 01                	sub    %al,(%ecx)
  a2:	21 2f                	and    %ebp,(%edi)
  a4:	21 3d 5a 21 02 06    	and    %edi,0x602215a
  aa:	00 01                	add    %al,(%ecx)
  ac:	01 df                	add    %ebx,%edi
  ae:	01 00                	add    %eax,(%eax)
  b0:	00 02                	add    %al,(%edx)
  b2:	00 12                	add    %dl,(%edx)
  b4:	01 00                	add    %eax,(%eax)
  b6:	00 01                	add    %al,(%ecx)
  b8:	01 fb                	add    %edi,%ebx
  ba:	0e                   	push   %cs
  bb:	0d 00 01 01 01       	or     $0x1010100,%eax
  c0:	01 00                	add    %eax,(%eax)
  c2:	00 00                	add    %al,(%eax)
  c4:	01 00                	add    %eax,(%eax)
  c6:	00 01                	add    %al,(%ecx)
  c8:	2f                   	das    
  c9:	75 73                	jne    13e <_init-0x8048aca>
  cb:	72 2f                	jb     fc <_init-0x8048b0c>
  cd:	6c                   	insb   (%dx),%es:(%edi)
  ce:	69 62 2f 67 63 63 2f 	imul   $0x2f636367,0x2f(%edx),%esp
  d5:	69 34 38 36 2d 6c 69 	imul   $0x696c2d36,(%eax,%edi,1),%esi
  dc:	6e                   	outsb  %ds:(%esi),(%dx)
  dd:	75 78                	jne    157 <_init-0x8048ab1>
  df:	2d 67 6e 75 2f       	sub    $0x2f756e67,%eax
  e4:	34 2e                	xor    $0x2e,%al
  e6:	32 2e                	xor    (%esi),%ch
  e8:	33 2f                	xor    (%edi),%ebp
  ea:	69 6e 63 6c 75 64 65 	imul   $0x6564756c,0x63(%esi),%ebp
  f1:	00 2f                	add    %ch,(%edi)
  f3:	75 73                	jne    168 <_init-0x8048aa0>
  f5:	72 2f                	jb     126 <_init-0x8048ae2>
  f7:	69 6e 63 6c 75 64 65 	imul   $0x6564756c,0x63(%esi),%ebp
  fe:	2f                   	das    
  ff:	62 69 74             	bound  %ebp,0x74(%ecx)
 102:	73 00                	jae    104 <_init-0x8048b04>
 104:	2f                   	das    
 105:	75 73                	jne    17a <_init-0x8048a8e>
 107:	72 2f                	jb     138 <_init-0x8048ad0>
 109:	69 6e 63 6c 75 64 65 	imul   $0x6564756c,0x63(%esi),%ebp
 110:	00 2f                	add    %ch,(%edi)
 112:	75 73                	jne    187 <_init-0x8048a81>
 114:	72 2f                	jb     145 <_init-0x8048ac3>
 116:	69 6e 63 6c 75 64 65 	imul   $0x6564756c,0x63(%esi),%ebp
 11d:	2f                   	das    
 11e:	73 79                	jae    199 <_init-0x8048a6f>
 120:	73 00                	jae    122 <_init-0x8048ae6>
 122:	2f                   	das    
 123:	75 73                	jne    198 <_init-0x8048a70>
 125:	72 2f                	jb     156 <_init-0x8048ab2>
 127:	69 6e 63 6c 75 64 65 	imul   $0x6564756c,0x63(%esi),%ebp
 12e:	2f                   	das    
 12f:	6e                   	outsb  %ds:(%esi),(%dx)
 130:	65                   	gs
 131:	74 69                	je     19c <_init-0x8048a6c>
 133:	6e                   	outsb  %ds:(%esi),(%dx)
 134:	65                   	gs
 135:	74 00                	je     137 <_init-0x8048ad1>
 137:	00 6d 61             	add    %ch,0x61(%ebp)
 13a:	69 6e 2e 63 00 00 00 	imul   $0x63,0x2e(%esi),%ebp
 141:	00 73 74             	add    %dh,0x74(%ebx)
 144:	64                   	fs
 145:	64                   	fs
 146:	65                   	gs
 147:	66                   	data16
 148:	2e                   	cs
 149:	68 00 01 00 00       	push   $0x100
 14e:	74 79                	je     1c9 <_init-0x8048a3f>
 150:	70 65                	jo     1b7 <_init-0x8048a51>
 152:	73 2e                	jae    182 <_init-0x8048a86>
 154:	68 00 02 00 00       	push   $0x200
 159:	6c                   	insb   (%dx),%es:(%edi)
 15a:	69 62 69 6f 2e 68 00 	imul   $0x682e6f,0x69(%edx),%esp
 161:	03 00                	add    (%eax),%eax
 163:	00 73 74             	add    %dh,0x74(%ebx)
 166:	64 69 6f 2e 68 00 03 	imul   $0x30068,%fs:0x2e(%edi),%ebp
 16d:	00 
 16e:	00 74 69 6d          	add    %dh,0x6d(%ecx,%ebp,2)
 172:	65                   	gs
 173:	2e                   	cs
 174:	68 00 02 00 00       	push   $0x200
 179:	73 65                	jae    1e0 <_init-0x8048a28>
 17b:	6c                   	insb   (%dx),%es:(%edi)
 17c:	65 63 74 2e 68       	arpl   %si,%gs:0x68(%esi,%ebp,1)
 181:	00 04 00             	add    %al,(%eax,%eax,1)
 184:	00 73 74             	add    %dh,0x74(%ebx)
 187:	64 69 6e 74 2e 68 00 	imul   $0x300682e,%fs:0x74(%esi),%ebp
 18e:	03 
 18f:	00 00                	add    %al,(%eax)
 191:	73 6f                	jae    202 <_init-0x8048a06>
 193:	63 6b 61             	arpl   %bp,0x61(%ebx)
 196:	64                   	fs
 197:	64                   	fs
 198:	72 2e                	jb     1c8 <_init-0x8048a40>
 19a:	68 00 02 00 00       	push   $0x200
 19f:	73 6f                	jae    210 <_init-0x80489f8>
 1a1:	63 6b 65             	arpl   %bp,0x65(%ebx)
 1a4:	74 2e                	je     1d4 <_init-0x8048a34>
 1a6:	68 00 02 00 00       	push   $0x200
 1ab:	69 6e 2e 68 00 05 00 	imul   $0x50068,0x2e(%esi),%ebp
 1b2:	00 70 77             	add    %dh,0x77(%eax)
 1b5:	64                   	fs
 1b6:	2e                   	cs
 1b7:	68 00 03 00 00       	push   $0x300
 1bc:	67 68 74 74 70 64    	addr16 push $0x64707474
 1c2:	2e                   	cs
 1c3:	68 00 00 00 00       	push   $0x0
 1c8:	00 00                	add    %al,(%eax)
 1ca:	05 02 c0 90 04       	add    $0x490c002,%eax
 1cf:	08 03                	or     %al,(%ebx)
 1d1:	de 01                	fiadd  (%ecx)
 1d3:	01 66 3d             	add    %esp,0x3d(%esi)
 1d6:	5c                   	pop    %esp
 1d7:	5f                   	pop    %edi
 1d8:	03 7a 20             	add    0x20(%edx),%edi
 1db:	b7 03                	mov    $0x3,%bh
 1dd:	09 08                	or     %ecx,(%eax)
 1df:	e4 2b                	in     $0x2b,%al
 1e1:	08 e5                	or     %ah,%ch
 1e3:	03 5d d6             	add    -0x2a(%ebp),%ebx
 1e6:	7a 62                	jp     24a <_init-0x80489be>
 1e8:	78 08                	js     1f2 <_init-0x8048a16>
 1ea:	79 08                	jns    1f4 <_init-0x8048a14>
 1ec:	21 ad af 08 9f 02    	and    %ebp,0x29f08af(%ebp)
 1f2:	23 14 bd 03 71 82 03 	and    0x3827103(,%edi,4),%edx
 1f9:	e5 7e                	in     $0x7e,%eax
 1fb:	08 90 03 1f d6 03    	or     %dl,0x3d61f03(%eax)
 201:	61                   	popa   
 202:	58                   	pop    %eax
 203:	03 1f                	add    (%edi),%ebx
 205:	20 03                	and    %al,(%ebx)
 207:	61                   	popa   
 208:	58                   	pop    %eax
 209:	03 0d 82 02 43 13    	add    0x13430282,%ecx
 20f:	02 24 13             	add    (%ebx,%edx,1),%ah
 212:	08 9f 02 45 18 9f    	or     %bl,-0x60e7bafe(%edi)
 218:	08 5e 5a             	or     %bl,0x5a(%esi)
 21b:	dd 08                	fisttpll (%eax)
 21d:	ae                   	scas   %es:(%edi),%al
 21e:	03 0b                	add    (%ebx),%ecx
 220:	02 27                	add    (%edi),%ah
 222:	01 3b                	add    %edi,(%ebx)
 224:	75 02                	jne    228 <_init-0x80489e0>
 226:	24 16                	and    $0x16,%al
 228:	ca 3b 72             	lret   $0x723b
 22b:	69 d8 08 c2 08 8a    	imul   $0x8a08c208,%eax,%ebx
 231:	08 3d 08 3d 08 3d    	or     %bh,0x3d083d08
 237:	08 3e                	or     %bh,(%esi)
 239:	59                   	pop    %ecx
 23a:	97                   	xchg   %eax,%edi
 23b:	03 2d ac 03 9b 7f    	add    0x7f9b03ac,%ebp
 241:	e4 03                	in     $0x3,%al
 243:	ed                   	in     (%dx),%eax
 244:	00 58 03             	add    %bl,0x3(%eax)
 247:	9c                   	pushf  
 248:	7f e4                	jg     22e <_init-0x80489da>
 24a:	bb 03 14 82 bb       	mov    $0xbb821403,%ebx
 24f:	59                   	pop    %ecx
 250:	b7 bb                	mov    $0xbb,%bh
 252:	a4                   	movsb  %ds:(%esi),%es:(%edi)
 253:	bb 03 0e 9e bb       	mov    $0xbb9e0e03,%ebx
 258:	a5                   	movsl  %ds:(%esi),%es:(%edi)
 259:	08 4c 5b 08          	or     %cl,0x8(%ebx,%ebx,2)
 25d:	21 ad dc 3a 76 08    	and    %ebp,0x8763adc(%ebp)
 263:	69 03 1c 90 84 03    	imul   $0x384901c,(%ebx),%eax
 269:	67 02 22             	addr16 add (%bp,%si),%ah
 26c:	01 02                	add    %eax,(%edx)
 26e:	28 10                	sub    %dl,(%eax)
 270:	83 02 22             	addl   $0x22,(%edx)
 273:	13 83 2d 9f 08 bb    	adc    -0x44f760d3(%ebx),%eax
 279:	69 39 77 64 75 70    	imul   $0x70756477,(%ecx),%edi
 27f:	79 02                	jns    283 <_init-0x8048985>
 281:	28 14 08             	sub    %dl,(%eax,%ecx,1)
 284:	3f                   	aas    
 285:	ca 02 23             	lret   $0x2302
 288:	13 08                	adc    (%eax),%ecx
 28a:	19 02                	sbb    %eax,(%edx)
 28c:	0d 00 01 01 43       	or     $0x43010100,%eax
 291:	02 00                	add    (%eax),%al
 293:	00 02                	add    %al,(%edx)
 295:	00 f2                	add    %dh,%dl
 297:	00 00                	add    %al,(%eax)
 299:	00 01                	add    %al,(%ecx)
 29b:	01 fb                	add    %edi,%ebx
 29d:	0e                   	push   %cs
 29e:	0d 00 01 01 01       	or     $0x1010100,%eax
 2a3:	01 00                	add    %eax,(%eax)
 2a5:	00 00                	add    %al,(%eax)
 2a7:	01 00                	add    %eax,(%eax)
 2a9:	00 01                	add    %al,(%ecx)
 2ab:	2f                   	das    
 2ac:	75 73                	jne    321 <_init-0x80488e7>
 2ae:	72 2f                	jb     2df <_init-0x8048929>
 2b0:	6c                   	insb   (%dx),%es:(%edi)
 2b1:	69 62 2f 67 63 63 2f 	imul   $0x2f636367,0x2f(%edx),%esp
 2b8:	69 34 38 36 2d 6c 69 	imul   $0x696c2d36,(%eax,%edi,1),%esi
 2bf:	6e                   	outsb  %ds:(%esi),(%dx)
 2c0:	75 78                	jne    33a <_init-0x80488ce>
 2c2:	2d 67 6e 75 2f       	sub    $0x2f756e67,%eax
 2c7:	34 2e                	xor    $0x2e,%al
 2c9:	32 2e                	xor    (%esi),%ch
 2cb:	33 2f                	xor    (%edi),%ebp
 2cd:	69 6e 63 6c 75 64 65 	imul   $0x6564756c,0x63(%esi),%ebp
 2d4:	00 2f                	add    %ch,(%edi)
 2d6:	75 73                	jne    34b <_init-0x80488bd>
 2d8:	72 2f                	jb     309 <_init-0x80488ff>
 2da:	69 6e 63 6c 75 64 65 	imul   $0x6564756c,0x63(%esi),%ebp
 2e1:	2f                   	das    
 2e2:	62 69 74             	bound  %ebp,0x74(%ecx)
 2e5:	73 00                	jae    2e7 <_init-0x8048921>
 2e7:	2f                   	das    
 2e8:	75 73                	jne    35d <_init-0x80488ab>
 2ea:	72 2f                	jb     31b <_init-0x80488ed>
 2ec:	69 6e 63 6c 75 64 65 	imul   $0x6564756c,0x63(%esi),%ebp
 2f3:	00 2f                	add    %ch,(%edi)
 2f5:	75 73                	jne    36a <_init-0x804889e>
 2f7:	72 2f                	jb     328 <_init-0x80488e0>
 2f9:	69 6e 63 6c 75 64 65 	imul   $0x6564756c,0x63(%esi),%ebp
 300:	2f                   	das    
 301:	6e                   	outsb  %ds:(%esi),(%dx)
 302:	65                   	gs
 303:	74 69                	je     36e <_init-0x804889a>
 305:	6e                   	outsb  %ds:(%esi),(%dx)
 306:	65                   	gs
 307:	74 00                	je     309 <_init-0x80488ff>
 309:	00 70 72             	add    %dh,0x72(%eax)
 30c:	6f                   	outsl  %ds:(%esi),(%dx)
 30d:	74 6f                	je     37e <_init-0x804888a>
 30f:	63 6f 6c             	arpl   %bp,0x6c(%edi)
 312:	2e 63 00             	arpl   %ax,%cs:(%eax)
 315:	00 00                	add    %al,(%eax)
 317:	00 73 74             	add    %dh,0x74(%ebx)
 31a:	64                   	fs
 31b:	64                   	fs
 31c:	65                   	gs
 31d:	66                   	data16
 31e:	2e                   	cs
 31f:	68 00 01 00 00       	push   $0x100
 324:	74 79                	je     39f <_init-0x8048869>
 326:	70 65                	jo     38d <_init-0x804887b>
 328:	73 2e                	jae    358 <_init-0x80488b0>
 32a:	68 00 02 00 00       	push   $0x200
 32f:	73 74                	jae    3a5 <_init-0x8048863>
 331:	64 69 6f 2e 68 00 03 	imul   $0x30068,%fs:0x2e(%edi),%ebp
 338:	00 
 339:	00 6c 69 62          	add    %ch,0x62(%ecx,%ebp,2)
 33d:	69 6f 2e 68 00 03 00 	imul   $0x30068,0x2e(%edi),%ebp
 344:	00 73 74             	add    %dh,0x74(%ebx)
 347:	64 69 6e 74 2e 68 00 	imul   $0x300682e,%fs:0x74(%esi),%ebp
 34e:	03 
 34f:	00 00                	add    %al,(%eax)
 351:	73 6f                	jae    3c2 <_init-0x8048846>
 353:	63 6b 61             	arpl   %bp,0x61(%ebx)
 356:	64                   	fs
 357:	64                   	fs
 358:	72 2e                	jb     388 <_init-0x8048880>
 35a:	68 00 02 00 00       	push   $0x200
 35f:	73 6f                	jae    3d0 <_init-0x8048838>
 361:	63 6b 65             	arpl   %bp,0x65(%ebx)
 364:	74 2e                	je     394 <_init-0x8048874>
 366:	68 00 02 00 00       	push   $0x200
 36b:	69 6e 2e 68 00 04 00 	imul   $0x40068,0x2e(%esi),%ebp
 372:	00 64 69 72          	add    %ah,0x72(%ecx,%ebp,2)
 376:	65 6e                	outsb  %gs:(%esi),(%dx)
 378:	74 2e                	je     3a8 <_init-0x8048860>
 37a:	68 00 02 00 00       	push   $0x200
 37f:	67 68 74 74 70 64    	addr16 push $0x64707474
 385:	2e                   	cs
 386:	68 00 00 00 00       	push   $0x0
 38b:	00 00                	add    %al,(%eax)
 38d:	05 02 b0 96 04       	add    $0x496b002,%eax
 392:	08 03                	or     %al,(%ebx)
 394:	82                   	(bad)  
 395:	02 01                	add    (%ecx),%al
 397:	ba 03 09 3c 64       	mov    $0x643c0903,%edx
 39c:	08 ca                	or     %cl,%dl
 39e:	08 76 02             	or     %dh,0x2(%esi)
 3a1:	2c 14                	sub    $0x14,%al
 3a3:	02 28                	add    (%eax),%ch
 3a5:	15 02 25 14 f4       	adc    $0xf4142502,%eax
 3aa:	72 68                	jb     414 <_init-0x80487f4>
 3ac:	69 b8 ca 08 80 6a 38 	imul   $0x2e024038,0x6a8008ca(%eax),%edi
 3b3:	40 02 2e 
 3b6:	13 83 3b 2f 59 65    	adc    0x65592f3b(%ebx),%eax
 3bc:	75 02                	jne    3c0 <_init-0x8048848>
 3be:	29 13                	sub    %edx,(%ebx)
 3c0:	02 2c 17             	add    (%edi,%edx,1),%ch
 3c3:	03 73 ac             	add    -0x54(%ebx),%esi
 3c6:	03 0c ba             	add    (%edx,%edi,4),%ecx
 3c9:	02 25 13 03 43 c8    	add    0xc8430313,%ah
 3cf:	25 53 33 29 41       	and    $0x41293353,%eax
 3d4:	45                   	inc    %ebp
 3d5:	3c 41                	cmp    $0x41,%al
 3d7:	f5                   	cmc    
 3d8:	9f                   	lahf   
 3d9:	49                   	dec    %ecx
 3da:	e8 2f 08 3b ec       	call   ec3b0c0e <_end+0xe4362792>
 3df:	ed                   	in     (%dx),%eax
 3e0:	5d                   	pop    %ebp
 3e1:	02 42 14             	add    0x14(%edx),%al
 3e4:	08 4b 02             	or     %cl,0x2(%ebx)
 3e7:	3b 13                	cmp    (%ebx),%edx
 3e9:	7e 03                	jle    3ee <_init-0x804881a>
 3eb:	aa                   	stos   %al,%es:(%edi)
 3ec:	7e 82                	jle    370 <_init-0x8048898>
 3ee:	03 09                	add    (%ecx),%ecx
 3f0:	66 03 77 2e          	add    0x2e(%edi),%si
 3f4:	03 09                	add    (%ecx),%ecx
 3f6:	ba c2 02 28 14       	mov    $0x142802c2,%edx
 3fb:	03 ab 01 02 2c 01    	add    0x12c0201(%ebx),%ebp
 401:	59                   	pop    %ecx
 402:	03 d7                	add    %edi,%edx
 404:	7e ac                	jle    3b2 <_init-0x8048856>
 406:	83 73 08 31          	xorl   $0x31,0x8(%ebx)
 40a:	83 08 5a             	orl    $0x5a,(%eax)
 40d:	2c 30                	sub    $0x30,%al
 40f:	2f                   	das    
 410:	08 a0 08 d7 08 59    	or     %ah,0x5908d708(%eax)
 416:	de 03                	fiadd  (%ebx)
 418:	e9 00 02 27 01       	jmp    127061d <_init-0x6dd85eb>
 41d:	08 e7                	or     %ah,%bh
 41f:	08 76 02             	or     %dh,0x2(%esi)
 422:	2c 17                	sub    $0x17,%al
 424:	02 2c 17             	add    (%edi,%edx,1),%ch
 427:	02 22                	add    (%edx),%ah
 429:	13 02                	adc    (%edx),%eax
 42b:	38 18                	cmp    %bl,(%eax)
 42d:	08 4b 08             	or     %cl,0x8(%ebx)
 430:	91                   	xchg   %eax,%ecx
 431:	02 34 18             	add    (%eax,%ebx,1),%dh
 434:	08 76 f4             	or     %dh,-0xc(%esi)
 437:	08 ad 08 e6 8a 03    	or     %ch,0x38ae608(%ebp)
 43d:	78 66                	js     4a5 <_init-0x8048763>
 43f:	60                   	pusha  
 440:	03 de                	add    %esi,%ebx
 442:	7e 58                	jle    49c <_init-0x804876c>
 444:	08 eb                	or     %ch,%bl
 446:	08 3d 2d 67 6e f3    	or     %bh,0xf36e672d
 44c:	d8 08                	fmuls  (%eax)
 44e:	30 9c 68 c9 08 c9 d4 	xor    %bl,-0x2b36f737(%eax,%ebp,2)
 455:	08 18                	or     %bl,(%eax)
 457:	08 ca                	or     %cl,%dl
 459:	02 25 13 08 59 03    	add    0x3590813,%ah
 45f:	d1 00                	roll   (%eax)
 461:	d6                   	(bad)  
 462:	03 2e                	add    (%esi),%ebp
 464:	08 f2                	or     %dh,%dl
 466:	84 03                	test   %al,(%ebx)
 468:	ea 7e 08 20 08 9f 08 	ljmp   $0x89f,$0x820087e
 46f:	59                   	pop    %ecx
 470:	03 17                	add    (%edi),%edx
 472:	08 2e                	or     %ch,(%esi)
 474:	08 83 02 27 19 3b    	or     %al,0x3b192702(%ebx)
 47a:	3d e1 08 b3 02       	cmp    $0x2b308e1,%eax
 47f:	32 14 08             	xor    (%eax,%ecx,1),%dl
 482:	59                   	pop    %ecx
 483:	b9 2f e6 02 24       	mov    $0x2402e62f,%ecx
 488:	14 08                	adc    $0x8,%al
 48a:	2d 3d 65 08 c1       	sub    $0xc108653d,%eax
 48f:	03 1a                	add    (%edx),%ebx
 491:	08 66 02             	or     %ah,0x2(%esi)
 494:	2c 13                	sub    $0x13,%al
 496:	08 59 02             	or     %bl,0x2(%ecx)
 499:	3a 16                	cmp    (%esi),%dl
 49b:	08 bb 02 31 15 08    	or     %bh,0x8153102(%ebx)
 4a1:	5a                   	pop    %edx
 4a2:	08 78 08             	or     %bh,0x8(%eax)
 4a5:	75 08                	jne    4af <_init-0x8048759>
 4a7:	ca 08 5a             	lret   $0x5a08
 4aa:	08 75 65             	or     %dh,0x65(%ebp)
 4ad:	9f                   	lahf   
 4ae:	08 15 08 59 03 4c    	or     %dl,0x4c035908
 4b4:	08 2e                	or     %ch,(%esi)
 4b6:	08 5a 02             	or     %bl,0x2(%edx)
 4b9:	2c 17                	sub    $0x17,%al
 4bb:	02 2c 19             	add    (%ecx,%ebx,1),%ch
 4be:	02 37                	add    (%edi),%dh
 4c0:	15 08 4b 08 4b       	adc    $0x4b084b08,%eax
 4c5:	02 24 14             	add    (%esp,%edx,1),%ah
 4c8:	d8 03                	fadds  (%ebx)
 4ca:	72 02                	jb     4ce <_init-0x804873a>
 4cc:	24 01                	and    $0x1,%al
 4ce:	03 27                	add    (%edi),%esp
 4d0:	08 20                	or     %ah,(%eax)
 4d2:	02 26                	add    (%esi),%ah
 4d4:	00 01                	add    %al,(%ecx)
 4d6:	01 28                	add    %ebp,(%eax)
 4d8:	02 00                	add    (%eax),%al
 4da:	00 02                	add    %al,(%edx)
 4dc:	00 e6                	add    %ah,%dh
 4de:	00 00                	add    %al,(%eax)
 4e0:	00 01                	add    %al,(%ecx)
 4e2:	01 fb                	add    %edi,%ebx
 4e4:	0e                   	push   %cs
 4e5:	0d 00 01 01 01       	or     $0x1010100,%eax
 4ea:	01 00                	add    %eax,(%eax)
 4ec:	00 00                	add    %al,(%eax)
 4ee:	01 00                	add    %eax,(%eax)
 4f0:	00 01                	add    %al,(%ecx)
 4f2:	2f                   	das    
 4f3:	75 73                	jne    568 <_init-0x80486a0>
 4f5:	72 2f                	jb     526 <_init-0x80486e2>
 4f7:	69 6e 63 6c 75 64 65 	imul   $0x6564756c,0x63(%esi),%ebp
 4fe:	2f                   	das    
 4ff:	73 79                	jae    57a <_init-0x804868e>
 501:	73 00                	jae    503 <_init-0x8048705>
 503:	2f                   	das    
 504:	75 73                	jne    579 <_init-0x804868f>
 506:	72 2f                	jb     537 <_init-0x80486d1>
 508:	69 6e 63 6c 75 64 65 	imul   $0x6564756c,0x63(%esi),%ebp
 50f:	00 2f                	add    %ch,(%edi)
 511:	75 73                	jne    586 <_init-0x8048682>
 513:	72 2f                	jb     544 <_init-0x80486c4>
 515:	6c                   	insb   (%dx),%es:(%edi)
 516:	69 62 2f 67 63 63 2f 	imul   $0x2f636367,0x2f(%edx),%esp
 51d:	69 34 38 36 2d 6c 69 	imul   $0x696c2d36,(%eax,%edi,1),%esi
 524:	6e                   	outsb  %ds:(%esi),(%dx)
 525:	75 78                	jne    59f <_init-0x8048669>
 527:	2d 67 6e 75 2f       	sub    $0x2f756e67,%eax
 52c:	34 2e                	xor    $0x2e,%al
 52e:	32 2e                	xor    (%esi),%ch
 530:	33 2f                	xor    (%edi),%ebp
 532:	69 6e 63 6c 75 64 65 	imul   $0x6564756c,0x63(%esi),%ebp
 539:	00 2f                	add    %ch,(%edi)
 53b:	75 73                	jne    5b0 <_init-0x8048658>
 53d:	72 2f                	jb     56e <_init-0x804869a>
 53f:	69 6e 63 6c 75 64 65 	imul   $0x6564756c,0x63(%esi),%ebp
 546:	2f                   	das    
 547:	62 69 74             	bound  %ebp,0x74(%ecx)
 54a:	73 00                	jae    54c <_init-0x80486bc>
 54c:	00 75 74             	add    %dh,0x74(%ebp)
 54f:	69 6c 2e 63 00 00 00 	imul   $0x0,0x63(%esi,%ebp,1),%ebp
 556:	00 
 557:	73 74                	jae    5cd <_init-0x804863b>
 559:	61                   	popa   
 55a:	74 2e                	je     58a <_init-0x804867e>
 55c:	68 00 01 00 00       	push   $0x100
 561:	73 74                	jae    5d7 <_init-0x8048631>
 563:	64                   	fs
 564:	6c                   	insb   (%dx),%es:(%edi)
 565:	69 62 2e 68 00 02 00 	imul   $0x20068,0x2e(%edx),%esp
 56c:	00 73 74             	add    %dh,0x74(%ebx)
 56f:	64                   	fs
 570:	64                   	fs
 571:	65                   	gs
 572:	66                   	data16
 573:	2e                   	cs
 574:	68 00 03 00 00       	push   $0x300
 579:	74 79                	je     5f4 <_init-0x8048614>
 57b:	70 65                	jo     5e2 <_init-0x8048626>
 57d:	73 2e                	jae    5ad <_init-0x804865b>
 57f:	68 00 04 00 00       	push   $0x400
 584:	73 74                	jae    5fa <_init-0x804860e>
 586:	64 69 6f 2e 68 00 02 	imul   $0x20068,%fs:0x2e(%edi),%ebp
 58d:	00 
 58e:	00 6c 69 62          	add    %ch,0x62(%ecx,%ebp,2)
 592:	69 6f 2e 68 00 02 00 	imul   $0x20068,0x2e(%edi),%ebp
 599:	00 73 74             	add    %dh,0x74(%ebx)
 59c:	64                   	fs
 59d:	61                   	popa   
 59e:	72 67                	jb     607 <_init-0x8048601>
 5a0:	2e                   	cs
 5a1:	68 00 03 00 00       	push   $0x300
 5a6:	74 69                	je     611 <_init-0x80485f7>
 5a8:	6d                   	insl   (%dx),%es:(%edi)
 5a9:	65                   	gs
 5aa:	2e                   	cs
 5ab:	68 00 02 00 00       	push   $0x200
 5b0:	73 74                	jae    626 <_init-0x80485e2>
 5b2:	61                   	popa   
 5b3:	74 2e                	je     5e3 <_init-0x8048625>
 5b5:	68 00 04 00 00       	push   $0x400
 5ba:	67 68 74 74 70 64    	addr16 push $0x64707474
 5c0:	2e                   	cs
 5c1:	68 00 00 00 00       	push   $0x0
 5c6:	00 00                	add    %al,(%eax)
 5c8:	05 02 00 a3 04       	add    $0x4a30002,%eax
 5cd:	08 03                	or     %al,(%ebx)
 5cf:	d0 01                	rolb   (%ecx)
 5d1:	01 c0                	add    %eax,%eax
 5d3:	03 09                	add    (%ecx),%ecx
 5d5:	58                   	pop    %eax
 5d6:	39 03                	cmp    %eax,(%ebx)
 5d8:	7a 90                	jp     56a <_init-0x804869e>
 5da:	02 2e                	add    (%esi),%ch
 5dc:	16                   	push   %ss
 5dd:	68 f5 83 3d 65       	push   $0x653d83f5
 5e2:	59                   	pop    %ecx
 5e3:	08 2d 2f 59 78 62    	or     %ch,0x6278592f
 5e9:	08 40 4b             	or     %al,0x4b(%eax)
 5ec:	65 08 3d 08 76 08 5b 	or     %bh,%gs:0x5b087608
 5f3:	bc 83 03 53 d6       	mov    $0xd6530383,%esp
 5f8:	58                   	pop    %eax
 5f9:	69 7f ce 65 d7 db 03 	imul   $0x3dbd765,-0x32(%edi),%edi
 600:	7a 20                	jp     622 <_init-0x80485e6>
 602:	5e                   	pop    %esi
 603:	03 7a 3c             	add    0x3c(%edx),%edi
 606:	ea 03 7a 3c 6c 03 bc 	ljmp   $0xbc03,$0x6c3c7a03
 60d:	7f c8                	jg     5d7 <_init-0x8048631>
 60f:	5b                   	pop    %ebx
 610:	55                   	push   %ebp
 611:	4a                   	dec    %edx
 612:	3f                   	aas    
 613:	68 08 3b 08 14       	push   $0x14083b08
 618:	03 ae 7f 08 3c 04    	add    0x43c087f(%esi),%ebp
 61e:	02 03                	add    (%ebx),%al
 620:	87 03                	xchg   %eax,(%ebx)
 622:	66                   	data16
 623:	04 01                	add    $0x1,%al
 625:	03 fc                	add    %esp,%edi
 627:	7c 08                	jl     631 <_init-0x80485d7>
 629:	90                   	nop    
 62a:	08 78 03             	or     %bh,0x3(%eax)
 62d:	72 82                	jb     5b1 <_init-0x8048657>
 62f:	04 02                	add    $0x2,%al
 631:	03 8e 03 66 04 01    	add    0x1046603(%esi),%ecx
 637:	03 f4                	add    %esp,%esi
 639:	7c 08                	jl     643 <_init-0x80485c5>
 63b:	90                   	nop    
 63c:	84 03                	test   %al,(%ebx)
 63e:	6e                   	outsb  %ds:(%esi),(%dx)
 63f:	82                   	(bad)  
 640:	74 3e                	je     680 <_init-0x8048588>
 642:	08 c9                	or     %cl,%cl
 644:	02 2c 13             	add    (%ebx,%edx,1),%ch
 647:	03 33                	add    (%ebx),%esi
 649:	ba ba 40 08 a0       	mov    $0xa00840ba,%edx
 64e:	91                   	xchg   %eax,%ecx
 64f:	08 9f 08 f3 08 f3    	or     %bl,-0xcf70cf8(%edi)
 655:	08 f4                	or     %dh,%ah
 657:	f4                   	hlt    
 658:	08 22                	or     %ah,(%edx)
 65a:	f3 08 59 e3          	repz or %bl,-0x1d(%ecx)
 65e:	2f                   	das    
 65f:	5a                   	pop    %edx
 660:	2c 30                	sub    $0x30,%al
 662:	2f                   	das    
 663:	ad                   	lods   %ds:(%esi),%eax
 664:	4c                   	dec    %esp
 665:	08 3e                	or     %bh,(%esi)
 667:	08 3d 03 71 08 20    	or     %bh,0x20087103
 66d:	03 1a                	add    (%edx),%ebx
 66f:	f2 75 03             	repnz jne 675 <_init-0x8048593>
 672:	75 ac                	jne    620 <_init-0x80485e8>
 674:	08 3d 08 67 08 3d    	or     %bh,0x3d086708
 67a:	08 67 08             	or     %ah,0x8(%edi)
 67d:	3e 08 75 08          	or     %dh,%ds:0x8(%ebp)
 681:	64 03 12             	add    %fs:(%edx),%edx
 684:	08 66 c1             	or     %ah,-0x3f(%esi)
 687:	08 cb                	or     %cl,%bl
 689:	a0 f4 08 22 bb       	mov    0xbb2208f4,%al
 68e:	08 59 e3             	or     %bl,-0x1d(%ecx)
 691:	2f                   	das    
 692:	5a                   	pop    %edx
 693:	2c 30                	sub    $0x30,%al
 695:	2f                   	das    
 696:	ad                   	lods   %ds:(%esi),%eax
 697:	4c                   	dec    %esp
 698:	08 3d 03 73 f2 03    	or     %bh,0x3f27303
 69e:	20 f2                	and    %dh,%dl
 6a0:	83 03 6d             	addl   $0x6d,(%ebx)
 6a3:	ac                   	lods   %ds:(%esi),%al
 6a4:	08 3e                	or     %bh,(%esi)
 6a6:	08 3d 08 48 08 4d    	or     %bh,0x4d084808
 6ac:	08 3e                	or     %bh,(%esi)
 6ae:	08 3d 08 48 08 4d    	or     %bh,0x4d084808
 6b4:	08 3e                	or     %bh,(%esi)
 6b6:	08 3d 04 03 03 e6    	or     %bh,0xe6030304
 6bc:	00 08                	add    %cl,(%eax)
 6be:	4a                   	dec    %edx
 6bf:	04 01                	add    $0x1,%al
 6c1:	03 98 7f 08 74 a1    	add    -0x5e8bf781(%eax),%ebx
 6c7:	08 3d ca 03 8c 7f    	or     %bh,0x7f8c03ca
 6cd:	02 22                	add    (%edx),%ah
 6cf:	01 4f 29             	add    %ecx,0x29(%edi)
 6d2:	87 87 61 08 3f bc    	xchg   %eax,-0x43c0f79f(%edi)
 6d8:	08 75 bb             	or     %dh,-0x45(%ebp)
 6db:	bc f3 03 79 08       	mov    $0x87903f3,%esp
 6e0:	3c 44                	cmp    $0x44,%al
 6e2:	03 78 66             	add    0x66(%eax),%edi
 6e5:	03 0b                	add    (%ebx),%ecx
 6e7:	90                   	nop    
 6e8:	84 03                	test   %al,(%ebx)
 6ea:	53                   	push   %ebx
 6eb:	08 58 74             	or     %bl,0x74(%eax)
 6ee:	04 02                	add    $0x2,%al
 6f0:	03 95 03 3c 04 01    	add    0x1043c03(%ebp),%edx
 6f6:	03 ed                	add    %ebp,%ebp
 6f8:	7c 08                	jl     702 <_init-0x8048506>
 6fa:	66 68 8e e6          	pushw  $0xe68e
 6fe:	02 08                	add    (%eax),%cl
 700:	00 01                	add    %al,(%ecx)
 702:	01 78 00             	add    %edi,0x0(%eax)
 705:	00 00                	add    %al,(%eax)
 707:	02 00                	add    (%eax),%al
 709:	4e                   	dec    %esi
 70a:	00 00                	add    %al,(%eax)
 70c:	00 01                	add    %al,(%ecx)
 70e:	01 fb                	add    %edi,%ebx
 710:	0e                   	push   %cs
 711:	0d 00 01 01 01       	or     $0x1010100,%eax
 716:	01 00                	add    %eax,(%eax)
 718:	00 00                	add    %al,(%eax)
 71a:	01 00                	add    %eax,(%eax)
 71c:	00 01                	add    %al,(%ecx)
 71e:	2f                   	das    
 71f:	62 75 69             	bound  %esi,0x69(%ebp)
 722:	6c                   	insb   (%dx),%es:(%edi)
 723:	64                   	fs
 724:	2f                   	das    
 725:	62 75 69             	bound  %esi,0x69(%ebp)
 728:	6c                   	insb   (%dx),%es:(%edi)
 729:	64                   	fs
 72a:	64                   	fs
 72b:	2f                   	das    
 72c:	67 6c                	addr16 insb (%dx),%es:(%di)
 72e:	69 62 63 2d 32 2e 37 	imul   $0x372e322d,0x63(%edx),%esp
 735:	2f                   	das    
 736:	62 75 69             	bound  %esi,0x69(%ebp)
 739:	6c                   	insb   (%dx),%es:(%edi)
 73a:	64                   	fs
 73b:	2d 74 72 65 65       	sub    $0x65657274,%eax
 740:	2f                   	das    
 741:	69 33 38 36 2d 6c    	imul   $0x6c2d3638,(%ebx),%esi
 747:	69 62 63 2f 63 73 75 	imul   $0x7573632f,0x63(%edx),%esp
 74e:	00 00                	add    %al,(%eax)
 750:	63 72 74             	arpl   %si,0x74(%edx)
 753:	6e                   	outsb  %ds:(%esi),(%dx)
 754:	2e                   	cs
 755:	53                   	push   %ebx
 756:	00 01                	add    %al,(%ecx)
 758:	00 00                	add    %al,(%eax)
 75a:	00 00                	add    %al,(%eax)
 75c:	05 02 34 8c 04       	add    $0x48c3402,%eax
 761:	08 03                	or     %al,(%ebx)
 763:	09 01                	or     %eax,(%ecx)
 765:	21 21                	and    %esp,(%ecx)
 767:	21 02                	and    %eax,(%edx)
 769:	01 00                	add    %eax,(%eax)
 76b:	01 01                	add    %eax,(%ecx)
 76d:	00 05 02 d4 ab 04    	add    %al,0x4abd402
 773:	08 03                	or     %al,(%ebx)
 775:	14 01                	adc    $0x1,%al
 777:	21 21                	and    %esp,(%ecx)
 779:	21 02                	and    %eax,(%edx)
 77b:	01 00                	add    %eax,(%eax)
 77d:	01 01                	add    %eax,(%ecx)
Disassembly of section .debug_frame:

00000000 <.debug_frame>:
   0:	10 00                	adc    %al,(%eax)
   2:	00 00                	add    %al,(%eax)
   4:	ff                   	(bad)  
   5:	ff                   	(bad)  
   6:	ff                   	(bad)  
   7:	ff 01                	incl   (%ecx)
   9:	00 01                	add    %al,(%ecx)
   b:	7c 08                	jl     15 <_init-0x8048bf3>
   d:	0c 04                	or     $0x4,%al
   f:	04 88                	add    $0x88,%al
  11:	01 00                	add    %eax,(%eax)
  13:	00 1c 00             	add    %bl,(%eax,%eax,1)
  16:	00 00                	add    %al,(%eax)
  18:	00 00                	add    %al,(%eax)
  1a:	00 00                	add    %al,(%eax)
  1c:	c0 90 04 08 6e 00 00 	rclb   $0x0,0x6e0804(%eax)
  23:	00 04 01             	add    %al,(%ecx,%eax,1)
  26:	00 00                	add    %al,(%eax)
  28:	00 0e                	add    %cl,(%esi)
  2a:	08 85 02 04 02 00    	or     %al,0x20402(%ebp)
  30:	00 00                	add    %al,(%eax)
  32:	0d 05 24 00 00       	or     $0x2405,%eax
  37:	00 00                	add    %al,(%eax)
  39:	00 00                	add    %al,(%eax)
  3b:	00 30                	add    %dh,(%eax)
  3d:	91                   	xchg   %eax,%ecx
  3e:	04 08                	add    $0x8,%al
  40:	b2 00                	mov    $0x0,%dl
  42:	00 00                	add    %al,(%eax)
  44:	04 01                	add    $0x1,%al
  46:	00 00                	add    %al,(%eax)
  48:	00 0e                	add    %cl,(%esi)
  4a:	08 85 02 04 02 00    	or     %al,0x20402(%ebp)
  50:	00 00                	add    %al,(%eax)
  52:	0d 05 04 04 00       	or     $0x40405,%eax
  57:	00 00                	add    %al,(%eax)
  59:	83 03 00             	addl   $0x0,(%ebx)
  5c:	48                   	dec    %eax
  5d:	00 00                	add    %al,(%eax)
  5f:	00 00                	add    %al,(%eax)
  61:	00 00                	add    %al,(%eax)
  63:	00 f0                	add    %dh,%al
  65:	91                   	xchg   %eax,%ecx
  66:	04 08                	add    $0x8,%al
  68:	bd 04 00 00 04       	mov    $0x4000004,%ebp
  6d:	04 00                	add    $0x0,%al
  6f:	00 00                	add    %al,(%eax)
  71:	0c 01                	or     $0x1,%al
  73:	00 09                	add    %cl,(%ecx)
  75:	04 01                	add    $0x1,%al
  77:	04 06                	add    $0x6,%al
  79:	00 00                	add    %al,(%eax)
  7b:	00 0c 04             	add    %cl,(%esp,%eax,1)
  7e:	04 04                	add    $0x4,%al
  80:	01 00                	add    %eax,(%eax)
  82:	00 00                	add    %al,(%eax)
  84:	0e                   	push   %cs
  85:	08 85 02 04 02 00    	or     %al,0x20402(%ebp)
  8b:	00 00                	add    %al,(%eax)
  8d:	0d 05 04 01 00       	or     $0x10405,%eax
  92:	00 00                	add    %al,(%eax)
  94:	87 03                	xchg   %eax,(%ebx)
  96:	04 06                	add    $0x6,%al
  98:	00 00                	add    %al,(%eax)
  9a:	00 86 04 04 07 00    	add    %al,0x70404(%esi)
  a0:	00 00                	add    %al,(%eax)
  a2:	84 06                	test   %al,(%esi)
  a4:	83 05 00 00 10 00 00 	addl   $0x0,0x100000
  ab:	00 ff                	add    %bh,%bh
  ad:	ff                   	(bad)  
  ae:	ff                   	(bad)  
  af:	ff 01                	incl   (%ecx)
  b1:	00 01                	add    %al,(%ecx)
  b3:	7c 08                	jl     bd <_init-0x8048b4b>
  b5:	0c 04                	or     $0x4,%al
  b7:	04 88                	add    $0x88,%al
  b9:	01 00                	add    %eax,(%eax)
  bb:	00 28                	add    %ch,(%eax)
  bd:	00 00                	add    %al,(%eax)
  bf:	00 a8 00 00 00 b0    	add    %ch,-0x50000000(%eax)
  c5:	96                   	xchg   %eax,%esi
  c6:	04 08                	add    $0x8,%al
  c8:	0e                   	push   %cs
  c9:	02 00                	add    (%eax),%al
  cb:	00 04 01             	add    %al,(%ecx,%eax,1)
  ce:	00 00                	add    %al,(%eax)
  d0:	00 0e                	add    %cl,(%esi)
  d2:	08 85 02 04 02 00    	or     %al,0x20402(%ebp)
  d8:	00 00                	add    %al,(%eax)
  da:	0d 05 04 09 00       	or     $0x90405,%eax
  df:	00 00                	add    %al,(%eax)
  e1:	83 05 86 04 87 03 00 	addl   $0x0,0x3870486
  e8:	28 00                	sub    %al,(%eax)
  ea:	00 00                	add    %al,(%eax)
  ec:	a8 00                	test   $0x0,%al
  ee:	00 00                	add    %al,(%eax)
  f0:	c0 98 04 08 1c 01 00 	rcrb   $0x0,0x11c0804(%eax)
  f7:	00 04 01             	add    %al,(%ecx,%eax,1)
  fa:	00 00                	add    %al,(%eax)
  fc:	00 0e                	add    %cl,(%esi)
  fe:	08 85 02 04 07 00    	or     %al,0x70402(%ebp)
 104:	00 00                	add    %al,(%eax)
 106:	0d 05 04 05 00       	or     $0x50405,%eax
 10b:	00 00                	add    %al,(%eax)
 10d:	83 05 86 04 87 03 00 	addl   $0x0,0x3870486
 114:	28 00                	sub    %al,(%eax)
 116:	00 00                	add    %al,(%eax)
 118:	a8 00                	test   $0x0,%al
 11a:	00 00                	add    %al,(%eax)
 11c:	e0 99                	loopne b7 <_init-0x8048b51>
 11e:	04 08                	add    $0x8,%al
 120:	18 09                	sbb    %cl,(%ecx)
 122:	00 00                	add    %al,(%eax)
 124:	04 01                	add    $0x1,%al
 126:	00 00                	add    %al,(%eax)
 128:	00 0e                	add    %cl,(%esi)
 12a:	08 85 02 04 02 00    	or     %al,0x20402(%ebp)
 130:	00 00                	add    %al,(%eax)
 132:	0d 05 04 03 00       	or     $0x30405,%eax
 137:	00 00                	add    %al,(%eax)
 139:	83 05 86 04 87 03 00 	addl   $0x0,0x3870486
 140:	10 00                	adc    %al,(%eax)
 142:	00 00                	add    %al,(%eax)
 144:	ff                   	(bad)  
 145:	ff                   	(bad)  
 146:	ff                   	(bad)  
 147:	ff 01                	incl   (%ecx)
 149:	00 01                	add    %al,(%ecx)
 14b:	7c 08                	jl     155 <_init-0x8048ab3>
 14d:	0c 04                	or     $0x4,%al
 14f:	04 88                	add    $0x88,%al
 151:	01 00                	add    %eax,(%eax)
 153:	00 28                	add    %ch,(%eax)
 155:	00 00                	add    %al,(%eax)
 157:	00 40 01             	add    %al,0x1(%eax)
 15a:	00 00                	add    %al,(%eax)
 15c:	00 a3 04 08 1d 01    	add    %ah,0x11d0804(%ebx)
 162:	00 00                	add    %al,(%eax)
 164:	04 01                	add    $0x1,%al
 166:	00 00                	add    %al,(%eax)
 168:	00 0e                	add    %cl,(%esi)
 16a:	08 85 02 04 02 00    	or     %al,0x20402(%ebp)
 170:	00 00                	add    %al,(%eax)
 172:	0d 05 04 09 00       	or     $0x90405,%eax
 177:	00 00                	add    %al,(%eax)
 179:	83 05 86 04 87 03 00 	addl   $0x0,0x3870486
 180:	28 00                	sub    %al,(%eax)
 182:	00 00                	add    %al,(%eax)
 184:	40                   	inc    %eax
 185:	01 00                	add    %eax,(%eax)
 187:	00 20                	add    %ah,(%eax)
 189:	a4                   	movsb  %ds:(%esi),%es:(%edi)
 18a:	04 08                	add    $0x8,%al
 18c:	64 00 00             	add    %al,%fs:(%eax)
 18f:	00 04 01             	add    %al,(%ecx,%eax,1)
 192:	00 00                	add    %al,(%eax)
 194:	00 0e                	add    %cl,(%esi)
 196:	08 85 02 04 02 00    	or     %al,0x20402(%ebp)
 19c:	00 00                	add    %al,(%eax)
 19e:	0d 05 04 02 00       	or     $0x20405,%eax
 1a3:	00 00                	add    %al,(%eax)
 1a5:	83 04 86 03          	addl   $0x3,(%esi,%eax,4)
 1a9:	00 00                	add    %al,(%eax)
 1ab:	00 2c 00             	add    %ch,(%eax,%eax,1)
 1ae:	00 00                	add    %al,(%eax)
 1b0:	40                   	inc    %eax
 1b1:	01 00                	add    %eax,(%eax)
 1b3:	00 90 a4 04 08 44    	add    %dl,0x440804a4(%eax)
 1b9:	00 00                	add    %al,(%eax)
 1bb:	00 04 01             	add    %al,(%ecx,%eax,1)
 1be:	00 00                	add    %al,(%eax)
 1c0:	00 0e                	add    %cl,(%esi)
 1c2:	08 85 02 04 02 00    	or     %al,0x20402(%ebp)
 1c8:	00 00                	add    %al,(%eax)
 1ca:	0d 05 04 02 00       	or     $0x20405,%eax
 1cf:	00 00                	add    %al,(%eax)
 1d1:	86 04 87             	xchg   %al,(%edi,%eax,4)
 1d4:	03 04 09             	add    (%ecx,%ecx,1),%eax
 1d7:	00 00                	add    %al,(%eax)
 1d9:	00 83 05 1c 00 00    	add    %al,0x1c05(%ebx)
 1df:	00 40 01             	add    %al,0x1(%eax)
 1e2:	00 00                	add    %al,(%eax)
 1e4:	e0 a4                	loopne 18a <_init-0x8048a7e>
 1e6:	04 08                	add    $0x8,%al
 1e8:	3c 00                	cmp    $0x0,%al
 1ea:	00 00                	add    %al,(%eax)
 1ec:	04 01                	add    $0x1,%al
 1ee:	00 00                	add    %al,(%eax)
 1f0:	00 0e                	add    %cl,(%esi)
 1f2:	08 85 02 04 02 00    	or     %al,0x20402(%ebp)
 1f8:	00 00                	add    %al,(%eax)
 1fa:	0d 05 1c 00 00       	or     $0x1c05,%eax
 1ff:	00 40 01             	add    %al,0x1(%eax)
 202:	00 00                	add    %al,(%eax)
 204:	20 a5 04 08 2a 00    	and    %ah,0x2a0804(%ebp)
 20a:	00 00                	add    %al,(%eax)
 20c:	04 01                	add    $0x1,%al
 20e:	00 00                	add    %al,(%eax)
 210:	00 0e                	add    %cl,(%esi)
 212:	08 85 02 04 02 00    	or     %al,0x20402(%ebp)
 218:	00 00                	add    %al,(%eax)
 21a:	0d 05 24 00 00       	or     $0x2405,%eax
 21f:	00 40 01             	add    %al,0x1(%eax)
 222:	00 00                	add    %al,(%eax)
 224:	50                   	push   %eax
 225:	a5                   	movsl  %ds:(%esi),%es:(%edi)
 226:	04 08                	add    $0x8,%al
 228:	5a                   	pop    %edx
 229:	00 00                	add    %al,(%eax)
 22b:	00 04 01             	add    %al,(%ecx,%eax,1)
 22e:	00 00                	add    %al,(%eax)
 230:	00 0e                	add    %cl,(%esi)
 232:	08 85 02 04 02 00    	or     %al,0x20402(%ebp)
 238:	00 00                	add    %al,(%eax)
 23a:	0d 05 04 04 00       	or     $0x40405,%eax
 23f:	00 00                	add    %al,(%eax)
 241:	83 03 00             	addl   $0x0,(%ebx)
 244:	28 00                	sub    %al,(%eax)
 246:	00 00                	add    %al,(%eax)
 248:	40                   	inc    %eax
 249:	01 00                	add    %eax,(%eax)
 24b:	00 b0 a5 04 08 30    	add    %dh,0x300804a5(%eax)
 251:	02 00                	add    (%eax),%al
 253:	00 04 01             	add    %al,(%ecx,%eax,1)
 256:	00 00                	add    %al,(%eax)
 258:	00 0e                	add    %cl,(%esi)
 25a:	08 85 02 04 02 00    	or     %al,0x20402(%ebp)
 260:	00 00                	add    %al,(%eax)
 262:	0d 05 04 09 00       	or     $0x90405,%eax
 267:	00 00                	add    %al,(%eax)
 269:	83 05 86 04 87 03 00 	addl   $0x0,0x3870486
 270:	28 00                	sub    %al,(%eax)
 272:	00 00                	add    %al,(%eax)
 274:	40                   	inc    %eax
 275:	01 00                	add    %eax,(%eax)
 277:	00 e0                	add    %ah,%al
 279:	a7                   	cmpsl  %es:(%edi),%ds:(%esi)
 27a:	04 08                	add    $0x8,%al
 27c:	23 02                	and    (%edx),%eax
 27e:	00 00                	add    %al,(%eax)
 280:	04 01                	add    $0x1,%al
 282:	00 00                	add    %al,(%eax)
 284:	00 0e                	add    %cl,(%esi)
 286:	08 85 02 04 02 00    	or     %al,0x20402(%ebp)
 28c:	00 00                	add    %al,(%eax)
 28e:	0d 05 04 09 00       	or     $0x90405,%eax
 293:	00 00                	add    %al,(%eax)
 295:	83 05 86 04 87 03 00 	addl   $0x0,0x3870486
 29c:	2c 00                	sub    $0x0,%al
 29e:	00 00                	add    %al,(%eax)
 2a0:	40                   	inc    %eax
 2a1:	01 00                	add    %eax,(%eax)
 2a3:	00 10                	add    %dl,(%eax)
 2a5:	aa                   	stos   %al,%es:(%edi)
 2a6:	04 08                	add    $0x8,%al
 2a8:	b7 00                	mov    $0x0,%bh
 2aa:	00 00                	add    %al,(%eax)
 2ac:	04 01                	add    $0x1,%al
 2ae:	00 00                	add    %al,(%eax)
 2b0:	00 0e                	add    %cl,(%esi)
 2b2:	08 85 02 04 02 00    	or     %al,0x20402(%ebp)
 2b8:	00 00                	add    %al,(%eax)
 2ba:	0d 05 04 01 00       	or     $0x10405,%eax
 2bf:	00 00                	add    %al,(%eax)
 2c1:	87 03                	xchg   %eax,(%ebx)
 2c3:	04 0a                	add    $0xa,%al
 2c5:	00 00                	add    %al,(%eax)
 2c7:	00 83 05 86 04 24    	add    %al,0x24048605(%ebx)
 2cd:	00 00                	add    %al,(%eax)
 2cf:	00 40 01             	add    %al,0x1(%eax)
 2d2:	00 00                	add    %al,(%eax)
 2d4:	d0 aa 04 08 47 00    	shrb   0x470804(%edx)
 2da:	00 00                	add    %al,(%eax)
 2dc:	04 01                	add    $0x1,%al
 2de:	00 00                	add    %al,(%eax)
 2e0:	00 0e                	add    %cl,(%esi)
 2e2:	08 85 02 04 02 00    	or     %al,0x20402(%ebp)
 2e8:	00 00                	add    %al,(%eax)
 2ea:	0d 05 04 04 00       	or     $0x40405,%eax
 2ef:	00 00                	add    %al,(%eax)
 2f1:	83 03 00             	addl   $0x0,(%ebx)
Disassembly of section .debug_str:

00000000 <.debug_str>:
   0:	47                   	inc    %edi
   1:	4e                   	dec    %esi
   2:	55                   	push   %ebp
   3:	20 43 20             	and    %al,0x20(%ebx)
   6:	34 2e                	xor    $0x2e,%al
   8:	32 2e                	xor    (%esi),%ch
   a:	34 20                	xor    $0x20,%al
   c:	28 55 62             	sub    %dl,0x62(%ebp)
   f:	75 6e                	jne    7f <_init-0x8048b89>
  11:	74 75                	je     88 <_init-0x8048b80>
  13:	20 34 2e             	and    %dh,(%esi,%ebp,1)
  16:	32 2e                	xor    (%esi),%ch
  18:	34 2d                	xor    $0x2d,%al
  1a:	31 75 62             	xor    %esi,0x62(%ebp)
  1d:	75 6e                	jne    8d <_init-0x8048b7b>
  1f:	74 75                	je     96 <_init-0x8048b72>
  21:	34 29                	xor    $0x29,%al
  23:	00 73 68             	add    %dh,0x68(%ebx)
  26:	6f                   	outsl  %ds:(%esi),(%dx)
  27:	72 74                	jb     9d <_init-0x8048b6b>
  29:	20 75 6e             	and    %dh,0x6e(%ebp)
  2c:	73 69                	jae    97 <_init-0x8048b71>
  2e:	67 6e                	addr16 outsb %ds:(%si),(%dx)
  30:	65 64 20 69 6e       	and    %ch,%fs:%gs:0x6e(%ecx)
  35:	74 00                	je     37 <_init-0x8048bd1>
  37:	73 68                	jae    a1 <_init-0x8048b67>
  39:	6f                   	outsl  %ds:(%esi),(%dx)
  3a:	72 74                	jb     b0 <_init-0x8048b58>
  3c:	20 69 6e             	and    %ch,0x6e(%ecx)
  3f:	74 00                	je     41 <_init-0x8048bc7>
  41:	5f                   	pop    %edi
  42:	49                   	dec    %ecx
  43:	4f                   	dec    %edi
  44:	5f                   	pop    %edi
  45:	73 74                	jae    bb <_init-0x8048b4d>
  47:	64 69 6e 5f 75 73 65 	imul   $0x64657375,%fs:0x5f(%esi),%ebp
  4e:	64 
  4f:	00 6c 6f 6e          	add    %ch,0x6e(%edi,%ebp,2)
  53:	67 20 6c 6f          	addr16 and %ch,0x6f(%si)
  57:	6e                   	outsb  %ds:(%esi),(%dx)
  58:	67 20 75 6e          	addr16 and %dh,0x6e(%di)
  5c:	73 69                	jae    c7 <_init-0x8048b41>
  5e:	67 6e                	addr16 outsb %ds:(%si),(%dx)
  60:	65 64 20 69 6e       	and    %ch,%fs:%gs:0x6e(%ecx)
  65:	74 00                	je     67 <_init-0x8048ba1>
  67:	75 6e                	jne    d7 <_init-0x8048b31>
  69:	73 69                	jae    d4 <_init-0x8048b34>
  6b:	67 6e                	addr16 outsb %ds:(%si),(%dx)
  6d:	65 64 20 63 68       	and    %ah,%fs:%gs:0x68(%ebx)
  72:	61                   	popa   
  73:	72 00                	jb     75 <_init-0x8048b93>
  75:	2f                   	das    
  76:	62 75 69             	bound  %esi,0x69(%ebp)
  79:	6c                   	insb   (%dx),%es:(%edi)
  7a:	64                   	fs
  7b:	2f                   	das    
  7c:	62 75 69             	bound  %esi,0x69(%ebp)
  7f:	6c                   	insb   (%dx),%es:(%edi)
  80:	64                   	fs
  81:	64                   	fs
  82:	2f                   	das    
  83:	67 6c                	addr16 insb (%dx),%es:(%di)
  85:	69 62 63 2d 32 2e 37 	imul   $0x372e322d,0x63(%edx),%esp
  8c:	2f                   	das    
  8d:	62 75 69             	bound  %esi,0x69(%ebp)
  90:	6c                   	insb   (%dx),%es:(%edi)
  91:	64                   	fs
  92:	2d 74 72 65 65       	sub    $0x65657274,%eax
  97:	2f                   	das    
  98:	67 6c                	addr16 insb (%dx),%es:(%di)
  9a:	69 62 63 2d 32 2e 37 	imul   $0x372e322d,0x63(%edx),%esp
  a1:	2f                   	das    
  a2:	63 73 75             	arpl   %si,0x75(%ebx)
  a5:	00 69 6e             	add    %ch,0x6e(%ecx)
  a8:	69 74 2e 63 00 6c 6f 	imul   $0x6e6f6c00,0x63(%esi,%ebp,1),%esi
  af:	6e 
  b0:	67 20 6c 6f          	addr16 and %ch,0x6f(%si)
  b4:	6e                   	outsb  %ds:(%esi),(%dx)
  b5:	67 20 69 6e          	addr16 and %ch,0x6e(%bx,%di)
  b9:	74 00                	je     bb <_init-0x8048b4d>
  bb:	5f                   	pop    %edi
  bc:	5f                   	pop    %edi
  bd:	6f                   	outsl  %ds:(%esi),(%dx)
  be:	66 66 5f             	pop    %di
  c1:	74 00                	je     c3 <_init-0x8048b45>
  c3:	5f                   	pop    %edi
  c4:	5f                   	pop    %edi
  c5:	67 69 64 5f 74 00 5f 	addr16 imul $0x495f0074,0x5f(%si),%esp
  cc:	49 
  cd:	4f                   	dec    %edi
  ce:	5f                   	pop    %edi
  cf:	72 65                	jb     136 <_init-0x8048ad2>
  d1:	61                   	popa   
  d2:	64                   	fs
  d3:	5f                   	pop    %edi
  d4:	70 74                	jo     14a <_init-0x8048abe>
  d6:	72 00                	jb     d8 <_init-0x8048b30>
  d8:	5f                   	pop    %edi
  d9:	63 68 61             	arpl   %bp,0x61(%eax)
  dc:	69 6e 00 5f 73 68 6f 	imul   $0x6f68735f,0x0(%esi),%ebp
  e3:	72 74                	jb     159 <_init-0x8048aaf>
  e5:	62 75 66             	bound  %esi,0x66(%ebp)
  e8:	00 70 77             	add    %dh,0x77(%eax)
  eb:	5f                   	pop    %edi
  ec:	67 69 64 00 43 47 49 	addr16 imul $0x42494743,0x0(%si),%esp
  f3:	42 
  f4:	49                   	dec    %ecx
  f5:	4e                   	dec    %esi
  f6:	44                   	inc    %esp
  f7:	49                   	dec    %ecx
  f8:	52                   	push   %edx
  f9:	00 5f 49             	add    %bl,0x49(%edi)
  fc:	4f                   	dec    %edi
  fd:	5f                   	pop    %edi
  fe:	62 75 66             	bound  %esi,0x66(%ebp)
 101:	5f                   	pop    %edi
 102:	62 61 73             	bound  %esp,0x73(%ecx)
 105:	65 00 69 6e          	add    %ch,%gs:0x6e(%ecx)
 109:	5f                   	pop    %edi
 10a:	61                   	popa   
 10b:	64                   	fs
 10c:	64                   	fs
 10d:	72 5f                	jb     16e <_init-0x8048a9a>
 10f:	74 00                	je     111 <_init-0x8048af7>
 111:	6e                   	outsb  %ds:(%esi),(%dx)
 112:	6f                   	outsl  %ds:(%esi),(%dx)
 113:	5f                   	pop    %edi
 114:	76 68                	jbe    17e <_init-0x8048a8a>
 116:	6f                   	outsl  %ds:(%esi),(%dx)
 117:	73 74                	jae    18d <_init-0x8048a7b>
 119:	73 00                	jae    11b <_init-0x8048aed>
 11b:	70 77                	jo     194 <_init-0x8048a74>
 11d:	5f                   	pop    %edi
 11e:	73 68                	jae    188 <_init-0x8048a80>
 120:	65                   	gs
 121:	6c                   	insb   (%dx),%es:(%edi)
 122:	6c                   	insb   (%dx),%es:(%edi)
 123:	00 73 6f             	add    %dh,0x6f(%ebx)
 126:	63 6b 66             	arpl   %bp,0x66(%ebx)
 129:	64 00 64 65 66       	add    %ah,%fs:0x66(%ebp)
 12e:	61                   	popa   
 12f:	75 6c                	jne    19d <_init-0x8048a6b>
 131:	74 68                	je     19b <_init-0x8048a6d>
 133:	6f                   	outsl  %ds:(%esi),(%dx)
 134:	73 74                	jae    1aa <_init-0x8048a5e>
 136:	00 5f 66             	add    %bl,0x66(%edi)
 139:	69 6c 65 6e 6f 00 5f 	imul   $0x495f006f,0x6e(%ebp),%ebp
 140:	49 
 141:	4f                   	dec    %edi
 142:	5f                   	pop    %edi
 143:	72 65                	jb     1aa <_init-0x8048a5e>
 145:	61                   	popa   
 146:	64                   	fs
 147:	5f                   	pop    %edi
 148:	65 6e                	outsb  %gs:(%esi),(%dx)
 14a:	64 00 5f 66          	add    %bl,%fs:0x66(%edi)
 14e:	6c                   	insb   (%dx),%es:(%edi)
 14f:	61                   	popa   
 150:	67 73 00             	addr16 jae 153 <_init-0x8048ab5>
 153:	5f                   	pop    %edi
 154:	49                   	dec    %ecx
 155:	4f                   	dec    %edi
 156:	5f                   	pop    %edi
 157:	62 75 66             	bound  %esi,0x66(%ebp)
 15a:	5f                   	pop    %edi
 15b:	65 6e                	outsb  %gs:(%esi),(%dx)
 15d:	64 00 5f 63          	add    %bl,%fs:0x63(%edi)
 161:	75 72                	jne    1d5 <_init-0x8048a33>
 163:	5f                   	pop    %edi
 164:	63 6f 6c             	arpl   %bp,0x6c(%edi)
 167:	75 6d                	jne    1d6 <_init-0x8048a32>
 169:	6e                   	outsb  %ds:(%esi),(%dx)
 16a:	00 53 4f             	add    %dl,0x4f(%ebx)
 16d:	43                   	inc    %ebx
 16e:	4b                   	dec    %ebx
 16f:	5f                   	pop    %edi
 170:	53                   	push   %ebx
 171:	54                   	push   %esp
 172:	52                   	push   %edx
 173:	45                   	inc    %ebp
 174:	41                   	inc    %ecx
 175:	4d                   	dec    %ebp
 176:	00 5f 5f             	add    %bl,0x5f(%edi)
 179:	71 75                	jno    1f0 <_init-0x8048a18>
 17b:	61                   	popa   
 17c:	64                   	fs
 17d:	5f                   	pop    %edi
 17e:	74 00                	je     180 <_init-0x8048a88>
 180:	44                   	inc    %esp
 181:	45                   	inc    %ebp
 182:	46                   	inc    %esi
 183:	41                   	inc    %ecx
 184:	55                   	push   %ebp
 185:	4c                   	dec    %esp
 186:	54                   	push   %esp
 187:	50                   	push   %eax
 188:	41                   	inc    %ecx
 189:	47                   	inc    %edi
 18a:	45                   	inc    %ebp
 18b:	00 5f 6f             	add    %bl,0x6f(%edi)
 18e:	6c                   	insb   (%dx),%es:(%edi)
 18f:	64                   	fs
 190:	5f                   	pop    %edi
 191:	6f                   	outsl  %ds:(%esi),(%dx)
 192:	66                   	data16
 193:	66                   	data16
 194:	73 65                	jae    1fb <_init-0x8048a0d>
 196:	74 00                	je     198 <_init-0x8048a70>
 198:	73 69                	jae    203 <_init-0x8048a05>
 19a:	6e                   	outsb  %ds:(%esi),(%dx)
 19b:	5f                   	pop    %edi
 19c:	7a 65                	jp     203 <_init-0x8048a05>
 19e:	72 6f                	jb     20f <_init-0x80489f9>
 1a0:	00 74 5f 76          	add    %dh,0x76(%edi,%ebx,2)
 1a4:	68 6f 73 74 00       	push   $0x74736f
 1a9:	5f                   	pop    %edi
 1aa:	49                   	dec    %ecx
 1ab:	4f                   	dec    %edi
 1ac:	5f                   	pop    %edi
 1ad:	6d                   	insl   (%dx),%es:(%edi)
 1ae:	61                   	popa   
 1af:	72 6b                	jb     21c <_init-0x80489ec>
 1b1:	65                   	gs
 1b2:	72 00                	jb     1b4 <_init-0x8048a54>
 1b4:	53                   	push   %ebx
 1b5:	4f                   	dec    %edi
 1b6:	43                   	inc    %ebx
 1b7:	4b                   	dec    %ebx
 1b8:	5f                   	pop    %edi
 1b9:	52                   	push   %edx
 1ba:	44                   	inc    %esp
 1bb:	4d                   	dec    %ebp
 1bc:	00 66 64             	add    %ah,0x64(%esi)
 1bf:	5f                   	pop    %edi
 1c0:	73 65                	jae    227 <_init-0x80489e1>
 1c2:	74 00                	je     1c4 <_init-0x8048a44>
 1c4:	73 5f                	jae    225 <_init-0x80489e3>
 1c6:	61                   	popa   
 1c7:	64                   	fs
 1c8:	64                   	fs
 1c9:	72 00                	jb     1cb <_init-0x8048a3d>
 1cb:	75 69                	jne    236 <_init-0x80489d2>
 1cd:	6e                   	outsb  %ds:(%esi),(%dx)
 1ce:	74 31                	je     201 <_init-0x8048a07>
 1d0:	36                   	ss
 1d1:	5f                   	pop    %edi
 1d2:	74 00                	je     1d4 <_init-0x8048a34>
 1d4:	47                   	inc    %edi
 1d5:	4e                   	dec    %esi
 1d6:	55                   	push   %ebp
 1d7:	20 43 20             	and    %al,0x20(%ebx)
 1da:	34 2e                	xor    $0x2e,%al
 1dc:	32 2e                	xor    (%esi),%ch
 1de:	33 20                	xor    (%eax),%esp
 1e0:	28 55 62             	sub    %dl,0x62(%ebp)
 1e3:	75 6e                	jne    253 <_init-0x80489b5>
 1e5:	74 75                	je     25c <_init-0x80489ac>
 1e7:	20 34 2e             	and    %dh,(%esi,%ebp,1)
 1ea:	32 2e                	xor    (%esi),%ch
 1ec:	33 2d 32 75 62 75    	xor    0x75627532,%ebp
 1f2:	6e                   	outsb  %ds:(%esi),(%dx)
 1f3:	74 75                	je     26a <_init-0x804899e>
 1f5:	37                   	aaa    
 1f6:	29 00                	sub    %eax,(%eax)
 1f8:	73 76                	jae    270 <_init-0x8048998>
 1fa:	61                   	popa   
 1fb:	6c                   	insb   (%dx),%es:(%edi)
 1fc:	00 5f 5f             	add    %bl,0x5f(%edi)
 1ff:	73 75                	jae    276 <_init-0x8048992>
 201:	73 65                	jae    268 <_init-0x80489a0>
 203:	63 6f 6e             	arpl   %bp,0x6e(%edi)
 206:	64                   	fs
 207:	73 5f                	jae    268 <_init-0x80489a0>
 209:	74 00                	je     20b <_init-0x80489fd>
 20b:	5f                   	pop    %edi
 20c:	49                   	dec    %ecx
 20d:	4f                   	dec    %edi
 20e:	5f                   	pop    %edi
 20f:	77 72                	ja     283 <_init-0x8048985>
 211:	69 74 65 5f 70 74 72 	imul   $0x727470,0x5f(%ebp),%esi
 218:	00 
 219:	73 69                	jae    284 <_init-0x8048984>
 21b:	67 6e                	addr16 outsb %ds:(%si),(%dx)
 21d:	75 6d                	jne    28c <_init-0x804897c>
 21f:	00 5f 73             	add    %bl,0x73(%edi)
 222:	62 75 66             	bound  %esi,0x66(%ebp)
 225:	00 5f 5f             	add    %bl,0x5f(%edi)
 228:	61                   	popa   
 229:	72 72                	jb     29d <_init-0x804896b>
 22b:	00 73 69             	add    %dh,0x69(%ebx)
 22e:	6e                   	outsb  %ds:(%esi),(%dx)
 22f:	5f                   	pop    %edi
 230:	61                   	popa   
 231:	64                   	fs
 232:	64                   	fs
 233:	72 00                	jb     235 <_init-0x80489d3>
 235:	5f                   	pop    %edi
 236:	70 6f                	jo     2a7 <_init-0x8048961>
 238:	73 00                	jae    23a <_init-0x80489ce>
 23a:	5f                   	pop    %edi
 23b:	49                   	dec    %ecx
 23c:	4f                   	dec    %edi
 23d:	5f                   	pop    %edi
 23e:	73 61                	jae    2a1 <_init-0x8048967>
 240:	76 65                	jbe    2a7 <_init-0x8048961>
 242:	5f                   	pop    %edi
 243:	62 61 73             	bound  %esp,0x73(%ecx)
 246:	65 00 73 74          	add    %dh,%gs:0x74(%ebx)
 24a:	64 69 6e 00 6d 61 69 	imul   $0x6e69616d,%fs:0x0(%esi),%ebp
 251:	6e 
 252:	2e 63 00             	arpl   %ax,%cs:(%eax)
 255:	5f                   	pop    %edi
 256:	6c                   	insb   (%dx),%es:(%edi)
 257:	6f                   	outsl  %ds:(%esi),(%dx)
 258:	63 6b 00             	arpl   %bp,0x0(%ebx)
 25b:	53                   	push   %ebx
 25c:	45                   	inc    %ebp
 25d:	52                   	push   %edx
 25e:	56                   	push   %esi
 25f:	45                   	inc    %ebp
 260:	52                   	push   %edx
 261:	50                   	push   %eax
 262:	4f                   	dec    %edi
 263:	52                   	push   %edx
 264:	54                   	push   %esp
 265:	00 5f 66             	add    %bl,0x66(%edi)
 268:	6c                   	insb   (%dx),%es:(%edi)
 269:	61                   	popa   
 26a:	67 73 32             	addr16 jae 29f <_init-0x8048969>
 26d:	00 74 69 6d          	add    %dh,0x6d(%ecx,%ebp,2)
 271:	65                   	gs
 272:	76 61                	jbe    2d5 <_init-0x8048933>
 274:	6c                   	insb   (%dx),%es:(%edi)
 275:	00 73 74             	add    %dh,0x74(%ebx)
 278:	64 6f                	outsl  %fs:(%esi),(%dx)
 27a:	75 74                	jne    2f0 <_init-0x8048918>
 27c:	00 43 47             	add    %al,0x47(%ebx)
 27f:	49                   	dec    %ecx
 280:	42                   	inc    %edx
 281:	49                   	dec    %ecx
 282:	4e                   	dec    %esi
 283:	52                   	push   %edx
 284:	4f                   	dec    %edi
 285:	4f                   	dec    %edi
 286:	54                   	push   %esp
 287:	00 70 77             	add    %dh,0x77(%eax)
 28a:	5f                   	pop    %edi
 28b:	70 61                	jo     2ee <_init-0x804891a>
 28d:	73 73                	jae    302 <_init-0x8048906>
 28f:	77 64                	ja     2f5 <_init-0x8048913>
 291:	00 73 69             	add    %dh,0x69(%ebx)
 294:	6e                   	outsb  %ds:(%esi),(%dx)
 295:	5f                   	pop    %edi
 296:	66 61                	popaw  
 298:	6d                   	insl   (%dx),%es:(%edi)
 299:	69 6c 79 00 72 65 61 	imul   $0x64616572,0x0(%ecx,%edi,2),%ebp
 2a0:	64 
 2a1:	66                   	data16
 2a2:	64                   	fs
 2a3:	73 00                	jae    2a5 <_init-0x8048963>
 2a5:	74 76                	je     31d <_init-0x80488eb>
 2a7:	5f                   	pop    %edi
 2a8:	73 65                	jae    30f <_init-0x80488f9>
 2aa:	63 00                	arpl   %ax,(%eax)
 2ac:	70 77                	jo     325 <_init-0x80488e3>
 2ae:	5f                   	pop    %edi
 2af:	75 69                	jne    31a <_init-0x80488ee>
 2b1:	64 00 65 78          	add    %ah,%fs:0x78(%ebp)
 2b5:	63 65 70             	arpl   %sp,0x70(%ebp)
 2b8:	74 66                	je     320 <_init-0x80488e8>
 2ba:	64                   	fs
 2bb:	73 00                	jae    2bd <_init-0x804894b>
 2bd:	5f                   	pop    %edi
 2be:	49                   	dec    %ecx
 2bf:	4f                   	dec    %edi
 2c0:	5f                   	pop    %edi
 2c1:	6c                   	insb   (%dx),%es:(%edi)
 2c2:	6f                   	outsl  %ds:(%esi),(%dx)
 2c3:	63 6b 5f             	arpl   %bp,0x5f(%ebx)
 2c6:	74 00                	je     2c8 <_init-0x8048940>
 2c8:	5f                   	pop    %edi
 2c9:	49                   	dec    %ecx
 2ca:	4f                   	dec    %edi
 2cb:	5f                   	pop    %edi
 2cc:	46                   	inc    %esi
 2cd:	49                   	dec    %ecx
 2ce:	4c                   	dec    %esp
 2cf:	45                   	inc    %ebp
 2d0:	00 73 69             	add    %dh,0x69(%ebx)
 2d3:	6e                   	outsb  %ds:(%esi),(%dx)
 2d4:	5f                   	pop    %edi
 2d5:	70 6f                	jo     346 <_init-0x80488c2>
 2d7:	72 74                	jb     34d <_init-0x80488bb>
 2d9:	00 73 61             	add    %dh,0x61(%ebx)
 2dc:	5f                   	pop    %edi
 2dd:	66 61                	popaw  
 2df:	6d                   	insl   (%dx),%es:(%edi)
 2e0:	69 6c 79 00 6d 79 5f 	imul   $0x615f796d,0x0(%ecx,%edi,2),%ebp
 2e7:	61 
 2e8:	64                   	fs
 2e9:	64                   	fs
 2ea:	72 00                	jb     2ec <_init-0x804891c>
 2ec:	69 6e 65 74 64 5f 73 	imul   $0x735f6474,0x65(%esi),%ebp
 2f3:	65                   	gs
 2f4:	72 76                	jb     36c <_init-0x804889c>
 2f6:	65                   	gs
 2f7:	72 00                	jb     2f9 <_init-0x804890f>
 2f9:	5f                   	pop    %edi
 2fa:	6d                   	insl   (%dx),%es:(%edi)
 2fb:	61                   	popa   
 2fc:	72 6b                	jb     369 <_init-0x804889f>
 2fe:	65                   	gs
 2ff:	72 73                	jb     374 <_init-0x8048894>
 301:	00 5f 5f             	add    %bl,0x5f(%edi)
 304:	73 6f                	jae    375 <_init-0x8048893>
 306:	63 6b 65             	arpl   %bp,0x65(%ebx)
 309:	74 5f                	je     36a <_init-0x804889e>
 30b:	74 79                	je     386 <_init-0x8048882>
 30d:	70 65                	jo     374 <_init-0x8048894>
 30f:	00 70 77             	add    %dh,0x77(%eax)
 312:	5f                   	pop    %edi
 313:	64 69 72 00 5f 5f 66 	imul   $0x64665f5f,%fs:0x0(%edx),%esi
 31a:	64 
 31b:	5f                   	pop    %edi
 31c:	6d                   	insl   (%dx),%es:(%edi)
 31d:	61                   	popa   
 31e:	73 6b                	jae    38b <_init-0x804887d>
 320:	00 70 77             	add    %dh,0x77(%eax)
 323:	5f                   	pop    %edi
 324:	67 65 63 6f 73       	addr16 arpl %bp,%gs:0x73(%bx)
 329:	00 5f 76             	add    %bl,0x76(%edi)
 32c:	74 61                	je     38f <_init-0x8048879>
 32e:	62 6c 65 5f          	bound  %ebp,0x5f(%ebp)
 332:	6f                   	outsl  %ds:(%esi),(%dx)
 333:	66                   	data16
 334:	66                   	data16
 335:	73 65                	jae    39c <_init-0x804886c>
 337:	74 00                	je     339 <_init-0x80488cf>
 339:	5f                   	pop    %edi
 33a:	5f                   	pop    %edi
 33b:	74 69                	je     3a6 <_init-0x8048862>
 33d:	6d                   	insl   (%dx),%es:(%edi)
 33e:	65                   	gs
 33f:	5f                   	pop    %edi
 340:	74 00                	je     342 <_init-0x80488c6>
 342:	53                   	push   %ebx
 343:	4f                   	dec    %edi
 344:	43                   	inc    %ebx
 345:	4b                   	dec    %ebx
 346:	5f                   	pop    %edi
 347:	50                   	push   %eax
 348:	41                   	inc    %ecx
 349:	43                   	inc    %ebx
 34a:	4b                   	dec    %ebx
 34b:	45                   	inc    %ebp
 34c:	54                   	push   %esp
 34d:	00 74 76 5f          	add    %dh,0x5f(%esi,%esi,2)
 351:	75 73                	jne    3c6 <_init-0x8048842>
 353:	65 63 00             	arpl   %ax,%gs:(%eax)
 356:	2f                   	das    
 357:	68 6f 6d 65 2f       	push   $0x2f656d6f
 35c:	6a 69                	push   $0x69
 35e:	61                   	popa   
 35f:	6e                   	outsb  %ds:(%esi),(%dx)
 360:	67 6d                	addr16 insl (%dx),%es:(%di)
 362:	69 6e 67 2f 45 78 70 	imul   $0x7078452f,0x67(%esi),%ebp
 369:	65                   	gs
 36a:	72 69                	jb     3d5 <_init-0x8048833>
 36c:	6d                   	insl   (%dx),%es:(%edi)
 36d:	65 6e                	outsb  %gs:(%esi),(%dx)
 36f:	74 73                	je     3e4 <_init-0x8048824>
 371:	2f                   	das    
 372:	76 75                	jbe    3e9 <_init-0x804881f>
 374:	6c                   	insb   (%dx),%es:(%edi)
 375:	6e                   	outsb  %ds:(%esi),(%dx)
 376:	65                   	gs
 377:	72 61                	jb     3da <_init-0x804882e>
 379:	62 6c 65 2f          	bound  %ebp,0x2f(%ebp)
 37d:	67 68 74 74 70 64    	addr16 push $0x64707474
 383:	2f                   	das    
 384:	67 68 74 74 70 64    	addr16 push $0x64707474
 38a:	2d 31 2e 34 2d       	sub    $0x2d342e31,%eax
 38f:	34 00                	xor    $0x0,%al
 391:	73 6f                	jae    402 <_init-0x8048806>
 393:	63 6b 61             	arpl   %bp,0x61(%ebx)
 396:	64                   	fs
 397:	64                   	fs
 398:	72 00                	jb     39a <_init-0x804886e>
 39a:	74 68                	je     404 <_init-0x8048804>
 39c:	65 69 72 5f 61 64 64 	imul   $0x72646461,%gs:0x5f(%edx),%esi
 3a3:	72 
 3a4:	00 5f 5f             	add    %bl,0x5f(%edi)
 3a7:	75 69                	jne    412 <_init-0x80487f6>
 3a9:	64                   	fs
 3aa:	5f                   	pop    %edi
 3ab:	74 00                	je     3ad <_init-0x804885b>
 3ad:	5f                   	pop    %edi
 3ae:	6e                   	outsb  %ds:(%esi),(%dx)
 3af:	65                   	gs
 3b0:	78 74                	js     426 <_init-0x80487e2>
 3b2:	00 5f 5f             	add    %bl,0x5f(%edi)
 3b5:	6f                   	outsl  %ds:(%esi),(%dx)
 3b6:	66                   	data16
 3b7:	66                   	data16
 3b8:	36                   	ss
 3b9:	34 5f                	xor    $0x5f,%al
 3bb:	74 00                	je     3bd <_init-0x804884b>
 3bd:	5f                   	pop    %edi
 3be:	49                   	dec    %ecx
 3bf:	4f                   	dec    %edi
 3c0:	5f                   	pop    %edi
 3c1:	72 65                	jb     428 <_init-0x80487e0>
 3c3:	61                   	popa   
 3c4:	64                   	fs
 3c5:	5f                   	pop    %edi
 3c6:	62 61 73             	bound  %esp,0x73(%ecx)
 3c9:	65 00 5f 49          	add    %bl,%gs:0x49(%edi)
 3cd:	4f                   	dec    %edi
 3ce:	5f                   	pop    %edi
 3cf:	73 61                	jae    432 <_init-0x80487d6>
 3d1:	76 65                	jbe    438 <_init-0x80487d0>
 3d3:	5f                   	pop    %edi
 3d4:	65 6e                	outsb  %gs:(%esi),(%dx)
 3d6:	64 00 53 45          	add    %dl,%fs:0x45(%ebx)
 3da:	52                   	push   %edx
 3db:	56                   	push   %esi
 3dc:	45                   	inc    %ebp
 3dd:	52                   	push   %edx
 3de:	52                   	push   %edx
 3df:	4f                   	dec    %edi
 3e0:	4f                   	dec    %edi
 3e1:	54                   	push   %esp
 3e2:	00 5f 5f             	add    %bl,0x5f(%edi)
 3e5:	70 61                	jo     448 <_init-0x80487c0>
 3e7:	64 31 00             	xor    %eax,%fs:(%eax)
 3ea:	5f                   	pop    %edi
 3eb:	5f                   	pop    %edi
 3ec:	70 61                	jo     44f <_init-0x80487b9>
 3ee:	64 32 00             	xor    %fs:(%eax),%al
 3f1:	5f                   	pop    %edi
 3f2:	5f                   	pop    %edi
 3f3:	70 61                	jo     456 <_init-0x80487b2>
 3f5:	64 33 00             	xor    %fs:(%eax),%eax
 3f8:	5f                   	pop    %edi
 3f9:	5f                   	pop    %edi
 3fa:	70 61                	jo     45d <_init-0x80487ab>
 3fc:	64                   	fs
 3fd:	34 00                	xor    $0x0,%al
 3ff:	5f                   	pop    %edi
 400:	5f                   	pop    %edi
 401:	70 61                	jo     464 <_init-0x80487a4>
 403:	64                   	fs
 404:	35 00 5f 49 4f       	xor    $0x4f495f00,%eax
 409:	5f                   	pop    %edi
 40a:	77 72                	ja     47e <_init-0x804878a>
 40c:	69 74 65 5f 65 6e 64 	imul   $0x646e65,0x5f(%ebp),%esi
 413:	00 
 414:	73 61                	jae    477 <_init-0x8048791>
 416:	5f                   	pop    %edi
 417:	66 61                	popaw  
 419:	6d                   	insl   (%dx),%es:(%edi)
 41a:	69 6c 79 5f 74 00 5f 	imul   $0x755f0074,0x5f(%ecx,%edi,2),%ebp
 421:	75 
 422:	6e                   	outsb  %ds:(%esi),(%dx)
 423:	75 73                	jne    498 <_init-0x8048770>
 425:	65 64 32 00          	xor    %fs:%gs:(%eax),%al
 429:	70 77                	jo     4a2 <_init-0x8048766>
 42b:	5f                   	pop    %edi
 42c:	6e                   	outsb  %ds:(%esi),(%dx)
 42d:	61                   	popa   
 42e:	6d                   	insl   (%dx),%es:(%edi)
 42f:	65 00 53 4f          	add    %dl,%gs:0x4f(%ebx)
 433:	43                   	inc    %ebx
 434:	4b                   	dec    %ebx
 435:	5f                   	pop    %edi
 436:	44                   	inc    %esp
 437:	47                   	inc    %edi
 438:	52                   	push   %edx
 439:	41                   	inc    %ecx
 43a:	4d                   	dec    %ebp
 43b:	00 73 6f             	add    %dh,0x6f(%ebx)
 43e:	63 6b 61             	arpl   %bp,0x61(%ebx)
 441:	64                   	fs
 442:	64                   	fs
 443:	72 5f                	jb     4a4 <_init-0x8048764>
 445:	69 6e 00 44 4f 43 55 	imul   $0x55434f44,0x0(%esi),%ebp
 44c:	4d                   	dec    %ebp
 44d:	45                   	inc    %ebp
 44e:	4e                   	dec    %esi
 44f:	54                   	push   %esp
 450:	52                   	push   %edx
 451:	4f                   	dec    %edi
 452:	4f                   	dec    %edi
 453:	54                   	push   %esp
 454:	00 53 45             	add    %dl,0x45(%ebx)
 457:	52                   	push   %edx
 458:	56                   	push   %esi
 459:	45                   	inc    %ebp
 45a:	52                   	push   %edx
 45b:	54                   	push   %esp
 45c:	59                   	pop    %ecx
 45d:	50                   	push   %eax
 45e:	45                   	inc    %ebp
 45f:	00 5f 49             	add    %bl,0x49(%edi)
 462:	4f                   	dec    %edi
 463:	5f                   	pop    %edi
 464:	62 61 63             	bound  %esp,0x63(%ecx)
 467:	6b 75 70 5f          	imul   $0x5f,0x70(%ebp),%esi
 46b:	62 61 73             	bound  %esp,0x73(%ecx)
 46e:	65 00 6e 65          	add    %ch,%gs:0x65(%esi)
 472:	77 5f                	ja     4d3 <_init-0x8048735>
 474:	66                   	data16
 475:	64 00 73 69          	add    %dh,%fs:0x69(%ebx)
 479:	6e                   	outsb  %ds:(%esi),(%dx)
 47a:	5f                   	pop    %edi
 47b:	73 69                	jae    4e6 <_init-0x8048722>
 47d:	7a 65                	jp     4e4 <_init-0x8048724>
 47f:	00 73 69             	add    %dh,0x69(%ebx)
 482:	67 6e                	addr16 outsb %ds:(%si),(%dx)
 484:	61                   	popa   
 485:	6c                   	insb   (%dx),%es:(%edi)
 486:	5f                   	pop    %edi
 487:	68 61 6e 64 6c       	push   $0x6c646e61
 48c:	65                   	gs
 48d:	72 00                	jb     48f <_init-0x8048779>
 48f:	73 61                	jae    4f2 <_init-0x8048716>
 491:	5f                   	pop    %edi
 492:	64                   	fs
 493:	61                   	popa   
 494:	74 61                	je     4f7 <_init-0x8048711>
 496:	00 53 4f             	add    %dl,0x4f(%ebx)
 499:	43                   	inc    %ebx
 49a:	4b                   	dec    %ebx
 49b:	5f                   	pop    %edi
 49c:	52                   	push   %edx
 49d:	41                   	inc    %ecx
 49e:	57                   	push   %edi
 49f:	00 53 4f             	add    %dl,0x4f(%ebx)
 4a2:	43                   	inc    %ebx
 4a3:	4b                   	dec    %ebx
 4a4:	5f                   	pop    %edi
 4a5:	53                   	push   %ebx
 4a6:	45                   	inc    %ebp
 4a7:	51                   	push   %ecx
 4a8:	50                   	push   %eax
 4a9:	41                   	inc    %ecx
 4aa:	43                   	inc    %ebx
 4ab:	4b                   	dec    %ebx
 4ac:	45                   	inc    %ebp
 4ad:	54                   	push   %esp
 4ae:	00 6d 61             	add    %ch,0x61(%ebp)
 4b1:	69 6e 00 5f 49 4f 5f 	imul   $0x5f4f495f,0x0(%esi),%ebp
 4b8:	77 72                	ja     52c <_init-0x80486dc>
 4ba:	69 74 65 5f 62 61 73 	imul   $0x65736162,0x5f(%ebp),%esi
 4c1:	65 
 4c2:	00 6e 75             	add    %ch,0x75(%esi)
 4c5:	6d                   	insl   (%dx),%es:(%edi)
 4c6:	62 79 74             	bound  %edi,0x74(%ecx)
 4c9:	65                   	gs
 4ca:	73 00                	jae    4cc <_init-0x804873c>
 4cc:	69 6e 5f 70 6f 72 74 	imul   $0x74726f70,0x5f(%esi),%ebp
 4d3:	5f                   	pop    %edi
 4d4:	74 00                	je     4d6 <_init-0x8048732>
 4d6:	75 69                	jne    541 <_init-0x80486c7>
 4d8:	6e                   	outsb  %ds:(%esi),(%dx)
 4d9:	74 33                	je     50e <_init-0x80486fa>
 4db:	32 5f 74             	xor    0x74(%edi),%bl
 4de:	00 5f 5f             	add    %bl,0x5f(%edi)
 4e1:	66                   	data16
 4e2:	64                   	fs
 4e3:	73 5f                	jae    544 <_init-0x80486c4>
 4e5:	62 69 74             	bound  %ebp,0x74(%ecx)
 4e8:	73 00                	jae    4ea <_init-0x804871e>
 4ea:	73 65                	jae    551 <_init-0x80486b7>
 4ec:	6e                   	outsb  %ds:(%esi),(%dx)
 4ed:	64                   	fs
 4ee:	70 61                	jo     551 <_init-0x80486b7>
 4f0:	67 65 00 5f 5f       	addr16 add %bl,%gs:0x5f(%bx)
 4f5:	73 31                	jae    528 <_init-0x80486e0>
 4f7:	5f                   	pop    %edi
 4f8:	6c                   	insb   (%dx),%es:(%edi)
 4f9:	65 6e                	outsb  %gs:(%esi),(%dx)
 4fb:	00 64 69 72          	add    %ah,0x72(%ecx,%ebp,2)
 4ff:	65 6e                	outsb  %gs:(%esi),(%dx)
 501:	74 00                	je     503 <_init-0x8048705>
 503:	73 74                	jae    579 <_init-0x804868f>
 505:	72 69                	jb     570 <_init-0x8048698>
 507:	6e                   	outsb  %ds:(%esi),(%dx)
 508:	67 70 6f             	addr16 jo 57a <_init-0x804868e>
 50b:	73 00                	jae    50d <_init-0x80486fb>
 50d:	5f                   	pop    %edi
 50e:	5f                   	pop    %edi
 50f:	73 32                	jae    543 <_init-0x80486c5>
 511:	5f                   	pop    %edi
 512:	6c                   	insb   (%dx),%es:(%edi)
 513:	65 6e                	outsb  %gs:(%esi),(%dx)
 515:	00 64 5f 72          	add    %ah,0x72(%edi,%ebx,2)
 519:	65 63 6c 65 6e       	arpl   %bp,%gs:0x6e(%ebp)
 51e:	00 70 72             	add    %dh,0x72(%eax)
 521:	6f                   	outsl  %ds:(%esi),(%dx)
 522:	74 6f                	je     593 <_init-0x8048675>
 524:	63 6f 6c             	arpl   %bp,0x6c(%edi)
 527:	2e 63 00             	arpl   %ax,%cs:(%eax)
 52a:	64 69 72 65 63 74 6f 	imul   $0x726f7463,%fs:0x65(%edx),%esi
 531:	72 
 532:	79 00                	jns    534 <_init-0x80486d4>
 534:	64                   	fs
 535:	5f                   	pop    %edi
 536:	74 79                	je     5b1 <_init-0x8048657>
 538:	70 65                	jo     59f <_init-0x8048669>
 53a:	00 73 65             	add    %dh,0x65(%ebx)
 53d:	72 76                	jb     5b5 <_init-0x8048653>
 53f:	65 63 6f 6e          	arpl   %bp,%gs:0x6e(%edi)
 543:	6e                   	outsb  %ds:(%esi),(%dx)
 544:	65 63 74 69 6f       	arpl   %si,%gs:0x6f(%ecx,%ebp,2)
 549:	6e                   	outsb  %ds:(%esi),(%dx)
 54a:	00 73 68             	add    %dh,0x68(%ebx)
 54d:	6f                   	outsl  %ds:(%esi),(%dx)
 54e:	77 64                	ja     5b4 <_init-0x8048654>
 550:	69 72 00 61 73 73 6f 	imul   $0x6f737361,0x0(%edx),%esi
 557:	63 4e 61             	arpl   %cx,0x61(%esi)
 55a:	6d                   	insl   (%dx),%es:(%edi)
 55b:	65                   	gs
 55c:	73 00                	jae    55e <_init-0x80486aa>
 55e:	64                   	fs
 55f:	5f                   	pop    %edi
 560:	69 6e 6f 00 67 65 74 	imul   $0x74656700,0x6f(%esi),%ebp
 567:	6d                   	insl   (%dx),%es:(%edi)
 568:	69 6d 65 74 79 70 65 	imul   $0x65707974,0x65(%ebp),%ebp
 56f:	00 74 65 6d          	add    %dh,0x6d(%ebp)
 573:	70 64                	jo     5d9 <_init-0x804862f>
 575:	61                   	popa   
 576:	74 61                	je     5d9 <_init-0x804862f>
 578:	00 5f 5f             	add    %bl,0x5f(%edi)
 57b:	72 65                	jb     5e2 <_init-0x8048626>
 57d:	73 75                	jae    5f4 <_init-0x8048614>
 57f:	6c                   	insb   (%dx),%es:(%edi)
 580:	74 00                	je     582 <_init-0x8048686>
 582:	64 69 72 66 6f 6f 74 	imul   $0x65746f6f,%fs:0x66(%edx),%esi
 589:	65 
 58a:	72 00                	jb     58c <_init-0x804867c>
 58c:	68 6f 73 74 5f       	push   $0x5f74736f
 591:	70 74                	jo     607 <_init-0x8048601>
 593:	72 31                	jb     5c6 <_init-0x8048642>
 595:	00 74 65 6d          	add    %dh,0x6d(%ebp)
 599:	70 73                	jo     60e <_init-0x80485fa>
 59b:	74 72                	je     60f <_init-0x80485f9>
 59d:	69 6e 67 32 00 5f 5f 	imul   $0x5f5f0032,0x67(%esi),%ebp
 5a4:	73 31                	jae    5d7 <_init-0x8048631>
 5a6:	00 5f 5f             	add    %bl,0x5f(%edi)
 5a9:	69 6e 6f 5f 74 00 64 	imul   $0x6400745f,0x6f(%esi),%ebp
 5b0:	5f                   	pop    %edi
 5b1:	6e                   	outsb  %ds:(%esi),(%dx)
 5b2:	61                   	popa   
 5b3:	6d                   	insl   (%dx),%es:(%edi)
 5b4:	65 00 74 65 6d       	add    %dh,%gs:0x6d(%ebp)
 5b9:	70 73                	jo     62e <_init-0x80485da>
 5bb:	74 72                	je     62f <_init-0x80485d9>
 5bd:	69 6e 67 00 64 5f 6f 	imul   $0x6f5f6400,0x67(%esi),%ebp
 5c4:	66                   	data16
 5c5:	66                   	data16
 5c6:	00 6e 61             	add    %ch,0x61(%esi)
 5c9:	6d                   	insl   (%dx),%es:(%edi)
 5ca:	65                   	gs
 5cb:	6c                   	insb   (%dx),%es:(%edi)
 5cc:	69 73 74 00 64 69 72 	imul   $0x72696400,0x74(%ebx),%esi
 5d3:	68 65 61 64 65       	push   $0x65646165
 5d8:	72 00                	jb     5da <_init-0x804862e>
 5da:	68 6f 73 74 5f       	push   $0x5f74736f
 5df:	70 74                	jo     655 <_init-0x80485b3>
 5e1:	72 32                	jb     615 <_init-0x80485f3>
 5e3:	00 6c 6f 6f          	add    %ch,0x6f(%edi,%ebp,2)
 5e7:	70 00                	jo     5e9 <_init-0x804861f>
 5e9:	66                   	data16
 5ea:	6c                   	insb   (%dx),%es:(%edi)
 5eb:	61                   	popa   
 5ec:	67 00 74 68          	addr16 add %dh,0x68(%si)
 5f0:	65                   	gs
 5f1:	68 6f 73 74 00       	push   $0x74736f
 5f6:	61                   	popa   
 5f7:	64                   	fs
 5f8:	64                   	fs
 5f9:	72 6c                	jb     667 <_init-0x80485a1>
 5fb:	65 6e                	outsb  %gs:(%esi),(%dx)
 5fd:	00 73 74             	add    %dh,0x74(%ebx)
 600:	5f                   	pop    %edi
 601:	63 74 69 6d          	arpl   %si,0x6d(%ecx,%ebp,2)
 605:	00 5f 5f             	add    %bl,0x5f(%edi)
 608:	75 5f                	jne    669 <_init-0x804859f>
 60a:	71 75                	jno    681 <_init-0x8048587>
 60c:	61                   	popa   
 60d:	64                   	fs
 60e:	5f                   	pop    %edi
 60f:	74 00                	je     611 <_init-0x80485f7>
 611:	5f                   	pop    %edi
 612:	5f                   	pop    %edi
 613:	70 61                	jo     676 <_init-0x8048592>
 615:	74 68                	je     67f <_init-0x8048589>
 617:	00 56 69             	add    %dl,0x69(%esi)
 61a:	72 74                	jb     690 <_init-0x8048578>
 61c:	75 61                	jne    67f <_init-0x8048589>
 61e:	6c                   	insb   (%dx),%es:(%edi)
 61f:	48                   	dec    %eax
 620:	6f                   	outsl  %ds:(%esi),(%dx)
 621:	73 74                	jae    697 <_init-0x8048571>
 623:	44                   	inc    %esp
 624:	65 66 69 6e 69 74 69 	imul   $0x6974,%gs:0x69(%esi),%bp
 62b:	6f                   	outsl  %ds:(%esi),(%dx)
 62c:	6e                   	outsb  %ds:(%esi),(%dx)
 62d:	00 69 73             	add    %ch,0x73(%ecx)
 630:	44                   	inc    %esp
 631:	69 72 65 63 74 6f 72 	imul   $0x726f7463,0x65(%edx),%esi
 638:	79 00                	jns    63a <_init-0x80485ce>
 63a:	73 74                	jae    6b0 <_init-0x8048558>
 63c:	61                   	popa   
 63d:	74 00                	je     63f <_init-0x80485c9>
 63f:	73 74                	jae    6b5 <_init-0x8048553>
 641:	5f                   	pop    %edi
 642:	69 6e 6f 00 5f 5f 6d 	imul   $0x6d5f5f00,0x6f(%esi),%ebp
 649:	6f                   	outsl  %ds:(%esi),(%dx)
 64a:	64                   	fs
 64b:	65                   	gs
 64c:	5f                   	pop    %edi
 64d:	74 00                	je     64f <_init-0x80485b9>
 64f:	5f                   	pop    %edi
 650:	5f                   	pop    %edi
 651:	75 6e                	jne    6c1 <_init-0x8048547>
 653:	75 73                	jne    6c8 <_init-0x8048540>
 655:	65                   	gs
 656:	64                   	fs
 657:	34 00                	xor    $0x0,%al
 659:	5f                   	pop    %edi
 65a:	5f                   	pop    %edi
 65b:	75 6e                	jne    6cb <_init-0x804853d>
 65d:	75 73                	jne    6d2 <_init-0x8048536>
 65f:	65                   	gs
 660:	64                   	fs
 661:	35 00 5f 5f 62       	xor    $0x625f5f00,%eax
 666:	6c                   	insb   (%dx),%es:(%edi)
 667:	6b 63 6e 74          	imul   $0x74,0x6e(%ebx),%esp
 66b:	5f                   	pop    %edi
 66c:	74 00                	je     66e <_init-0x804859a>
 66e:	64 6f                	outsl  %fs:(%esi),(%dx)
 670:	65                   	gs
 671:	73 5f                	jae    6d2 <_init-0x8048536>
 673:	66 69 6c 65 5f 65 78 	imul   $0x7865,0x5f(%ebp),%bp
 67a:	69 73 74 00 63 6f 75 	imul   $0x756f6300,0x74(%ebx),%esi
 681:	6e                   	outsb  %ds:(%esi),(%dx)
 682:	74 5f                	je     6e3 <_init-0x8048525>
 684:	76 68                	jbe    6ee <_init-0x804851a>
 686:	6f                   	outsl  %ds:(%esi),(%dx)
 687:	73 74                	jae    6fd <_init-0x804850b>
 689:	73 00                	jae    68b <_init-0x804857d>
 68b:	5f                   	pop    %edi
 68c:	5f                   	pop    %edi
 68d:	62 75 69             	bound  %esi,0x69(%ebp)
 690:	6c                   	insb   (%dx),%es:(%edi)
 691:	74 69                	je     6fc <_init-0x804850c>
 693:	6e                   	outsb  %ds:(%esi),(%dx)
 694:	5f                   	pop    %edi
 695:	76 61                	jbe    6f8 <_init-0x8048510>
 697:	5f                   	pop    %edi
 698:	6c                   	insb   (%dx),%es:(%edi)
 699:	69 73 74 00 64 61 74 	imul   $0x74616400,0x74(%ebx),%esi
 6a0:	65                   	gs
 6a1:	74 69                	je     70c <_init-0x80484fc>
 6a3:	6d                   	insl   (%dx),%es:(%edi)
 6a4:	65                   	gs
 6a5:	5f                   	pop    %edi
 6a6:	66 69 6e 61 6c 00    	imul   $0x6c,0x61(%esi),%bp
 6ac:	63 6f 75             	arpl   %bp,0x75(%edi)
 6af:	6e                   	outsb  %ds:(%esi),(%dx)
 6b0:	74 00                	je     6b2 <_init-0x8048556>
 6b2:	73 74                	jae    728 <_init-0x80484e0>
 6b4:	5f                   	pop    %edi
 6b5:	62 6c 6f 63          	bound  %ebp,0x63(%edi,%ebp,2)
 6b9:	6b 73 00 73          	imul   $0x73,0x0(%ebx),%esi
 6bd:	74 72                	je     731 <_init-0x80484d7>
 6bf:	69 6e 67 31 00 74 65 	imul   $0x65740031,0x67(%esi),%ebp
 6c6:	6d                   	insl   (%dx),%es:(%edi)
 6c7:	70 00                	jo     6c9 <_init-0x804853f>
 6c9:	73 74                	jae    73f <_init-0x80484c9>
 6cb:	5f                   	pop    %edi
 6cc:	75 69                	jne    737 <_init-0x80484d1>
 6ce:	64 00 67 65          	add    %ah,%fs:0x65(%edi)
 6d2:	74 5f                	je     733 <_init-0x80484d5>
 6d4:	66 69 6c 65 5f 73 69 	imul   $0x6973,0x5f(%ebp),%bp
 6db:	7a 65                	jp     742 <_init-0x80484c6>
 6dd:	00 67 73             	add    %ah,0x73(%edi)
 6e0:	74 72                	je     754 <_init-0x80484b4>
 6e2:	6c                   	insb   (%dx),%es:(%edi)
 6e3:	77 72                	ja     757 <_init-0x80484b1>
 6e5:	00 5f 5f             	add    %bl,0x5f(%edi)
 6e8:	6e                   	outsb  %ds:(%esi),(%dx)
 6e9:	6c                   	insb   (%dx),%es:(%edi)
 6ea:	69 6e 6b 5f 74 00 72 	imul   $0x7200745f,0x6b(%esi),%ebp
 6f1:	65                   	gs
 6f2:	61                   	popa   
 6f3:	64 69 6e 63 6f 6e 66 	imul   $0x69666e6f,%fs:0x63(%esi),%ebp
 6fa:	69 
 6fb:	67 00 73 74          	addr16 add %dh,0x74(%bp,%di)
 6ff:	5f                   	pop    %edi
 700:	73 69                	jae    76b <_init-0x804849d>
 702:	7a 65                	jp     769 <_init-0x804849f>
 704:	00 6c 6f 67          	add    %ch,0x67(%edi,%ebp,2)
 708:	66 69 6c 65 6e 61 6d 	imul   $0x6d61,0x6e(%ebp),%bp
 70f:	65 00 64 61 74       	add    %ah,%gs:0x74(%ecx)
 714:	65                   	gs
 715:	74 69                	je     780 <_init-0x8048488>
 717:	6d                   	insl   (%dx),%es:(%edi)
 718:	65 00 74 76 5f       	add    %dh,%gs:0x5f(%esi,%esi,2)
 71d:	6e                   	outsb  %ds:(%esi),(%dx)
 71e:	73 65                	jae    785 <_init-0x8048483>
 720:	63 00                	arpl   %ax,(%eax)
 722:	5f                   	pop    %edi
 723:	5f                   	pop    %edi
 724:	64                   	fs
 725:	65                   	gs
 726:	76 5f                	jbe    787 <_init-0x8048481>
 728:	74 00                	je     72a <_init-0x80484de>
 72a:	5f                   	pop    %edi
 72b:	5f                   	pop    %edi
 72c:	67 6e                	addr16 outsb %ds:(%si),(%dx)
 72e:	75 63                	jne    793 <_init-0x8048475>
 730:	5f                   	pop    %edi
 731:	76 61                	jbe    794 <_init-0x8048474>
 733:	5f                   	pop    %edi
 734:	6c                   	insb   (%dx),%es:(%edi)
 735:	69 73 74 00 74 68 65 	imul   $0x65687400,0x74(%ebx),%esi
 73c:	76 68                	jbe    7a6 <_init-0x8048462>
 73e:	6f                   	outsl  %ds:(%esi),(%dx)
 73f:	73 74                	jae    7b5 <_init-0x8048453>
 741:	00 5f 5f             	add    %bl,0x5f(%edi)
 744:	62 6c 6b 73          	bound  %ebp,0x73(%ebx,%ebp,2)
 748:	69 7a 65 5f 74 00 5f 	imul   $0x5f00745f,0x65(%edx),%edi
 74f:	5f                   	pop    %edi
 750:	6e                   	outsb  %ds:(%esi),(%dx)
 751:	70 74                	jo     7c7 <_init-0x8048441>
 753:	72 00                	jb     755 <_init-0x80484b3>
 755:	5f                   	pop    %edi
 756:	5f                   	pop    %edi
 757:	72 65                	jb     7be <_init-0x804844a>
 759:	73 00                	jae    75b <_init-0x80484ad>
 75b:	75 74                	jne    7d1 <_init-0x8048437>
 75d:	69 6c 2e 63 00 67 73 	imul   $0x74736700,0x63(%esi,%ebp,1),%ebp
 764:	74 
 765:	72 69                	jb     7d0 <_init-0x8048438>
 767:	63 6d 70             	arpl   %bp,0x70(%ebp)
 76a:	00 73 74             	add    %dh,0x74(%ebx)
 76d:	5f                   	pop    %edi
 76e:	6e                   	outsb  %ds:(%esi),(%dx)
 76f:	6c                   	insb   (%dx),%es:(%edi)
 770:	69 6e 6b 00 61 74 6f 	imul   $0x6f746100,0x6b(%esi),%ebp
 777:	69 00 73 74 5f 62    	imul   $0x625f7473,(%eax),%eax
 77d:	6c                   	insb   (%dx),%es:(%edi)
 77e:	6b 73 69 7a          	imul   $0x7a,0x69(%ebx),%esi
 782:	65 00 74 69 6d       	add    %dh,%gs:0x6d(%ecx,%ebp,2)
 787:	65                   	gs
 788:	73 70                	jae    7fa <_init-0x804840e>
 78a:	65 63 00             	arpl   %ax,%gs:(%eax)
 78d:	66 6f                	outsw  %ds:(%esi),(%dx)
 78f:	72 6d                	jb     7fe <_init-0x804840a>
 791:	61                   	popa   
 792:	74 00                	je     794 <_init-0x8048474>
 794:	67                   	addr16
 795:	65                   	gs
 796:	74 66                	je     7fe <_init-0x804840a>
 798:	69 6c 65 6c 69 6e 65 	imul   $0x656e69,0x6c(%ebp),%ebp
 79f:	00 
 7a0:	73 74                	jae    816 <_init-0x80483f2>
 7a2:	5f                   	pop    %edi
 7a3:	72 64                	jb     809 <_init-0x80483ff>
 7a5:	65                   	gs
 7a6:	76 00                	jbe    7a8 <_init-0x8048460>
 7a8:	74 65                	je     80f <_init-0x80483f9>
 7aa:	6d                   	insl   (%dx),%es:(%edi)
 7ab:	70 32                	jo     7df <_init-0x8048429>
 7ad:	00 5f 5f             	add    %bl,0x5f(%edi)
 7b0:	73 74                	jae    826 <_init-0x80483e2>
 7b2:	61                   	popa   
 7b3:	74 62                	je     817 <_init-0x80483f1>
 7b5:	75 66                	jne    81d <_init-0x80483eb>
 7b7:	00 73 74             	add    %dh,0x74(%ebx)
 7ba:	5f                   	pop    %edi
 7bb:	6d                   	insl   (%dx),%es:(%edi)
 7bc:	6f                   	outsl  %ds:(%esi),(%dx)
 7bd:	64 65 00 73 74       	add    %dh,%fs:%gs:0x74(%ebx)
 7c2:	5f                   	pop    %edi
 7c3:	67 69 64 00 73 74 5f 	addr16 imul $0x615f7473,0x0(%si),%esp
 7ca:	61 
 7cb:	74 69                	je     836 <_init-0x80483d2>
 7cd:	6d                   	insl   (%dx),%es:(%edi)
 7ce:	00 73 74             	add    %dh,0x74(%ebx)
 7d1:	5f                   	pop    %edi
 7d2:	64                   	fs
 7d3:	65                   	gs
 7d4:	76 00                	jbe    7d6 <_init-0x8048432>
 7d6:	6c                   	insb   (%dx),%es:(%edi)
 7d7:	6f                   	outsl  %ds:(%esi),(%dx)
 7d8:	67 66 69 6c 65 00 73 	addr16 imul $0x7300,0x65(%si),%bp
 7df:	74 5f                	je     840 <_init-0x80483c8>
 7e1:	6d                   	insl   (%dx),%es:(%edi)
 7e2:	74 69                	je     84d <_init-0x80483bb>
 7e4:	6d                   	insl   (%dx),%es:(%edi)
	...
Disassembly of section .debug_loc:

00000000 <.debug_loc>:
   0:	00 00                	add    %al,(%eax)
   2:	00 00                	add    %al,(%eax)
   4:	01 00                	add    %eax,(%eax)
   6:	00 00                	add    %al,(%eax)
   8:	02 00                	add    (%eax),%al
   a:	74 04                	je     10 <_init-0x8048bf8>
   c:	01 00                	add    %eax,(%eax)
   e:	00 00                	add    %al,(%eax)
  10:	03 00                	add    (%eax),%eax
  12:	00 00                	add    %al,(%eax)
  14:	02 00                	add    (%eax),%al
  16:	74 08                	je     20 <_init-0x8048be8>
  18:	03 00                	add    (%eax),%eax
  1a:	00 00                	add    %al,(%eax)
  1c:	6e                   	outsb  %ds:(%esi),(%dx)
  1d:	00 00                	add    %al,(%eax)
  1f:	00 02                	add    %al,(%edx)
  21:	00 75 08             	add    %dh,0x8(%ebp)
	...
  30:	0e                   	push   %cs
  31:	00 00                	add    %al,(%eax)
  33:	00 02                	add    %al,(%edx)
  35:	00 91 00 0e 00 00    	add    %dl,0xe00(%ecx)
  3b:	00 11                	add    %dl,(%ecx)
  3d:	00 00                	add    %al,(%eax)
  3f:	00 01                	add    %al,(%ecx)
  41:	00 50 19             	add    %dl,0x19(%eax)
  44:	00 00                	add    %al,(%eax)
  46:	00 3c 00             	add    %bh,(%eax,%eax,1)
  49:	00 00                	add    %al,(%eax)
  4b:	01 00                	add    %eax,(%eax)
  4d:	50                   	push   %eax
  4e:	3c 00                	cmp    $0x0,%al
  50:	00 00                	add    %al,(%eax)
  52:	42                   	inc    %edx
  53:	00 00                	add    %al,(%eax)
  55:	00 02                	add    %al,(%edx)
  57:	00 75 08             	add    %dh,0x8(%ebp)
	...
  62:	70 00                	jo     64 <_init-0x8048ba4>
  64:	00 00                	add    %al,(%eax)
  66:	71 00                	jno    68 <_init-0x8048ba0>
  68:	00 00                	add    %al,(%eax)
  6a:	02 00                	add    (%eax),%al
  6c:	74 04                	je     72 <_init-0x8048b96>
  6e:	71 00                	jno    70 <_init-0x8048b98>
  70:	00 00                	add    %al,(%eax)
  72:	73 00                	jae    74 <_init-0x8048b94>
  74:	00 00                	add    %al,(%eax)
  76:	02 00                	add    (%eax),%al
  78:	74 08                	je     82 <_init-0x8048b86>
  7a:	73 00                	jae    7c <_init-0x8048b8c>
  7c:	00 00                	add    %al,(%eax)
  7e:	22 01                	and    (%ecx),%al
  80:	00 00                	add    %al,(%eax)
  82:	02 00                	add    (%eax),%al
  84:	75 08                	jne    8e <_init-0x8048b7a>
	...
  8e:	aa                   	stos   %al,%es:(%edi)
  8f:	00 00                	add    %al,(%eax)
  91:	00 ac 00 00 00 01 00 	add    %ch,0x10000(%eax,%eax,1)
  98:	50                   	push   %eax
  99:	ac                   	lods   %ds:(%esi),%al
  9a:	00 00                	add    %al,(%eax)
  9c:	00 14 01             	add    %dl,(%ecx,%eax,1)
  9f:	00 00                	add    %al,(%eax)
  a1:	01 00                	add    %eax,(%eax)
  a3:	53                   	push   %ebx
	...
  ac:	30 01                	xor    %al,(%ecx)
  ae:	00 00                	add    %al,(%eax)
  b0:	34 01                	xor    $0x1,%al
  b2:	00 00                	add    %al,(%eax)
  b4:	02 00                	add    (%eax),%al
  b6:	74 04                	je     bc <_init-0x8048b4c>
  b8:	34 01                	xor    $0x1,%al
  ba:	00 00                	add    %al,(%eax)
  bc:	3a 01                	cmp    (%ecx),%al
  be:	00 00                	add    %al,(%eax)
  c0:	01 00                	add    %eax,(%eax)
  c2:	51                   	push   %ecx
  c3:	3a 01                	cmp    (%ecx),%al
  c5:	00 00                	add    %al,(%eax)
  c7:	3b 01                	cmp    (%ecx),%eax
  c9:	00 00                	add    %al,(%eax)
  cb:	02 00                	add    (%eax),%al
  cd:	74 04                	je     d3 <_init-0x8048b35>
  cf:	3b 01                	cmp    (%ecx),%eax
  d1:	00 00                	add    %al,(%eax)
  d3:	3d 01 00 00 02       	cmp    $0x2000001,%eax
  d8:	00 74 08 3d          	add    %dh,0x3d(%eax,%ecx,1)
  dc:	01 00                	add    %eax,(%eax)
  de:	00 ed                	add    %ch,%ch
  e0:	05 00 00 02 00       	add    $0x20000,%eax
  e5:	75 08                	jne    ef <_init-0x8048b19>
	...
  ef:	75 03                	jne    f4 <_init-0x8048b14>
  f1:	00 00                	add    %al,(%eax)
  f3:	95                   	xchg   %eax,%ebp
  f4:	03 00                	add    (%eax),%eax
  f6:	00 01                	add    %al,(%ecx)
  f8:	00 50 06             	add    %dl,0x6(%eax)
  fb:	04 00                	add    $0x0,%al
  fd:	00 12                	add    %dl,(%edx)
  ff:	04 00                	add    $0x0,%al
 101:	00 01                	add    %al,(%ecx)
 103:	00 50 1c             	add    %dl,0x1c(%eax)
 106:	04 00                	add    $0x0,%al
 108:	00 21                	add    %ah,(%ecx)
 10a:	04 00                	add    $0x0,%al
 10c:	00 01                	add    %al,(%ecx)
 10e:	00 50 00             	add    %dl,0x0(%eax)
 111:	00 00                	add    %al,(%eax)
 113:	00 00                	add    %al,(%eax)
 115:	00 00                	add    %al,(%eax)
 117:	00 86 02 00 00 88    	add    %al,-0x77fffffe(%esi)
 11d:	02 00                	add    (%eax),%al
 11f:	00 01                	add    %al,(%ecx)
 121:	00 50 88             	add    %dl,-0x78(%eax)
 124:	02 00                	add    (%eax),%al
 126:	00 95 03 00 00 01    	add    %dl,0x1000003(%ebp)
 12c:	00 56 a9             	add    %dl,-0x57(%esi)
 12f:	03 00                	add    (%eax),%eax
 131:	00 ed                	add    %ch,%ch
 133:	05 00 00 01 00       	add    $0x10000,%eax
 138:	56                   	push   %esi
	...
 141:	86 03                	xchg   %al,(%ebx)
 143:	00 00                	add    %al,(%eax)
 145:	95                   	xchg   %eax,%ebp
 146:	03 00                	add    (%eax),%eax
 148:	00 01                	add    %al,(%ecx)
 14a:	00 53 61             	add    %dl,0x61(%ebx)
 14d:	04 00                	add    $0x0,%al
 14f:	00 ed                	add    %ch,%ch
 151:	05 00 00 01 00       	add    $0x10000,%eax
 156:	53                   	push   %ebx
	...
 15f:	86 03                	xchg   %al,(%ebx)
 161:	00 00                	add    %al,(%eax)
 163:	95                   	xchg   %eax,%ebp
 164:	03 00                	add    (%eax),%eax
 166:	00 02                	add    %al,(%edx)
 168:	00 75 6c             	add    %dh,0x6c(%ebp)
 16b:	61                   	popa   
 16c:	04 00                	add    $0x0,%al
 16e:	00 ed                	add    %ch,%ch
 170:	05 00 00 02 00       	add    $0x20000,%eax
 175:	75 6c                	jne    1e3 <_init-0x8048a25>
	...
 17f:	98                   	cwtl   
 180:	02 00                	add    (%eax),%al
 182:	00 95 03 00 00 02    	add    %dl,0x2000003(%ebp)
 188:	00 75 68             	add    %dh,0x68(%ebp)
 18b:	bd 03 00 00 ed       	mov    $0xed000003,%ebp
 190:	05 00 00 02 00       	add    $0x20000,%eax
 195:	75 68                	jne    1ff <_init-0x8048a09>
	...
 19f:	44                   	inc    %esp
 1a0:	04 00                	add    $0x0,%al
 1a2:	00 46 04             	add    %al,0x4(%esi)
 1a5:	00 00                	add    %al,(%eax)
 1a7:	01 00                	add    %eax,(%eax)
 1a9:	50                   	push   %eax
 1aa:	46                   	inc    %esi
 1ab:	04 00                	add    $0x0,%al
 1ad:	00 80 04 00 00 01    	add    %al,0x1000004(%eax)
 1b3:	00 53 00             	add    %dl,0x0(%ebx)
 1b6:	00 00                	add    %al,(%eax)
 1b8:	00 00                	add    %al,(%eax)
 1ba:	00 00                	add    %al,(%eax)
 1bc:	00 c5                	add    %al,%ch
 1be:	02 00                	add    (%eax),%al
 1c0:	00 cc                	add    %cl,%ah
 1c2:	02 00                	add    (%eax),%al
 1c4:	00 01                	add    %al,(%ecx)
 1c6:	00 50 00             	add    %dl,0x0(%eax)
	...
 1d1:	00 00                	add    %al,(%eax)
 1d3:	00 01                	add    %al,(%ecx)
 1d5:	00 00                	add    %al,(%eax)
 1d7:	00 02                	add    %al,(%edx)
 1d9:	00 74 04 01          	add    %dh,0x1(%esp,%eax,1)
 1dd:	00 00                	add    %al,(%eax)
 1df:	00 03                	add    %al,(%ebx)
 1e1:	00 00                	add    %al,(%eax)
 1e3:	00 02                	add    %al,(%edx)
 1e5:	00 74 08 03          	add    %dh,0x3(%eax,%ecx,1)
 1e9:	00 00                	add    %al,(%eax)
 1eb:	00 0e                	add    %cl,(%esi)
 1ed:	02 00                	add    (%eax),%al
 1ef:	00 02                	add    %al,(%edx)
 1f1:	00 75 08             	add    %dh,0x8(%ebp)
	...
 200:	9f                   	lahf   
 201:	00 00                	add    %al,(%eax)
 203:	00 02                	add    %al,(%edx)
 205:	00 91 00 9f 00 00    	add    %dl,0x9f00(%ecx)
 20b:	00 e1                	add    %ah,%cl
 20d:	00 00                	add    %al,(%eax)
 20f:	00 01                	add    %al,(%ecx)
 211:	00 56 e1             	add    %dl,-0x1f(%esi)
 214:	00 00                	add    %al,(%eax)
 216:	00 0e                	add    %cl,(%esi)
 218:	02 00                	add    (%eax),%al
 21a:	00 03                	add    %al,(%ebx)
 21c:	00 75 a0             	add    %dh,-0x60(%ebp)
 21f:	6c                   	insb   (%dx),%es:(%edi)
	...
 22c:	9f                   	lahf   
 22d:	00 00                	add    %al,(%eax)
 22f:	00 02                	add    %al,(%edx)
 231:	00 91 04 9f 00 00    	add    %dl,0x9f04(%ecx)
 237:	00 0e                	add    %cl,(%esi)
 239:	02 00                	add    (%eax),%al
 23b:	00 02                	add    %al,(%edx)
 23d:	00 75 0c             	add    %dh,0xc(%ebp)
	...
 24c:	9f                   	lahf   
 24d:	00 00                	add    %al,(%eax)
 24f:	00 02                	add    %al,(%edx)
 251:	00 91 08 9f 00 00    	add    %dl,0x9f08(%ecx)
 257:	00 0e                	add    %cl,(%esi)
 259:	02 00                	add    (%eax),%al
 25b:	00 02                	add    %al,(%edx)
 25d:	00 75 10             	add    %dh,0x10(%ebp)
	...
 268:	ff 00                	incl   (%eax)
 26a:	00 00                	add    %al,(%eax)
 26c:	d2 01                	rolb   %cl,(%ecx)
 26e:	00 00                	add    %al,(%eax)
 270:	02 00                	add    (%eax),%al
 272:	75 70                	jne    2e4 <_init-0x8048924>
 274:	de 01                	fiadd  (%ecx)
 276:	00 00                	add    %al,(%eax)
 278:	0e                   	push   %cs
 279:	02 00                	add    (%eax),%al
 27b:	00 02                	add    %al,(%edx)
 27d:	00 75 70             	add    %dh,0x70(%ebp)
	...
 288:	fd                   	std    
 289:	00 00                	add    %al,(%eax)
 28b:	00 d2                	add    %dl,%dl
 28d:	01 00                	add    %eax,(%eax)
 28f:	00 03                	add    %al,(%ebx)
 291:	00 75 9c             	add    %dh,-0x64(%ebp)
 294:	6c                   	insb   (%dx),%es:(%edi)
 295:	de 01                	fiadd  (%ecx)
 297:	00 00                	add    %al,(%eax)
 299:	0e                   	push   %cs
 29a:	02 00                	add    (%eax),%al
 29c:	00 03                	add    %al,(%ebx)
 29e:	00 75 9c             	add    %dh,-0x64(%ebp)
 2a1:	6c                   	insb   (%dx),%es:(%edi)
	...
 2aa:	ff 00                	incl   (%eax)
 2ac:	00 00                	add    %al,(%eax)
 2ae:	ce                   	into   
 2af:	01 00                	add    %eax,(%eax)
 2b1:	00 01                	add    %al,(%ecx)
 2b3:	00 53 de             	add    %dl,-0x22(%ebx)
 2b6:	01 00                	add    %eax,(%eax)
 2b8:	00 0a                	add    %cl,(%edx)
 2ba:	02 00                	add    (%eax),%al
 2bc:	00 01                	add    %al,(%ecx)
 2be:	00 53 00             	add    %dl,0x0(%ebx)
 2c1:	00 00                	add    %al,(%eax)
 2c3:	00 00                	add    %al,(%eax)
 2c5:	00 00                	add    %al,(%eax)
 2c7:	00 10                	add    %dl,(%eax)
 2c9:	02 00                	add    (%eax),%al
 2cb:	00 11                	add    %dl,(%ecx)
 2cd:	02 00                	add    (%eax),%al
 2cf:	00 02                	add    %al,(%edx)
 2d1:	00 74 04 11          	add    %dh,0x11(%esp,%eax,1)
 2d5:	02 00                	add    (%eax),%al
 2d7:	00 18                	add    %bl,(%eax)
 2d9:	02 00                	add    (%eax),%al
 2db:	00 02                	add    %al,(%edx)
 2dd:	00 74 08 18          	add    %dh,0x18(%eax,%ecx,1)
 2e1:	02 00                	add    (%eax),%al
 2e3:	00 2c 03             	add    %ch,(%ebx,%eax,1)
 2e6:	00 00                	add    %al,(%eax)
 2e8:	02 00                	add    (%eax),%al
 2ea:	75 08                	jne    2f4 <_init-0x8048914>
	...
 2f4:	10 02                	adc    %al,(%edx)
 2f6:	00 00                	add    %al,(%eax)
 2f8:	37                   	aaa    
 2f9:	02 00                	add    (%eax),%al
 2fb:	00 02                	add    %al,(%edx)
 2fd:	00 91 00 37 02 00    	add    %dl,0x23700(%ecx)
 303:	00 59 02             	add    %bl,0x2(%ecx)
 306:	00 00                	add    %al,(%eax)
 308:	01 00                	add    %eax,(%eax)
 30a:	56                   	push   %esi
 30b:	59                   	pop    %ecx
 30c:	02 00                	add    (%eax),%al
 30e:	00 2c 03             	add    %ch,(%ebx,%eax,1)
 311:	00 00                	add    %al,(%eax)
 313:	02 00                	add    (%eax),%al
 315:	75 08                	jne    31f <_init-0x80488e9>
	...
 31f:	10 02                	adc    %al,(%edx)
 321:	00 00                	add    %al,(%eax)
 323:	f3 02 00             	repz add (%eax),%al
 326:	00 02                	add    %al,(%edx)
 328:	00 91 04 f3 02 00    	add    %dl,0x2f304(%ecx)
 32e:	00 28                	add    %ch,(%eax)
 330:	03 00                	add    (%eax),%eax
 332:	00 02                	add    %al,(%edx)
 334:	00 75 0c             	add    %dh,0xc(%ebp)
 337:	28 03                	sub    %al,(%ebx)
 339:	00 00                	add    %al,(%eax)
 33b:	2c 03                	sub    $0x3,%al
 33d:	00 00                	add    %al,(%eax)
 33f:	02 00                	add    (%eax),%al
 341:	91                   	xchg   %eax,%ecx
 342:	04 00                	add    $0x0,%al
 344:	00 00                	add    %al,(%eax)
 346:	00 00                	add    %al,(%eax)
 348:	00 00                	add    %al,(%eax)
 34a:	00 35 02 00 00 9e    	add    %dh,0x9e000002
 350:	02 00                	add    (%eax),%al
 352:	00 01                	add    %al,(%ecx)
 354:	00 57 d0             	add    %dl,-0x30(%edi)
 357:	02 00                	add    (%eax),%al
 359:	00 26                	add    %ah,(%esi)
 35b:	03 00                	add    (%eax),%eax
 35d:	00 01                	add    %al,(%ecx)
 35f:	00 57 00             	add    %dl,0x0(%edi)
 362:	00 00                	add    %al,(%eax)
 364:	00 00                	add    %al,(%eax)
 366:	00 00                	add    %al,(%eax)
 368:	00 30                	add    %dh,(%eax)
 36a:	03 00                	add    (%eax),%eax
 36c:	00 31                	add    %dh,(%ecx)
 36e:	03 00                	add    (%eax),%eax
 370:	00 02                	add    %al,(%edx)
 372:	00 74 04 31          	add    %dh,0x31(%esp,%eax,1)
 376:	03 00                	add    (%eax),%eax
 378:	00 33                	add    %dh,(%ebx)
 37a:	03 00                	add    (%eax),%eax
 37c:	00 02                	add    %al,(%edx)
 37e:	00 74 08 33          	add    %dh,0x33(%eax,%ecx,1)
 382:	03 00                	add    (%eax),%eax
 384:	00 48 0c             	add    %cl,0xc(%eax)
 387:	00 00                	add    %al,(%eax)
 389:	02 00                	add    (%eax),%al
 38b:	75 08                	jne    395 <_init-0x8048873>
	...
 395:	30 03                	xor    %al,(%ebx)
 397:	00 00                	add    %al,(%eax)
 399:	a4                   	movsb  %ds:(%esi),%es:(%edi)
 39a:	03 00                	add    (%eax),%eax
 39c:	00 02                	add    %al,(%edx)
 39e:	00 91 00 a4 03 00    	add    %dl,0x3a400(%ecx)
 3a4:	00 a9 03 00 00 02    	add    %ch,0x2000003(%ecx)
 3aa:	00 75 08             	add    %dh,0x8(%ebp)
 3ad:	a9 03 00 00 7f       	test   $0x7f000003,%eax
 3b2:	04 00                	add    $0x0,%al
 3b4:	00 02                	add    %al,(%edx)
 3b6:	00 91 00 7f 04 00    	add    %dl,0x47f00(%ecx)
 3bc:	00 9f 04 00 00 02    	add    %bl,0x2000004(%edi)
 3c2:	00 75 08             	add    %dh,0x8(%ebp)
 3c5:	9f                   	lahf   
 3c6:	04 00                	add    $0x0,%al
 3c8:	00 e3                	add    %ah,%bl
 3ca:	04 00                	add    $0x0,%al
 3cc:	00 02                	add    %al,(%edx)
 3ce:	00 91 00 e3 04 00    	add    %dl,0x4e300(%ecx)
 3d4:	00 48 06             	add    %cl,0x6(%eax)
 3d7:	00 00                	add    %al,(%eax)
 3d9:	02 00                	add    (%eax),%al
 3db:	75 08                	jne    3e5 <_init-0x8048823>
 3dd:	48                   	dec    %eax
 3de:	06                   	push   %es
 3df:	00 00                	add    %al,(%eax)
 3e1:	9d                   	popf   
 3e2:	07                   	pop    %es
 3e3:	00 00                	add    %al,(%eax)
 3e5:	02 00                	add    (%eax),%al
 3e7:	91                   	xchg   %eax,%ecx
 3e8:	00 9d 07 00 00 b7    	add    %bl,-0x48fffff9(%ebp)
 3ee:	07                   	pop    %es
 3ef:	00 00                	add    %al,(%eax)
 3f1:	02 00                	add    (%eax),%al
 3f3:	75 08                	jne    3fd <_init-0x804880b>
 3f5:	b7 07                	mov    $0x7,%bh
 3f7:	00 00                	add    %al,(%eax)
 3f9:	3b 08                	cmp    (%eax),%ecx
 3fb:	00 00                	add    %al,(%eax)
 3fd:	02 00                	add    (%eax),%al
 3ff:	91                   	xchg   %eax,%ecx
 400:	00 3b                	add    %bh,(%ebx)
 402:	08 00                	or     %al,(%eax)
 404:	00 48 0c             	add    %cl,0xc(%eax)
 407:	00 00                	add    %al,(%eax)
 409:	02 00                	add    (%eax),%al
 40b:	75 08                	jne    415 <_init-0x80487f3>
	...
 415:	a4                   	movsb  %ds:(%esi),%es:(%edi)
 416:	03 00                	add    (%eax),%eax
 418:	00 b1 03 00 00 01    	add    %dh,0x1000003(%ecx)
 41e:	00 56 97             	add    %dl,-0x69(%esi)
 421:	04 00                	add    $0x0,%al
 423:	00 99 04 00 00 01    	add    %bl,0x1000004(%ecx)
 429:	00 50 99             	add    %dl,-0x67(%eax)
 42c:	04 00                	add    $0x0,%al
 42e:	00 45 06             	add    %al,0x6(%ebp)
 431:	00 00                	add    %al,(%eax)
 433:	01 00                	add    %eax,(%eax)
 435:	56                   	push   %esi
 436:	9d                   	popf   
 437:	07                   	pop    %es
 438:	00 00                	add    %al,(%eax)
 43a:	b7 07                	mov    $0x7,%bh
 43c:	00 00                	add    %al,(%eax)
 43e:	01 00                	add    %eax,(%eax)
 440:	56                   	push   %esi
 441:	13 0c 00             	adc    (%eax,%eax,1),%ecx
 444:	00 22                	add    %ah,(%edx)
 446:	0c 00                	or     $0x0,%al
 448:	00 01                	add    %al,(%ecx)
 44a:	00 53 00             	add    %dl,0x0(%ebx)
 44d:	00 00                	add    %al,(%eax)
 44f:	00 00                	add    %al,(%eax)
 451:	00 00                	add    %al,(%eax)
 453:	00 a4 03 00 00 b4 03 	add    %ah,0x3b40000(%ebx,%eax,1)
 45a:	00 00                	add    %al,(%eax)
 45c:	04 00                	add    $0x0,%al
 45e:	75 a0                	jne    400 <_init-0x8048808>
 460:	fd                   	std    
 461:	7e f6                	jle    459 <_init-0x80487af>
 463:	03 00                	add    (%eax),%eax
 465:	00 f8                	add    %bh,%al
 467:	03 00                	add    (%eax),%eax
 469:	00 01                	add    %al,(%ecx)
 46b:	00 50 f8             	add    %dl,-0x8(%eax)
 46e:	03 00                	add    (%eax),%eax
 470:	00 7f 04             	add    %bh,0x4(%edi)
 473:	00 00                	add    %al,(%eax)
 475:	01 00                	add    %eax,(%eax)
 477:	53                   	push   %ebx
 478:	7f 04                	jg     47e <_init-0x804878a>
 47a:	00 00                	add    %al,(%eax)
 47c:	48                   	dec    %eax
 47d:	06                   	push   %es
 47e:	00 00                	add    %al,(%eax)
 480:	04 00                	add    $0x0,%al
 482:	75 a0                	jne    424 <_init-0x80487e4>
 484:	fd                   	std    
 485:	7e 48                	jle    4cf <_init-0x8048739>
 487:	06                   	push   %es
 488:	00 00                	add    %al,(%eax)
 48a:	84 06                	test   %al,(%esi)
 48c:	00 00                	add    %al,(%eax)
 48e:	01 00                	add    %eax,(%eax)
 490:	53                   	push   %ebx
 491:	84 06                	test   %al,(%esi)
 493:	00 00                	add    %al,(%eax)
 495:	48                   	dec    %eax
 496:	0c 00                	or     $0x0,%al
 498:	00 04 00             	add    %al,(%eax,%eax,1)
 49b:	75 a0                	jne    43d <_init-0x80487cb>
 49d:	fd                   	std    
 49e:	7e 00                	jle    4a0 <_init-0x8048768>
 4a0:	00 00                	add    %al,(%eax)
 4a2:	00 00                	add    %al,(%eax)
 4a4:	00 00                	add    %al,(%eax)
 4a6:	00 a4 03 00 00 b1 03 	add    %ah,0x3b10000(%ebx,%eax,1)
 4ad:	00 00                	add    %al,(%eax)
 4af:	01 00                	add    %eax,(%eax)
 4b1:	56                   	push   %esi
 4b2:	7f 04                	jg     4b8 <_init-0x8048750>
 4b4:	00 00                	add    %al,(%eax)
 4b6:	99                   	cltd   
 4b7:	04 00                	add    $0x0,%al
 4b9:	00 01                	add    %al,(%ecx)
 4bb:	00 56 c0             	add    %dl,-0x40(%esi)
 4be:	08 00                	or     %al,(%eax)
 4c0:	00 c2                	add    %al,%dl
 4c2:	08 00                	or     %al,(%eax)
 4c4:	00 01                	add    %al,(%ecx)
 4c6:	00 50 c2             	add    %dl,-0x3e(%eax)
 4c9:	08 00                	or     %al,(%eax)
 4cb:	00 c1                	add    %al,%cl
 4cd:	09 00                	or     %eax,(%eax)
 4cf:	00 01                	add    %al,(%ecx)
 4d1:	00 56 eb             	add    %dl,-0x15(%esi)
 4d4:	0a 00                	or     (%eax),%al
 4d6:	00 22                	add    %ah,(%edx)
 4d8:	0c 00                	or     $0x0,%al
 4da:	00 01                	add    %al,(%ecx)
 4dc:	00 56 00             	add    %dl,0x0(%esi)
 4df:	00 00                	add    %al,(%eax)
 4e1:	00 00                	add    %al,(%eax)
 4e3:	00 00                	add    %al,(%eax)
 4e5:	00 a6 06 00 00 ab    	add    %ah,-0x54fffffa(%esi)
 4eb:	06                   	push   %es
 4ec:	00 00                	add    %al,(%eax)
 4ee:	01 00                	add    %eax,(%eax)
 4f0:	50                   	push   %eax
 4f1:	15 07 00 00 23       	adc    $0x23000007,%eax
 4f6:	07                   	pop    %es
 4f7:	00 00                	add    %al,(%eax)
 4f9:	01 00                	add    %eax,(%eax)
 4fb:	50                   	push   %eax
	...
 504:	a4                   	movsb  %ds:(%esi),%es:(%edi)
 505:	03 00                	add    (%eax),%eax
 507:	00 b4 03 00 00 04 00 	add    %dh,0x40000(%ebx,%eax,1)
 50e:	75 94                	jne    4a4 <_init-0x8048764>
 510:	fd                   	std    
 511:	7e 7f                	jle    592 <_init-0x8048676>
 513:	04 00                	add    $0x0,%al
 515:	00 48 06             	add    %cl,0x6(%eax)
 518:	00 00                	add    %al,(%eax)
 51a:	04 00                	add    $0x0,%al
 51c:	75 94                	jne    4b2 <_init-0x8048756>
 51e:	fd                   	std    
 51f:	7e cb                	jle    4ec <_init-0x804871c>
 521:	06                   	push   %es
 522:	00 00                	add    %al,(%eax)
 524:	b7 07                	mov    $0x7,%bh
 526:	00 00                	add    %al,(%eax)
 528:	04 00                	add    $0x0,%al
 52a:	75 94                	jne    4c0 <_init-0x8048748>
 52c:	fd                   	std    
 52d:	7e fb                	jle    52a <_init-0x80486de>
 52f:	07                   	pop    %es
 530:	00 00                	add    %al,(%eax)
 532:	48                   	dec    %eax
 533:	0c 00                	or     $0x0,%al
 535:	00 04 00             	add    %al,(%eax,%eax,1)
 538:	75 94                	jne    4ce <_init-0x804873a>
 53a:	fd                   	std    
 53b:	7e 00                	jle    53d <_init-0x80486cb>
 53d:	00 00                	add    %al,(%eax)
 53f:	00 00                	add    %al,(%eax)
 541:	00 00                	add    %al,(%eax)
 543:	00 b6 03 00 00 e4    	add    %dh,-0x1bfffffd(%esi)
 549:	03 00                	add    (%eax),%eax
 54b:	00 01                	add    %al,(%ecx)
 54d:	00 52 7f             	add    %dl,0x7f(%edx)
 550:	04 00                	add    $0x0,%al
 552:	00 99 04 00 00 01    	add    %bl,0x1000004(%ecx)
 558:	00 56 d6             	add    %dl,-0x2a(%esi)
 55b:	06                   	push   %es
 55c:	00 00                	add    %al,(%eax)
 55e:	9d                   	popf   
 55f:	07                   	pop    %es
 560:	00 00                	add    %al,(%eax)
 562:	01 00                	add    %eax,(%eax)
 564:	56                   	push   %esi
 565:	fb                   	sti    
 566:	07                   	pop    %es
 567:	00 00                	add    %al,(%eax)
 569:	c2 08 00             	ret    $0x8
 56c:	00 01                	add    %al,(%ecx)
 56e:	00 56 c1             	add    %dl,-0x3f(%esi)
 571:	09 00                	or     %eax,(%eax)
 573:	00 5b 0a             	add    %bl,0xa(%ebx)
 576:	00 00                	add    %al,(%eax)
 578:	01 00                	add    %eax,(%eax)
 57a:	56                   	push   %esi
	...
 583:	a4                   	movsb  %ds:(%esi),%es:(%edi)
 584:	03 00                	add    (%eax),%eax
 586:	00 b4 03 00 00 04 00 	add    %dh,0x40000(%ebx,%eax,1)
 58d:	75 98                	jne    527 <_init-0x80486e1>
 58f:	fd                   	std    
 590:	7e 7f                	jle    611 <_init-0x80485f7>
 592:	04 00                	add    $0x0,%al
 594:	00 48 06             	add    %cl,0x6(%eax)
 597:	00 00                	add    %al,(%eax)
 599:	04 00                	add    $0x0,%al
 59b:	75 98                	jne    535 <_init-0x80486d3>
 59d:	fd                   	std    
 59e:	7e 9d                	jle    53d <_init-0x80486cb>
 5a0:	07                   	pop    %es
 5a1:	00 00                	add    %al,(%eax)
 5a3:	b7 07                	mov    $0x7,%bh
 5a5:	00 00                	add    %al,(%eax)
 5a7:	04 00                	add    $0x0,%al
 5a9:	75 98                	jne    543 <_init-0x80486c5>
 5ab:	fd                   	std    
 5ac:	7e be                	jle    56c <_init-0x804869c>
 5ae:	08 00                	or     %al,(%eax)
 5b0:	00 c1                	add    %al,%cl
 5b2:	09 00                	or     %eax,(%eax)
 5b4:	00 04 00             	add    %al,(%eax,%eax,1)
 5b7:	75 98                	jne    551 <_init-0x80486b7>
 5b9:	fd                   	std    
 5ba:	7e eb                	jle    5a7 <_init-0x8048661>
 5bc:	0a 00                	or     (%eax),%al
 5be:	00 22                	add    %ah,(%edx)
 5c0:	0c 00                	or     $0x0,%al
 5c2:	00 04 00             	add    %al,(%eax,%eax,1)
 5c5:	75 98                	jne    55f <_init-0x80486a9>
 5c7:	fd                   	std    
 5c8:	7e 00                	jle    5ca <_init-0x804863e>
 5ca:	00 00                	add    %al,(%eax)
 5cc:	00 00                	add    %al,(%eax)
 5ce:	00 00                	add    %al,(%eax)
 5d0:	00 38                	add    %bh,(%eax)
 5d2:	03 00                	add    (%eax),%eax
 5d4:	00 b0 03 00 00 01    	add    %dh,0x1000003(%eax)
 5da:	00 53 b4             	add    %dl,-0x4c(%ebx)
 5dd:	03 00                	add    (%eax),%eax
 5df:	00 f8                	add    %bh,%al
 5e1:	03 00                	add    (%eax),%eax
 5e3:	00 01                	add    %al,(%ecx)
 5e5:	00 53 00             	add    %dl,0x0(%ebx)
 5e8:	00 00                	add    %al,(%eax)
 5ea:	00 00                	add    %al,(%eax)
 5ec:	00 00                	add    %al,(%eax)
 5ee:	00 a4 03 00 00 b4 03 	add    %ah,0x3b40000(%ebx,%eax,1)
 5f5:	00 00                	add    %al,(%eax)
 5f7:	04 00                	add    $0x0,%al
 5f9:	75 9c                	jne    597 <_init-0x8048671>
 5fb:	fd                   	std    
 5fc:	7e 7f                	jle    67d <_init-0x804858b>
 5fe:	04 00                	add    $0x0,%al
 600:	00 48 06             	add    %cl,0x6(%eax)
 603:	00 00                	add    %al,(%eax)
 605:	04 00                	add    $0x0,%al
 607:	75 9c                	jne    5a5 <_init-0x8048663>
 609:	fd                   	std    
 60a:	7e a4                	jle    5b0 <_init-0x8048658>
 60c:	06                   	push   %es
 60d:	00 00                	add    %al,(%eax)
 60f:	b7 07                	mov    $0x7,%bh
 611:	00 00                	add    %al,(%eax)
 613:	04 00                	add    $0x0,%al
 615:	75 9c                	jne    5b3 <_init-0x8048655>
 617:	fd                   	std    
 618:	7e fb                	jle    615 <_init-0x80485f3>
 61a:	07                   	pop    %es
 61b:	00 00                	add    %al,(%eax)
 61d:	48                   	dec    %eax
 61e:	0c 00                	or     $0x0,%al
 620:	00 04 00             	add    %al,(%eax,%eax,1)
 623:	75 9c                	jne    5c1 <_init-0x8048647>
 625:	fd                   	std    
 626:	7e 00                	jle    628 <_init-0x80485e0>
	...
 630:	00 00                	add    %al,(%eax)
 632:	00 01                	add    %al,(%ecx)
 634:	00 00                	add    %al,(%eax)
 636:	00 02                	add    %al,(%edx)
 638:	00 74 04 01          	add    %dh,0x1(%esp,%eax,1)
 63c:	00 00                	add    %al,(%eax)
 63e:	00 03                	add    %al,(%ebx)
 640:	00 00                	add    %al,(%eax)
 642:	00 02                	add    %al,(%edx)
 644:	00 74 08 03          	add    %dh,0x3(%eax,%ecx,1)
 648:	00 00                	add    %al,(%eax)
 64a:	00 1d 01 00 00 02    	add    %bl,0x2000001
 650:	00 75 08             	add    %dh,0x8(%ebp)
	...
 65f:	fe 00                	incb   (%eax)
 661:	00 00                	add    %al,(%eax)
 663:	02 00                	add    (%eax),%al
 665:	91                   	xchg   %eax,%ecx
 666:	00 fe                	add    %bh,%dh
 668:	00 00                	add    %al,(%eax)
 66a:	00 1d 01 00 00 02    	add    %bl,0x2000001
 670:	00 75 08             	add    %dh,0x8(%ebp)
	...
 67b:	fa                   	cli    
 67c:	00 00                	add    %al,(%eax)
 67e:	00 fc                	add    %bh,%ah
 680:	00 00                	add    %al,(%eax)
 682:	00 01                	add    %al,(%ecx)
 684:	00 50 fc             	add    %dl,-0x4(%eax)
 687:	00 00                	add    %al,(%eax)
 689:	00 19                	add    %bl,(%ecx)
 68b:	01 00                	add    %eax,(%eax)
 68d:	00 01                	add    %al,(%ecx)
 68f:	00 53 00             	add    %dl,0x0(%ebx)
 692:	00 00                	add    %al,(%eax)
 694:	00 00                	add    %al,(%eax)
 696:	00 00                	add    %al,(%eax)
 698:	00 20                	add    %ah,(%eax)
 69a:	01 00                	add    %eax,(%eax)
 69c:	00 21                	add    %ah,(%ecx)
 69e:	01 00                	add    %eax,(%eax)
 6a0:	00 02                	add    %al,(%edx)
 6a2:	00 74 04 21          	add    %dh,0x21(%esp,%eax,1)
 6a6:	01 00                	add    %eax,(%eax)
 6a8:	00 23                	add    %ah,(%ebx)
 6aa:	01 00                	add    %eax,(%eax)
 6ac:	00 02                	add    %al,(%edx)
 6ae:	00 74 08 23          	add    %dh,0x23(%eax,%ecx,1)
 6b2:	01 00                	add    %eax,(%eax)
 6b4:	00 84 01 00 00 02 00 	add    %al,0x20000(%ecx,%eax,1)
 6bb:	75 08                	jne    6c5 <_init-0x8048543>
	...
 6c5:	20 01                	and    %al,(%ecx)
 6c7:	00 00                	add    %al,(%eax)
 6c9:	2f                   	das    
 6ca:	01 00                	add    %eax,(%eax)
 6cc:	00 02                	add    %al,(%edx)
 6ce:	00 91 00 2f 01 00    	add    %dl,0x12f00(%ecx)
 6d4:	00 63 01             	add    %ah,0x1(%ebx)
 6d7:	00 00                	add    %al,(%eax)
 6d9:	01 00                	add    %eax,(%eax)
 6db:	53                   	push   %ebx
 6dc:	63 01                	arpl   %ax,(%ecx)
 6de:	00 00                	add    %al,(%eax)
 6e0:	6b 01 00             	imul   $0x0,(%ecx),%eax
 6e3:	00 02                	add    %al,(%edx)
 6e5:	00 75 08             	add    %dh,0x8(%ebp)
 6e8:	6b 01 00             	imul   $0x0,(%ecx),%eax
 6eb:	00 7b 01             	add    %bh,0x1(%ebx)
 6ee:	00 00                	add    %al,(%eax)
 6f0:	01 00                	add    %eax,(%eax)
 6f2:	53                   	push   %ebx
 6f3:	7b 01                	jnp    6f6 <_init-0x8048512>
 6f5:	00 00                	add    %al,(%eax)
 6f7:	84 01                	test   %al,(%ecx)
 6f9:	00 00                	add    %al,(%eax)
 6fb:	02 00                	add    (%eax),%al
 6fd:	75 08                	jne    707 <_init-0x8048501>
	...
 707:	20 01                	and    %al,(%ecx)
 709:	00 00                	add    %al,(%eax)
 70b:	2f                   	das    
 70c:	01 00                	add    %eax,(%eax)
 70e:	00 02                	add    %al,(%edx)
 710:	00 91 04 2f 01 00    	add    %dl,0x12f04(%ecx)
 716:	00 69 01             	add    %ch,0x1(%ecx)
 719:	00 00                	add    %al,(%eax)
 71b:	01 00                	add    %eax,(%eax)
 71d:	56                   	push   %esi
 71e:	69 01 00 00 6b 01    	imul   $0x16b0000,(%ecx),%eax
 724:	00 00                	add    %al,(%eax)
 726:	02 00                	add    (%eax),%al
 728:	75 0c                	jne    736 <_init-0x80484d2>
 72a:	6b 01 00             	imul   $0x0,(%ecx),%eax
 72d:	00 7c 01 00          	add    %bh,0x0(%ecx,%eax,1)
 731:	00 01                	add    %al,(%ecx)
 733:	00 56 7c             	add    %dl,0x7c(%esi)
 736:	01 00                	add    %eax,(%eax)
 738:	00 84 01 00 00 02 00 	add    %al,0x20000(%ecx,%eax,1)
 73f:	75 0c                	jne    74d <_init-0x80484bb>
	...
 749:	90                   	nop    
 74a:	01 00                	add    %eax,(%eax)
 74c:	00 91 01 00 00 02    	add    %dl,0x2000001(%ecx)
 752:	00 74 04 91          	add    %dh,-0x6f(%esp,%eax,1)
 756:	01 00                	add    %eax,(%eax)
 758:	00 93 01 00 00 02    	add    %dl,0x2000001(%ebx)
 75e:	00 74 08 93          	add    %dh,-0x6d(%eax,%ecx,1)
 762:	01 00                	add    %eax,(%eax)
 764:	00 d4                	add    %dl,%ah
 766:	01 00                	add    %eax,(%eax)
 768:	00 02                	add    %al,(%edx)
 76a:	00 75 08             	add    %dh,0x8(%ebp)
	...
 775:	90                   	nop    
 776:	01 00                	add    %eax,(%eax)
 778:	00 a5 01 00 00 02    	add    %ah,0x2000001(%ebp)
 77e:	00 91 00 a5 01 00    	add    %dl,0x1a500(%ecx)
 784:	00 d2                	add    %dl,%dl
 786:	01 00                	add    %eax,(%eax)
 788:	00 01                	add    %al,(%ecx)
 78a:	00 57 d2             	add    %dl,-0x2e(%edi)
 78d:	01 00                	add    %eax,(%eax)
 78f:	00 d4                	add    %dl,%ah
 791:	01 00                	add    %eax,(%eax)
 793:	00 02                	add    %al,(%edx)
 795:	00 75 08             	add    %dh,0x8(%ebp)
	...
 7a0:	e0 01                	loopne 7a3 <_init-0x8048465>
 7a2:	00 00                	add    %al,(%eax)
 7a4:	e1 01                	loope  7a7 <_init-0x8048461>
 7a6:	00 00                	add    %al,(%eax)
 7a8:	02 00                	add    (%eax),%al
 7aa:	74 04                	je     7b0 <_init-0x8048458>
 7ac:	e1 01                	loope  7af <_init-0x8048459>
 7ae:	00 00                	add    %al,(%eax)
 7b0:	e3 01                	jecxz  7b3 <_init-0x8048455>
 7b2:	00 00                	add    %al,(%eax)
 7b4:	02 00                	add    (%eax),%al
 7b6:	74 08                	je     7c0 <_init-0x8048448>
 7b8:	e3 01                	jecxz  7bb <_init-0x804844d>
 7ba:	00 00                	add    %al,(%eax)
 7bc:	1c 02                	sbb    $0x2,%al
 7be:	00 00                	add    %al,(%eax)
 7c0:	02 00                	add    (%eax),%al
 7c2:	75 08                	jne    7cc <_init-0x804843c>
	...
 7cc:	e0 01                	loopne 7cf <_init-0x8048439>
 7ce:	00 00                	add    %al,(%eax)
 7d0:	06                   	push   %es
 7d1:	02 00                	add    (%eax),%al
 7d3:	00 02                	add    %al,(%edx)
 7d5:	00 91 00 06 02 00    	add    %dl,0x20600(%ecx)
 7db:	00 1c 02             	add    %bl,(%edx,%eax,1)
 7de:	00 00                	add    %al,(%eax)
 7e0:	02 00                	add    (%eax),%al
 7e2:	75 08                	jne    7ec <_init-0x804841c>
	...
 7ec:	20 02                	and    %al,(%edx)
 7ee:	00 00                	add    %al,(%eax)
 7f0:	21 02                	and    %eax,(%edx)
 7f2:	00 00                	add    %al,(%eax)
 7f4:	02 00                	add    (%eax),%al
 7f6:	74 04                	je     7fc <_init-0x804840c>
 7f8:	21 02                	and    %eax,(%edx)
 7fa:	00 00                	add    %al,(%eax)
 7fc:	23 02                	and    (%edx),%eax
 7fe:	00 00                	add    %al,(%eax)
 800:	02 00                	add    (%eax),%al
 802:	74 08                	je     80c <_init-0x80483fc>
 804:	23 02                	and    (%edx),%eax
 806:	00 00                	add    %al,(%eax)
 808:	4a                   	dec    %edx
 809:	02 00                	add    (%eax),%al
 80b:	00 02                	add    %al,(%edx)
 80d:	00 75 08             	add    %dh,0x8(%ebp)
	...
 818:	50                   	push   %eax
 819:	02 00                	add    (%eax),%al
 81b:	00 51 02             	add    %dl,0x2(%ecx)
 81e:	00 00                	add    %al,(%eax)
 820:	02 00                	add    (%eax),%al
 822:	74 04                	je     828 <_init-0x80483e0>
 824:	51                   	push   %ecx
 825:	02 00                	add    (%eax),%al
 827:	00 53 02             	add    %dl,0x2(%ebx)
 82a:	00 00                	add    %al,(%eax)
 82c:	02 00                	add    (%eax),%al
 82e:	74 08                	je     838 <_init-0x80483d0>
 830:	53                   	push   %ebx
 831:	02 00                	add    (%eax),%al
 833:	00 aa 02 00 00 02    	add    %ch,0x2000002(%edx)
 839:	00 75 08             	add    %dh,0x8(%ebp)
	...
 844:	50                   	push   %eax
 845:	02 00                	add    (%eax),%al
 847:	00 78 02             	add    %bh,0x2(%eax)
 84a:	00 00                	add    %al,(%eax)
 84c:	02 00                	add    (%eax),%al
 84e:	91                   	xchg   %eax,%ecx
 84f:	00 78 02             	add    %bh,0x2(%eax)
 852:	00 00                	add    %al,(%eax)
 854:	a8 02                	test   $0x2,%al
 856:	00 00                	add    %al,(%eax)
 858:	01 00                	add    %eax,(%eax)
 85a:	53                   	push   %ebx
 85b:	a8 02                	test   $0x2,%al
 85d:	00 00                	add    %al,(%eax)
 85f:	aa                   	stos   %al,%es:(%edi)
 860:	02 00                	add    (%eax),%al
 862:	00 02                	add    %al,(%edx)
 864:	00 75 08             	add    %dh,0x8(%ebp)
	...
 86f:	50                   	push   %eax
 870:	02 00                	add    (%eax),%al
 872:	00 78 02             	add    %bh,0x2(%eax)
 875:	00 00                	add    %al,(%eax)
 877:	02 00                	add    (%eax),%al
 879:	91                   	xchg   %eax,%ecx
 87a:	04 78                	add    $0x78,%al
 87c:	02 00                	add    (%eax),%al
 87e:	00 aa 02 00 00 02    	add    %ch,0x2000002(%edx)
 884:	00 75 0c             	add    %dh,0xc(%ebp)
	...
 88f:	b0 02                	mov    $0x2,%al
 891:	00 00                	add    %al,(%eax)
 893:	b1 02                	mov    $0x2,%cl
 895:	00 00                	add    %al,(%eax)
 897:	02 00                	add    (%eax),%al
 899:	74 04                	je     89f <_init-0x8048369>
 89b:	b1 02                	mov    $0x2,%cl
 89d:	00 00                	add    %al,(%eax)
 89f:	b3 02                	mov    $0x2,%bl
 8a1:	00 00                	add    %al,(%eax)
 8a3:	02 00                	add    (%eax),%al
 8a5:	74 08                	je     8af <_init-0x8048359>
 8a7:	b3 02                	mov    $0x2,%bl
 8a9:	00 00                	add    %al,(%eax)
 8ab:	e0 04                	loopne 8b1 <_init-0x8048357>
 8ad:	00 00                	add    %al,(%eax)
 8af:	02 00                	add    (%eax),%al
 8b1:	75 08                	jne    8bb <_init-0x804834d>
	...
 8bb:	b0 02                	mov    $0x2,%al
 8bd:	00 00                	add    %al,(%eax)
 8bf:	61                   	popa   
 8c0:	03 00                	add    (%eax),%eax
 8c2:	00 02                	add    %al,(%edx)
 8c4:	00 91 00 61 03 00    	add    %dl,0x36100(%ecx)
 8ca:	00 2e                	add    %ch,(%esi)
 8cc:	04 00                	add    $0x0,%al
 8ce:	00 01                	add    %al,(%ecx)
 8d0:	00 57 2e             	add    %dl,0x2e(%edi)
 8d3:	04 00                	add    $0x0,%al
 8d5:	00 30                	add    %dh,(%eax)
 8d7:	04 00                	add    $0x0,%al
 8d9:	00 02                	add    %al,(%edx)
 8db:	00 75 08             	add    %dh,0x8(%ebp)
 8de:	30 04 00             	xor    %al,(%eax,%eax,1)
 8e1:	00 e0                	add    %ah,%al
 8e3:	04 00                	add    $0x0,%al
 8e5:	00 01                	add    %al,(%ecx)
 8e7:	00 57 00             	add    %dl,0x0(%edi)
 8ea:	00 00                	add    %al,(%eax)
 8ec:	00 00                	add    %al,(%eax)
 8ee:	00 00                	add    %al,(%eax)
 8f0:	00 61 03             	add    %ah,0x3(%ecx)
 8f3:	00 00                	add    %al,(%eax)
 8f5:	2c 04                	sub    $0x4,%al
 8f7:	00 00                	add    %al,(%eax)
 8f9:	01 00                	add    %eax,(%eax)
 8fb:	53                   	push   %ebx
 8fc:	30 04 00             	xor    %al,(%eax,%eax,1)
 8ff:	00 e0                	add    %ah,%al
 901:	04 00                	add    $0x0,%al
 903:	00 01                	add    %al,(%ecx)
 905:	00 53 00             	add    %dl,0x0(%ebx)
 908:	00 00                	add    %al,(%eax)
 90a:	00 00                	add    %al,(%eax)
 90c:	00 00                	add    %al,(%eax)
 90e:	00 61 03             	add    %ah,0x3(%ecx)
 911:	00 00                	add    %al,(%eax)
 913:	2d 04 00 00 01       	sub    $0x1000004,%eax
 918:	00 56 30             	add    %dl,0x30(%esi)
 91b:	04 00                	add    $0x0,%al
 91d:	00 e0                	add    %ah,%al
 91f:	04 00                	add    $0x0,%al
 921:	00 01                	add    %al,(%ecx)
 923:	00 56 00             	add    %dl,0x0(%esi)
 926:	00 00                	add    %al,(%eax)
 928:	00 00                	add    %al,(%eax)
 92a:	00 00                	add    %al,(%eax)
 92c:	00 e0                	add    %ah,%al
 92e:	04 00                	add    $0x0,%al
 930:	00 e1                	add    %ah,%cl
 932:	04 00                	add    $0x0,%al
 934:	00 02                	add    %al,(%edx)
 936:	00 74 04 e1          	add    %dh,-0x1f(%esp,%eax,1)
 93a:	04 00                	add    $0x0,%al
 93c:	00 e3                	add    %ah,%bl
 93e:	04 00                	add    $0x0,%al
 940:	00 02                	add    %al,(%edx)
 942:	00 74 08 e3          	add    %dh,-0x1d(%eax,%ecx,1)
 946:	04 00                	add    $0x0,%al
 948:	00 03                	add    %al,(%ebx)
 94a:	07                   	pop    %es
 94b:	00 00                	add    %al,(%eax)
 94d:	02 00                	add    (%eax),%al
 94f:	75 08                	jne    959 <_init-0x80482af>
	...
 959:	02 05 00 00 04 05    	add    0x5040000,%al
 95f:	00 00                	add    %al,(%eax)
 961:	01 00                	add    %eax,(%eax)
 963:	50                   	push   %eax
 964:	04 05                	add    $0x5,%al
 966:	00 00                	add    %al,(%eax)
 968:	c8 05 00 00          	enter  $0x5,$0x0
 96c:	01 00                	add    %eax,(%eax)
 96e:	57                   	push   %edi
 96f:	ca 05 00             	lret   $0x5
 972:	00 03                	add    %al,(%ebx)
 974:	07                   	pop    %es
 975:	00 00                	add    %al,(%eax)
 977:	01 00                	add    %eax,(%eax)
 979:	57                   	push   %edi
	...
 982:	14 05                	adc    $0x5,%al
 984:	00 00                	add    %al,(%eax)
 986:	c6 05 00 00 01 00 53 	movb   $0x53,0x10000
 98d:	ca 05 00             	lret   $0x5
 990:	00 03                	add    %al,(%ebx)
 992:	07                   	pop    %es
 993:	00 00                	add    %al,(%eax)
 995:	01 00                	add    %eax,(%eax)
 997:	53                   	push   %ebx
	...
 9a0:	14 05                	adc    $0x5,%al
 9a2:	00 00                	add    %al,(%eax)
 9a4:	c7 05 00 00 01 00 56 	movl   $0x5ca56,0x10000
 9ab:	ca 05 00 
 9ae:	00 03                	add    %al,(%ebx)
 9b0:	07                   	pop    %es
 9b1:	00 00                	add    %al,(%eax)
 9b3:	01 00                	add    %eax,(%eax)
 9b5:	56                   	push   %esi
	...
 9be:	10 07                	adc    %al,(%edi)
 9c0:	00 00                	add    %al,(%eax)
 9c2:	11 07                	adc    %eax,(%edi)
 9c4:	00 00                	add    %al,(%eax)
 9c6:	02 00                	add    (%eax),%al
 9c8:	74 04                	je     9ce <_init-0x804823a>
 9ca:	11 07                	adc    %eax,(%edi)
 9cc:	00 00                	add    %al,(%eax)
 9ce:	13 07                	adc    (%edi),%eax
 9d0:	00 00                	add    %al,(%eax)
 9d2:	02 00                	add    (%eax),%al
 9d4:	74 08                	je     9de <_init-0x804822a>
 9d6:	13 07                	adc    (%edi),%eax
 9d8:	00 00                	add    %al,(%eax)
 9da:	c7 07 00 00 02 00    	movl   $0x20000,(%edi)
 9e0:	75 08                	jne    9ea <_init-0x804821e>
	...
 9ea:	3a 07                	cmp    (%edi),%al
 9ec:	00 00                	add    %al,(%eax)
 9ee:	3c 07                	cmp    $0x7,%al
 9f0:	00 00                	add    %al,(%eax)
 9f2:	01 00                	add    %eax,(%eax)
 9f4:	50                   	push   %eax
 9f5:	3c 07                	cmp    $0x7,%al
 9f7:	00 00                	add    %al,(%eax)
 9f9:	c3                   	ret    
 9fa:	07                   	pop    %es
 9fb:	00 00                	add    %al,(%eax)
 9fd:	01 00                	add    %eax,(%eax)
 9ff:	53                   	push   %ebx
	...
 a08:	16                   	push   %ss
 a09:	07                   	pop    %es
 a0a:	00 00                	add    %al,(%eax)
 a0c:	c5 07                	lds    (%edi),%eax
 a0e:	00 00                	add    %al,(%eax)
 a10:	01 00                	add    %eax,(%eax)
 a12:	57                   	push   %edi
	...
 a1b:	3e                   	ds
 a1c:	07                   	pop    %es
 a1d:	00 00                	add    %al,(%eax)
 a1f:	48                   	dec    %eax
 a20:	07                   	pop    %es
 a21:	00 00                	add    %al,(%eax)
 a23:	01 00                	add    %eax,(%eax)
 a25:	50                   	push   %eax
 a26:	8e 07                	mov    (%edi),%es
 a28:	00 00                	add    %al,(%eax)
 a2a:	a0 07 00 00 01       	mov    0x1000007,%al
 a2f:	00 50 00             	add    %dl,0x0(%eax)
 a32:	00 00                	add    %al,(%eax)
 a34:	00 00                	add    %al,(%eax)
 a36:	00 00                	add    %al,(%eax)
 a38:	00 d0                	add    %dl,%al
 a3a:	07                   	pop    %es
 a3b:	00 00                	add    %al,(%eax)
 a3d:	d1 07                	roll   (%edi)
 a3f:	00 00                	add    %al,(%eax)
 a41:	02 00                	add    (%eax),%al
 a43:	74 04                	je     a49 <_init-0x80481bf>
 a45:	d1 07                	roll   (%edi)
 a47:	00 00                	add    %al,(%eax)
 a49:	d3 07                	roll   %cl,(%edi)
 a4b:	00 00                	add    %al,(%eax)
 a4d:	02 00                	add    (%eax),%al
 a4f:	74 08                	je     a59 <_init-0x80481af>
 a51:	d3 07                	roll   %cl,(%edi)
 a53:	00 00                	add    %al,(%eax)
 a55:	17                   	pop    %ss
 a56:	08 00                	or     %al,(%eax)
 a58:	00 02                	add    %al,(%edx)
 a5a:	00 75 08             	add    %dh,0x8(%ebp)
	...
 a65:	d0 07                	rolb   (%edi)
 a67:	00 00                	add    %al,(%eax)
 a69:	f7 07 00 00 02 00    	testl  $0x20000,(%edi)
 a6f:	91                   	xchg   %eax,%ecx
 a70:	00 f7                	add    %dh,%bh
 a72:	07                   	pop    %es
 a73:	00 00                	add    %al,(%eax)
 a75:	fd                   	std    
 a76:	07                   	pop    %es
 a77:	00 00                	add    %al,(%eax)
 a79:	01 00                	add    %eax,(%eax)
 a7b:	53                   	push   %ebx
 a7c:	fd                   	std    
 a7d:	07                   	pop    %es
 a7e:	00 00                	add    %al,(%eax)
 a80:	ff 07                	incl   (%edi)
 a82:	00 00                	add    %al,(%eax)
 a84:	02 00                	add    (%eax),%al
 a86:	75 08                	jne    a90 <_init-0x8048178>
 a88:	ff 07                	incl   (%edi)
 a8a:	00 00                	add    %al,(%eax)
 a8c:	13 08                	adc    (%eax),%ecx
 a8e:	00 00                	add    %al,(%eax)
 a90:	01 00                	add    %eax,(%eax)
 a92:	53                   	push   %ebx
 a93:	13 08                	adc    (%eax),%ecx
 a95:	00 00                	add    %al,(%eax)
 a97:	17                   	pop    %ss
 a98:	08 00                	or     %al,(%eax)
 a9a:	00 02                	add    %al,(%edx)
 a9c:	00 75 08             	add    %dh,0x8(%ebp)
	...
Disassembly of section .debug_ranges:

00000000 <.debug_ranges>:
   0:	ff                   	(bad)  
   1:	ff                   	(bad)  
   2:	ff                   	(bad)  
   3:	ff 00                	incl   (%eax)
   5:	00 00                	add    %al,(%eax)
   7:	00 08                	add    %cl,(%eax)
   9:	8c 04 08             	mov    %es,(%eax,%ecx,1)
   c:	2a 8c 04 08 bc ab 04 	sub    0x4abbc08(%esp,%eax,1),%cl
  13:	08 cf                	or     %cl,%bh
  15:	ab                   	stos   %eax,%es:(%edi)
  16:	04 08                	add    $0x8,%al
	...
  20:	0f 05                	syscall 
  22:	00 00                	add    %al,(%eax)
  24:	11 05 00 00 1b 05    	adc    %eax,0x51b0000
  2a:	00 00                	add    %al,(%eax)
  2c:	38 05 00 00 00 00    	cmp    %al,0x0
  32:	00 00                	add    %al,(%eax)
  34:	00 00                	add    %al,(%eax)
  36:	00 00                	add    %al,(%eax)
  38:	fa                   	cli    
  39:	03 00                	add    (%eax),%eax
  3b:	00 15 04 00 00 48    	add    %dl,0x48000004
  41:	06                   	push   %es
  42:	00 00                	add    %al,(%eax)
  44:	58                   	pop    %eax
  45:	06                   	push   %es
	...
  4e:	00 00                	add    %al,(%eax)
  50:	fa                   	cli    
  51:	03 00                	add    (%eax),%eax
  53:	00 15 04 00 00 48    	add    %dl,0x48000004
  59:	06                   	push   %es
  5a:	00 00                	add    %al,(%eax)
  5c:	58                   	pop    %eax
  5d:	06                   	push   %es
	...
  66:	00 00                	add    %al,(%eax)
  68:	ff                   	(bad)  
  69:	ff                   	(bad)  
  6a:	ff                   	(bad)  
  6b:	ff 00                	incl   (%eax)
  6d:	00 00                	add    %al,(%eax)
  6f:	00 34 8c             	add    %dh,(%esp,%ecx,4)
  72:	04 08                	add    $0x8,%al
  74:	38 8c 04 08 d4 ab 04 	cmp    %cl,0x4abd408(%esp,%eax,1)
  7b:	08 d8                	or     %bl,%al
  7d:	ab                   	stos   %eax,%es:(%edi)
  7e:	04 08                	add    $0x8,%al
	...
