
ghttpd:     file format elf32-i386

Disassembly of section .init:

08048c08 <_init>:
 8048c08:	55                   	push   %ebp
 8048c09:	89 e5                	mov    %esp,%ebp
 8048c0b:	53                   	push   %ebx
 8048c0c:	83 ec 04             	sub    $0x4,%esp
 8048c0f:	e8 00 00 00 00       	call   8048c14 <_init+0xc>
 8048c14:	5b                   	pop    %ebx
 8048c15:	81 c3 e0 36 00 00    	add    $0x36e0,%ebx
 8048c1b:	8b 93 fc ff ff ff    	mov    -0x4(%ebx),%edx
 8048c21:	85 d2                	test   %edx,%edx
 8048c23:	74 05                	je     8048c2a <_init+0x22>
 8048c25:	e8 9e 00 00 00       	call   8048cc8 <__gmon_start__@plt>
 8048c2a:	e8 61 04 00 00       	call   8049090 <frame_dummy>
 8048c2f:	e8 5c 1f 00 00       	call   804ab90 <__do_global_ctors_aux>
 8048c34:	58                   	pop    %eax
 8048c35:	5b                   	pop    %ebx
 8048c36:	c9                   	leave  
 8048c37:	c3                   	ret    
Disassembly of section .plt:

08048c38 <fputs@plt-0x10>:
 8048c38:	ff 35 f8 c2 04 08    	pushl  0x804c2f8
 8048c3e:	ff 25 fc c2 04 08    	jmp    *0x804c2fc
 8048c44:	00 00                	add    %al,(%eax)
	...

08048c48 <fputs@plt>:
 8048c48:	ff 25 00 c3 04 08    	jmp    *0x804c300
 8048c4e:	68 00 00 00 00       	push   $0x0
 8048c53:	e9 e0 ff ff ff       	jmp    8048c38 <_init+0x30>

08048c58 <sprintf@plt>:
 8048c58:	ff 25 04 c3 04 08    	jmp    *0x804c304
 8048c5e:	68 08 00 00 00       	push   $0x8
 8048c63:	e9 d0 ff ff ff       	jmp    8048c38 <_init+0x30>

08048c68 <getpid@plt>:
 8048c68:	ff 25 08 c3 04 08    	jmp    *0x804c308
 8048c6e:	68 10 00 00 00       	push   $0x10
 8048c73:	e9 c0 ff ff ff       	jmp    8048c38 <_init+0x30>

08048c78 <setbuf@plt>:
 8048c78:	ff 25 0c c3 04 08    	jmp    *0x804c30c
 8048c7e:	68 18 00 00 00       	push   $0x18
 8048c83:	e9 b0 ff ff ff       	jmp    8048c38 <_init+0x30>

08048c88 <inet_ntoa@plt>:
 8048c88:	ff 25 10 c3 04 08    	jmp    *0x804c310
 8048c8e:	68 20 00 00 00       	push   $0x20
 8048c93:	e9 a0 ff ff ff       	jmp    8048c38 <_init+0x30>

08048c98 <syslog@plt>:
 8048c98:	ff 25 14 c3 04 08    	jmp    *0x804c314
 8048c9e:	68 28 00 00 00       	push   $0x28
 8048ca3:	e9 90 ff ff ff       	jmp    8048c38 <_init+0x30>

08048ca8 <signal@plt>:
 8048ca8:	ff 25 18 c3 04 08    	jmp    *0x804c318
 8048cae:	68 30 00 00 00       	push   $0x30
 8048cb3:	e9 80 ff ff ff       	jmp    8048c38 <_init+0x30>

08048cb8 <__xstat@plt>:
 8048cb8:	ff 25 1c c3 04 08    	jmp    *0x804c31c
 8048cbe:	68 38 00 00 00       	push   $0x38
 8048cc3:	e9 70 ff ff ff       	jmp    8048c38 <_init+0x30>

08048cc8 <__gmon_start__@plt>:
 8048cc8:	ff 25 20 c3 04 08    	jmp    *0x804c320
 8048cce:	68 40 00 00 00       	push   $0x40
 8048cd3:	e9 60 ff ff ff       	jmp    8048c38 <_init+0x30>

08048cd8 <vsprintf@plt>:
 8048cd8:	ff 25 24 c3 04 08    	jmp    *0x804c324
 8048cde:	68 48 00 00 00       	push   $0x48
 8048ce3:	e9 50 ff ff ff       	jmp    8048c38 <_init+0x30>

08048ce8 <localtime@plt>:
 8048ce8:	ff 25 28 c3 04 08    	jmp    *0x804c328
 8048cee:	68 50 00 00 00       	push   $0x50
 8048cf3:	e9 40 ff ff ff       	jmp    8048c38 <_init+0x30>

08048cf8 <strchr@plt>:
 8048cf8:	ff 25 2c c3 04 08    	jmp    *0x804c32c
 8048cfe:	68 58 00 00 00       	push   $0x58
 8048d03:	e9 30 ff ff ff       	jmp    8048c38 <_init+0x30>

08048d08 <recv@plt>:
 8048d08:	ff 25 30 c3 04 08    	jmp    *0x804c330
 8048d0e:	68 60 00 00 00       	push   $0x60
 8048d13:	e9 20 ff ff ff       	jmp    8048c38 <_init+0x30>

08048d18 <listen@plt>:
 8048d18:	ff 25 34 c3 04 08    	jmp    *0x804c334
 8048d1e:	68 68 00 00 00       	push   $0x68
 8048d23:	e9 10 ff ff ff       	jmp    8048c38 <_init+0x30>

08048d28 <fgets@plt>:
 8048d28:	ff 25 38 c3 04 08    	jmp    *0x804c338
 8048d2e:	68 70 00 00 00       	push   $0x70
 8048d33:	e9 00 ff ff ff       	jmp    8048c38 <_init+0x30>

08048d38 <memset@plt>:
 8048d38:	ff 25 3c c3 04 08    	jmp    *0x804c33c
 8048d3e:	68 78 00 00 00       	push   $0x78
 8048d43:	e9 f0 fe ff ff       	jmp    8048c38 <_init+0x30>

08048d48 <scandir@plt>:
 8048d48:	ff 25 40 c3 04 08    	jmp    *0x804c340
 8048d4e:	68 80 00 00 00       	push   $0x80
 8048d53:	e9 e0 fe ff ff       	jmp    8048c38 <_init+0x30>

08048d58 <__libc_start_main@plt>:
 8048d58:	ff 25 44 c3 04 08    	jmp    *0x804c344
 8048d5e:	68 88 00 00 00       	push   $0x88
 8048d63:	e9 d0 fe ff ff       	jmp    8048c38 <_init+0x30>

08048d68 <perror@plt>:
 8048d68:	ff 25 48 c3 04 08    	jmp    *0x804c348
 8048d6e:	68 90 00 00 00       	push   $0x90
 8048d73:	e9 c0 fe ff ff       	jmp    8048c38 <_init+0x30>

08048d78 <strtol@plt>:
 8048d78:	ff 25 4c c3 04 08    	jmp    *0x804c34c
 8048d7e:	68 98 00 00 00       	push   $0x98
 8048d83:	e9 b0 fe ff ff       	jmp    8048c38 <_init+0x30>

08048d88 <openlog@plt>:
 8048d88:	ff 25 50 c3 04 08    	jmp    *0x804c350
 8048d8e:	68 a0 00 00 00       	push   $0xa0
 8048d93:	e9 a0 fe ff ff       	jmp    8048c38 <_init+0x30>

08048d98 <accept@plt>:
 8048d98:	ff 25 54 c3 04 08    	jmp    *0x804c354
 8048d9e:	68 a8 00 00 00       	push   $0xa8
 8048da3:	e9 90 fe ff ff       	jmp    8048c38 <_init+0x30>

08048da8 <socket@plt>:
 8048da8:	ff 25 58 c3 04 08    	jmp    *0x804c358
 8048dae:	68 b0 00 00 00       	push   $0xb0
 8048db3:	e9 80 fe ff ff       	jmp    8048c38 <_init+0x30>

08048db8 <dup2@plt>:
 8048db8:	ff 25 5c c3 04 08    	jmp    *0x804c35c
 8048dbe:	68 b8 00 00 00       	push   $0xb8
 8048dc3:	e9 70 fe ff ff       	jmp    8048c38 <_init+0x30>

08048dc8 <fseek@plt>:
 8048dc8:	ff 25 60 c3 04 08    	jmp    *0x804c360
 8048dce:	68 c0 00 00 00       	push   $0xc0
 8048dd3:	e9 60 fe ff ff       	jmp    8048c38 <_init+0x30>

08048dd8 <execlp@plt>:
 8048dd8:	ff 25 64 c3 04 08    	jmp    *0x804c364
 8048dde:	68 c8 00 00 00       	push   $0xc8
 8048de3:	e9 50 fe ff ff       	jmp    8048c38 <_init+0x30>

08048de8 <fclose@plt>:
 8048de8:	ff 25 68 c3 04 08    	jmp    *0x804c368
 8048dee:	68 d0 00 00 00       	push   $0xd0
 8048df3:	e9 40 fe ff ff       	jmp    8048c38 <_init+0x30>

08048df8 <setuid@plt>:
 8048df8:	ff 25 6c c3 04 08    	jmp    *0x804c36c
 8048dfe:	68 d8 00 00 00       	push   $0xd8
 8048e03:	e9 30 fe ff ff       	jmp    8048c38 <_init+0x30>

08048e08 <memcpy@plt>:
 8048e08:	ff 25 70 c3 04 08    	jmp    *0x804c370
 8048e0e:	68 e0 00 00 00       	push   $0xe0
 8048e13:	e9 20 fe ff ff       	jmp    8048c38 <_init+0x30>

08048e18 <strlen@plt>:
 8048e18:	ff 25 74 c3 04 08    	jmp    *0x804c374
 8048e1e:	68 e8 00 00 00       	push   $0xe8
 8048e23:	e9 10 fe ff ff       	jmp    8048c38 <_init+0x30>

08048e28 <fopen@plt>:
 8048e28:	ff 25 78 c3 04 08    	jmp    *0x804c378
 8048e2e:	68 f0 00 00 00       	push   $0xf0
 8048e33:	e9 00 fe ff ff       	jmp    8048c38 <_init+0x30>

08048e38 <waitpid@plt>:
 8048e38:	ff 25 7c c3 04 08    	jmp    *0x804c37c
 8048e3e:	68 f8 00 00 00       	push   $0xf8
 8048e43:	e9 f0 fd ff ff       	jmp    8048c38 <_init+0x30>

08048e48 <feof@plt>:
 8048e48:	ff 25 80 c3 04 08    	jmp    *0x804c380
 8048e4e:	68 00 01 00 00       	push   $0x100
 8048e53:	e9 e0 fd ff ff       	jmp    8048c38 <_init+0x30>

08048e58 <strcpy@plt>:
 8048e58:	ff 25 84 c3 04 08    	jmp    *0x804c384
 8048e5e:	68 08 01 00 00       	push   $0x108
 8048e63:	e9 d0 fd ff ff       	jmp    8048c38 <_init+0x30>

08048e68 <ftell@plt>:
 8048e68:	ff 25 88 c3 04 08    	jmp    *0x804c388
 8048e6e:	68 10 01 00 00       	push   $0x110
 8048e73:	e9 c0 fd ff ff       	jmp    8048c38 <_init+0x30>

08048e78 <printf@plt>:
 8048e78:	ff 25 8c c3 04 08    	jmp    *0x804c38c
 8048e7e:	68 18 01 00 00       	push   $0x118
 8048e83:	e9 b0 fd ff ff       	jmp    8048c38 <_init+0x30>

08048e88 <chdir@plt>:
 8048e88:	ff 25 90 c3 04 08    	jmp    *0x804c390
 8048e8e:	68 20 01 00 00       	push   $0x120
 8048e93:	e9 a0 fd ff ff       	jmp    8048c38 <_init+0x30>

08048e98 <bind@plt>:
 8048e98:	ff 25 94 c3 04 08    	jmp    *0x804c394
 8048e9e:	68 28 01 00 00       	push   $0x128
 8048ea3:	e9 90 fd ff ff       	jmp    8048c38 <_init+0x30>

08048ea8 <alphasort@plt>:
 8048ea8:	ff 25 98 c3 04 08    	jmp    *0x804c398
 8048eae:	68 30 01 00 00       	push   $0x130
 8048eb3:	e9 80 fd ff ff       	jmp    8048c38 <_init+0x30>

08048eb8 <select@plt>:
 8048eb8:	ff 25 9c c3 04 08    	jmp    *0x804c39c
 8048ebe:	68 38 01 00 00       	push   $0x138
 8048ec3:	e9 70 fd ff ff       	jmp    8048c38 <_init+0x30>

08048ec8 <close@plt>:
 8048ec8:	ff 25 a0 c3 04 08    	jmp    *0x804c3a0
 8048ece:	68 40 01 00 00       	push   $0x140
 8048ed3:	e9 60 fd ff ff       	jmp    8048c38 <_init+0x30>

08048ed8 <strstr@plt>:
 8048ed8:	ff 25 a4 c3 04 08    	jmp    *0x804c3a4
 8048ede:	68 48 01 00 00       	push   $0x148
 8048ee3:	e9 50 fd ff ff       	jmp    8048c38 <_init+0x30>

08048ee8 <time@plt>:
 8048ee8:	ff 25 a8 c3 04 08    	jmp    *0x804c3a8
 8048eee:	68 50 01 00 00       	push   $0x150
 8048ef3:	e9 40 fd ff ff       	jmp    8048c38 <_init+0x30>

08048ef8 <strncat@plt>:
 8048ef8:	ff 25 ac c3 04 08    	jmp    *0x804c3ac
 8048efe:	68 58 01 00 00       	push   $0x158
 8048f03:	e9 30 fd ff ff       	jmp    8048c38 <_init+0x30>

08048f08 <malloc@plt>:
 8048f08:	ff 25 b0 c3 04 08    	jmp    *0x804c3b0
 8048f0e:	68 60 01 00 00       	push   $0x160
 8048f13:	e9 20 fd ff ff       	jmp    8048c38 <_init+0x30>

08048f18 <strtok@plt>:
 8048f18:	ff 25 b4 c3 04 08    	jmp    *0x804c3b4
 8048f1e:	68 68 01 00 00       	push   $0x168
 8048f23:	e9 10 fd ff ff       	jmp    8048c38 <_init+0x30>

08048f28 <__ctype_tolower_loc@plt>:
 8048f28:	ff 25 b8 c3 04 08    	jmp    *0x804c3b8
 8048f2e:	68 70 01 00 00       	push   $0x170
 8048f33:	e9 00 fd ff ff       	jmp    8048c38 <_init+0x30>

08048f38 <strcat@plt>:
 8048f38:	ff 25 bc c3 04 08    	jmp    *0x804c3bc
 8048f3e:	68 78 01 00 00       	push   $0x178
 8048f43:	e9 f0 fc ff ff       	jmp    8048c38 <_init+0x30>

08048f48 <send@plt>:
 8048f48:	ff 25 c0 c3 04 08    	jmp    *0x804c3c0
 8048f4e:	68 80 01 00 00       	push   $0x180
 8048f53:	e9 e0 fc ff ff       	jmp    8048c38 <_init+0x30>

08048f58 <puts@plt>:
 8048f58:	ff 25 c4 c3 04 08    	jmp    *0x804c3c4
 8048f5e:	68 88 01 00 00       	push   $0x188
 8048f63:	e9 d0 fc ff ff       	jmp    8048c38 <_init+0x30>

08048f68 <fork@plt>:
 8048f68:	ff 25 c8 c3 04 08    	jmp    *0x804c3c8
 8048f6e:	68 90 01 00 00       	push   $0x190
 8048f73:	e9 c0 fc ff ff       	jmp    8048c38 <_init+0x30>

08048f78 <setsockopt@plt>:
 8048f78:	ff 25 cc c3 04 08    	jmp    *0x804c3cc
 8048f7e:	68 98 01 00 00       	push   $0x198
 8048f83:	e9 b0 fc ff ff       	jmp    8048c38 <_init+0x30>

08048f88 <strncmp@plt>:
 8048f88:	ff 25 d0 c3 04 08    	jmp    *0x804c3d0
 8048f8e:	68 a0 01 00 00       	push   $0x1a0
 8048f93:	e9 a0 fc ff ff       	jmp    8048c38 <_init+0x30>

08048f98 <fread@plt>:
 8048f98:	ff 25 d4 c3 04 08    	jmp    *0x804c3d4
 8048f9e:	68 a8 01 00 00       	push   $0x1a8
 8048fa3:	e9 90 fc ff ff       	jmp    8048c38 <_init+0x30>

08048fa8 <closelog@plt>:
 8048fa8:	ff 25 d8 c3 04 08    	jmp    *0x804c3d8
 8048fae:	68 b0 01 00 00       	push   $0x1b0
 8048fb3:	e9 80 fc ff ff       	jmp    8048c38 <_init+0x30>

08048fb8 <strftime@plt>:
 8048fb8:	ff 25 dc c3 04 08    	jmp    *0x804c3dc
 8048fbe:	68 b8 01 00 00       	push   $0x1b8
 8048fc3:	e9 70 fc ff ff       	jmp    8048c38 <_init+0x30>

08048fc8 <setgid@plt>:
 8048fc8:	ff 25 e0 c3 04 08    	jmp    *0x804c3e0
 8048fce:	68 c0 01 00 00       	push   $0x1c0
 8048fd3:	e9 60 fc ff ff       	jmp    8048c38 <_init+0x30>

08048fd8 <getpeername@plt>:
 8048fd8:	ff 25 e4 c3 04 08    	jmp    *0x804c3e4
 8048fde:	68 c8 01 00 00       	push   $0x1c8
 8048fe3:	e9 50 fc ff ff       	jmp    8048c38 <_init+0x30>

08048fe8 <getpwnam@plt>:
 8048fe8:	ff 25 e8 c3 04 08    	jmp    *0x804c3e8
 8048fee:	68 d0 01 00 00       	push   $0x1d0
 8048ff3:	e9 40 fc ff ff       	jmp    8048c38 <_init+0x30>

08048ff8 <strcmp@plt>:
 8048ff8:	ff 25 ec c3 04 08    	jmp    *0x804c3ec
 8048ffe:	68 d8 01 00 00       	push   $0x1d8
 8049003:	e9 30 fc ff ff       	jmp    8048c38 <_init+0x30>

08049008 <setenv@plt>:
 8049008:	ff 25 f0 c3 04 08    	jmp    *0x804c3f0
 804900e:	68 e0 01 00 00       	push   $0x1e0
 8049013:	e9 20 fc ff ff       	jmp    8048c38 <_init+0x30>

08049018 <exit@plt>:
 8049018:	ff 25 f4 c3 04 08    	jmp    *0x804c3f4
 804901e:	68 e8 01 00 00       	push   $0x1e8
 8049023:	e9 10 fc ff ff       	jmp    8048c38 <_init+0x30>
Disassembly of section .text:

08049030 <_start>:
 8049030:	31 ed                	xor    %ebp,%ebp
 8049032:	5e                   	pop    %esi
 8049033:	89 e1                	mov    %esp,%ecx
 8049035:	83 e4 f0             	and    $0xfffffff0,%esp
 8049038:	50                   	push   %eax
 8049039:	54                   	push   %esp
 804903a:	52                   	push   %edx
 804903b:	68 20 ab 04 08       	push   $0x804ab20
 8049040:	68 30 ab 04 08       	push   $0x804ab30
 8049045:	51                   	push   %ecx
 8049046:	56                   	push   %esi
 8049047:	68 f0 91 04 08       	push   $0x80491f0
 804904c:	e8 07 fd ff ff       	call   8048d58 <__libc_start_main@plt>
 8049051:	f4                   	hlt    
 8049052:	90                   	nop    
 8049053:	90                   	nop    
 8049054:	90                   	nop    
 8049055:	90                   	nop    
 8049056:	90                   	nop    
 8049057:	90                   	nop    
 8049058:	90                   	nop    
 8049059:	90                   	nop    
 804905a:	90                   	nop    
 804905b:	90                   	nop    
 804905c:	90                   	nop    
 804905d:	90                   	nop    
 804905e:	90                   	nop    
 804905f:	90                   	nop    

08049060 <__do_global_dtors_aux>:
 8049060:	55                   	push   %ebp
 8049061:	89 e5                	mov    %esp,%ebp
 8049063:	83 ec 08             	sub    $0x8,%esp
 8049066:	80 3d 64 df 04 08 00 	cmpb   $0x0,0x804df64
 804906d:	74 0c                	je     804907b <__do_global_dtors_aux+0x1b>
 804906f:	eb 1c                	jmp    804908d <__do_global_dtors_aux+0x2d>
 8049071:	83 c0 04             	add    $0x4,%eax
 8049074:	a3 08 c4 04 08       	mov    %eax,0x804c408
 8049079:	ff d2                	call   *%edx
 804907b:	a1 08 c4 04 08       	mov    0x804c408,%eax
 8049080:	8b 10                	mov    (%eax),%edx
 8049082:	85 d2                	test   %edx,%edx
 8049084:	75 eb                	jne    8049071 <__do_global_dtors_aux+0x11>
 8049086:	c6 05 64 df 04 08 01 	movb   $0x1,0x804df64
 804908d:	c9                   	leave  
 804908e:	c3                   	ret    
 804908f:	90                   	nop    

08049090 <frame_dummy>:
 8049090:	55                   	push   %ebp
 8049091:	89 e5                	mov    %esp,%ebp
 8049093:	83 ec 08             	sub    $0x8,%esp
 8049096:	a1 1c c2 04 08       	mov    0x804c21c,%eax
 804909b:	85 c0                	test   %eax,%eax
 804909d:	74 12                	je     80490b1 <frame_dummy+0x21>
 804909f:	b8 00 00 00 00       	mov    $0x0,%eax
 80490a4:	85 c0                	test   %eax,%eax
 80490a6:	74 09                	je     80490b1 <frame_dummy+0x21>
 80490a8:	c7 04 24 1c c2 04 08 	movl   $0x804c21c,(%esp)
 80490af:	ff d0                	call   *%eax
 80490b1:	c9                   	leave  
 80490b2:	c3                   	ret    
 80490b3:	90                   	nop    
 80490b4:	90                   	nop    
 80490b5:	90                   	nop    
 80490b6:	90                   	nop    
 80490b7:	90                   	nop    
 80490b8:	90                   	nop    
 80490b9:	90                   	nop    
 80490ba:	90                   	nop    
 80490bb:	90                   	nop    
 80490bc:	90                   	nop    
 80490bd:	90                   	nop    
 80490be:	90                   	nop    
 80490bf:	90                   	nop    

080490c0 <signal_handler>:
 80490c0:	55                   	push   %ebp
 80490c1:	89 e5                	mov    %esp,%ebp
 80490c3:	83 ec 18             	sub    $0x18,%esp
 80490c6:	8b 45 08             	mov    0x8(%ebp),%eax
 80490c9:	83 f8 11             	cmp    $0x11,%eax
 80490cc:	74 12                	je     80490e0 <signal_handler+0x20>
 80490ce:	83 e8 01             	sub    $0x1,%eax
 80490d1:	75 2f                	jne    8049102 <signal_handler+0x42>
 80490d3:	c9                   	leave  
 80490d4:	e9 07 17 00 00       	jmp    804a7e0 <readinconfig>
 80490d9:	8d b4 26 00 00 00 00 	lea    0x0(%esi),%esi
 80490e0:	c7 44 24 08 01 00 00 	movl   $0x1,0x8(%esp)
 80490e7:	00 
 80490e8:	c7 44 24 04 00 00 00 	movl   $0x0,0x4(%esp)
 80490ef:	00 
 80490f0:	c7 04 24 ff ff ff ff 	movl   $0xffffffff,(%esp)
 80490f7:	e8 3c fd ff ff       	call   8048e38 <waitpid@plt>
 80490fc:	85 c0                	test   %eax,%eax
 80490fe:	7f e0                	jg     80490e0 <signal_handler+0x20>
 8049100:	c9                   	leave  
 8049101:	c3                   	ret    
 8049102:	c7 44 24 08 01 00 00 	movl   $0x1,0x8(%esp)
 8049109:	00 
 804910a:	c7 44 24 04 00 00 00 	movl   $0x0,0x4(%esp)
 8049111:	00 
 8049112:	c7 04 24 ff ff ff ff 	movl   $0xffffffff,(%esp)
 8049119:	e8 1a fd ff ff       	call   8048e38 <waitpid@plt>
 804911e:	85 c0                	test   %eax,%eax
 8049120:	7f e0                	jg     8049102 <signal_handler+0x42>
 8049122:	c7 04 24 00 00 00 00 	movl   $0x0,(%esp)
 8049129:	e8 ea fe ff ff       	call   8049018 <exit@plt>
 804912e:	66 90                	xchg   %ax,%ax

08049130 <inetd_server>:
 8049130:	55                   	push   %ebp
 8049131:	89 e5                	mov    %esp,%ebp
 8049133:	53                   	push   %ebx
 8049134:	83 ec 34             	sub    $0x34,%esp
 8049137:	8d 45 e8             	lea    -0x18(%ebp),%eax
 804913a:	8d 55 f8             	lea    -0x8(%ebp),%edx
 804913d:	c7 45 f8 10 00 00 00 	movl   $0x10,-0x8(%ebp)
 8049144:	89 54 24 08          	mov    %edx,0x8(%esp)
 8049148:	89 44 24 04          	mov    %eax,0x4(%esp)
 804914c:	c7 04 24 00 00 00 00 	movl   $0x0,(%esp)
 8049153:	e8 80 fe ff ff       	call   8048fd8 <getpeername@plt>
 8049158:	85 c0                	test   %eax,%eax
 804915a:	78 7a                	js     80491d6 <inetd_server+0xa6>
 804915c:	c7 04 24 e0 ab 04 08 	movl   $0x804abe0,(%esp)
 8049163:	e8 80 fe ff ff       	call   8048fe8 <getpwnam@plt>
 8049168:	85 c0                	test   %eax,%eax
 804916a:	89 c3                	mov    %eax,%ebx
 804916c:	74 16                	je     8049184 <inetd_server+0x54>
 804916e:	8b 40 0c             	mov    0xc(%eax),%eax
 8049171:	89 04 24             	mov    %eax,(%esp)
 8049174:	e8 4f fe ff ff       	call   8048fc8 <setgid@plt>
 8049179:	8b 43 08             	mov    0x8(%ebx),%eax
 804917c:	89 04 24             	mov    %eax,(%esp)
 804917f:	e8 74 fc ff ff       	call   8048df8 <setuid@plt>
 8049184:	8b 45 ec             	mov    -0x14(%ebp),%eax
 8049187:	89 04 24             	mov    %eax,(%esp)
 804918a:	e8 f9 fa ff ff       	call   8048c88 <inet_ntoa@plt>
 804918f:	c7 04 24 e7 ab 04 08 	movl   $0x804abe7,(%esp)
 8049196:	89 44 24 04          	mov    %eax,0x4(%esp)
 804919a:	e8 61 11 00 00       	call   804a300 <Log>
 804919f:	8b 45 ec             	mov    -0x14(%ebp),%eax
 80491a2:	89 04 24             	mov    %eax,(%esp)
 80491a5:	e8 de fa ff ff       	call   8048c88 <inet_ntoa@plt>
 80491aa:	c7 44 24 08 01 00 00 	movl   $0x1,0x8(%esp)
 80491b1:	00 
 80491b2:	c7 04 24 fa ab 04 08 	movl   $0x804abfa,(%esp)
 80491b9:	89 44 24 04          	mov    %eax,0x4(%esp)
 80491bd:	e8 46 fe ff ff       	call   8049008 <setenv@plt>
 80491c2:	c7 04 24 00 00 00 00 	movl   $0x0,(%esp)
 80491c9:	e8 12 08 00 00       	call   80499e0 <serveconnection>
 80491ce:	83 c4 34             	add    $0x34,%esp
 80491d1:	31 c0                	xor    %eax,%eax
 80491d3:	5b                   	pop    %ebx
 80491d4:	5d                   	pop    %ebp
 80491d5:	c3                   	ret    
 80491d6:	c7 04 24 01 00 00 00 	movl   $0x1,(%esp)
 80491dd:	e8 36 fe ff ff       	call   8049018 <exit@plt>
 80491e2:	8d b4 26 00 00 00 00 	lea    0x0(%esi),%esi
 80491e9:	8d bc 27 00 00 00 00 	lea    0x0(%edi),%edi

080491f0 <main>:
 80491f0:	8d 4c 24 04          	lea    0x4(%esp),%ecx
 80491f4:	83 e4 f0             	and    $0xfffffff0,%esp
 80491f7:	ff 71 fc             	pushl  -0x4(%ecx)
 80491fa:	55                   	push   %ebp
 80491fb:	89 e5                	mov    %esp,%ebp
 80491fd:	57                   	push   %edi
 80491fe:	bf 06 ac 04 08       	mov    $0x804ac06,%edi
 8049203:	56                   	push   %esi
 8049204:	be 40 c4 04 08       	mov    $0x804c440,%esi
 8049209:	53                   	push   %ebx
 804920a:	51                   	push   %ecx
 804920b:	81 ec 58 01 00 00    	sub    $0x158,%esp
 8049211:	c7 05 7f e0 04 08 2f 	movl   $0x7273752f,0x804e07f
 8049218:	75 73 72 
 804921b:	c7 05 83 e0 04 08 2f 	movl   $0x636f6c2f,0x804e083
 8049222:	6c 6f 63 
 8049225:	c7 05 87 e0 04 08 61 	movl   $0x672f6c61,0x804e087
 804922c:	6c 2f 67 
 804922f:	c7 05 8b e0 04 08 68 	movl   $0x70747468,0x804e08b
 8049236:	74 74 70 
 8049239:	c7 05 8f e0 04 08 64 	movl   $0x74682f64,0x804e08f
 8049240:	2f 68 74 
 8049243:	c7 05 93 e0 04 08 64 	movl   $0x73636f64,0x804e093
 804924a:	6f 63 73 
 804924d:	c6 05 97 e0 04 08 00 	movb   $0x0,0x804e097
 8049254:	c7 05 7e e1 04 08 69 	movl   $0x65646e69,0x804e17e
 804925b:	6e 64 65 
 804925e:	c7 05 82 e1 04 08 78 	movl   $0x74682e78,0x804e182
 8049265:	2e 68 74 
 8049268:	66 c7 05 86 e1 04 08 	movw   $0x6c6d,0x804e186
 804926f:	6d 6c 
 8049271:	c6 05 88 e1 04 08 00 	movb   $0x0,0x804e188
 8049278:	c7 05 7d e2 04 08 2f 	movl   $0x6967632f,0x804e27d
 804927f:	63 67 69 
 8049282:	c7 05 81 e2 04 08 2d 	movl   $0x6e69622d,0x804e281
 8049289:	62 69 6e 
 804928c:	c6 05 85 e2 04 08 00 	movb   $0x0,0x804e285
 8049293:	c7 05 7c e3 04 08 2f 	movl   $0x7273752f,0x804e37c
 804929a:	75 73 72 
 804929d:	c7 05 80 e3 04 08 2f 	movl   $0x636f6c2f,0x804e380
 80492a4:	6c 6f 63 
 80492a7:	c7 05 84 e3 04 08 61 	movl   $0x672f6c61,0x804e384
 80492ae:	6c 2f 67 
 80492b1:	c7 05 88 e3 04 08 68 	movl   $0x70747468,0x804e388
 80492b8:	74 74 70 
 80492bb:	c7 05 8c e3 04 08 64 	movl   $0x67632f64,0x804e38c
 80492c2:	2f 63 67 
 80492c5:	c7 05 90 e3 04 08 69 	movl   $0x69622d69,0x804e390
 80492cc:	2d 62 69 
 80492cf:	66 c7 05 94 e3 04 08 	movw   $0x6e,0x804e394
 80492d6:	6e 00 
 80492d8:	e8 33 17 00 00       	call   804aa10 <count_vhosts>
 80492dd:	a3 68 df 04 08       	mov    %eax,0x804df68
 80492e2:	83 c0 01             	add    $0x1,%eax
 80492e5:	69 c0 fb 04 00 00    	imul   $0x4fb,%eax,%eax
 80492eb:	89 04 24             	mov    %eax,(%esp)
 80492ee:	e8 15 fc ff ff       	call   8048f08 <malloc@plt>
 80492f3:	a3 6c df 04 08       	mov    %eax,0x804df6c
 80492f8:	e8 e3 14 00 00       	call   804a7e0 <readinconfig>
 80492fd:	b9 06 00 00 00       	mov    $0x6,%ecx
 8049302:	fc                   	cld    
 8049303:	f3 a6                	repz cmpsb %es:(%edi),%ds:(%esi)
 8049305:	0f 84 4a 01 00 00    	je     8049455 <main+0x265>
 804930b:	c7 44 24 08 18 00 00 	movl   $0x18,0x8(%esp)
 8049312:	00 
 8049313:	c7 44 24 04 00 00 00 	movl   $0x0,0x4(%esp)
 804931a:	00 
 804931b:	c7 04 24 0c ac 04 08 	movl   $0x804ac0c,(%esp)
 8049322:	e8 61 fa ff ff       	call   8048d88 <openlog@plt>
 8049327:	c7 44 24 08 00 00 00 	movl   $0x0,0x8(%esp)
 804932e:	00 
 804932f:	c7 44 24 04 01 00 00 	movl   $0x1,0x4(%esp)
 8049336:	00 
 8049337:	c7 04 24 02 00 00 00 	movl   $0x2,(%esp)
 804933e:	e8 65 fa ff ff       	call   8048da8 <socket@plt>
 8049343:	83 f8 ff             	cmp    $0xffffffff,%eax
 8049346:	89 c6                	mov    %eax,%esi
 8049348:	0f 84 1b 01 00 00    	je     8049469 <main+0x279>
 804934e:	8d 45 e8             	lea    -0x18(%ebp),%eax
 8049351:	c7 45 e8 01 00 00 00 	movl   $0x1,-0x18(%ebp)
 8049358:	c7 44 24 10 01 00 00 	movl   $0x1,0x10(%esp)
 804935f:	00 
 8049360:	89 44 24 0c          	mov    %eax,0xc(%esp)
 8049364:	c7 44 24 08 02 00 00 	movl   $0x2,0x8(%esp)
 804936b:	00 
 804936c:	c7 44 24 04 01 00 00 	movl   $0x1,0x4(%esp)
 8049373:	00 
 8049374:	89 34 24             	mov    %esi,(%esp)
 8049377:	e8 fc fb ff ff       	call   8048f78 <setsockopt@plt>
 804937c:	a1 20 c4 04 08       	mov    0x804c420,%eax
 8049381:	66 c1 c8 08          	ror    $0x8,%ax
 8049385:	66 89 45 d2          	mov    %ax,-0x2e(%ebp)
 8049389:	8d 45 d0             	lea    -0x30(%ebp),%eax
 804938c:	c7 45 d4 00 00 00 00 	movl   $0x0,-0x2c(%ebp)
 8049393:	66 c7 45 d0 02 00    	movw   $0x2,-0x30(%ebp)
 8049399:	c7 45 d8 00 00 00 00 	movl   $0x0,-0x28(%ebp)
 80493a0:	c7 45 dc 00 00 00 00 	movl   $0x0,-0x24(%ebp)
 80493a7:	c7 44 24 08 10 00 00 	movl   $0x10,0x8(%esp)
 80493ae:	00 
 80493af:	89 44 24 04          	mov    %eax,0x4(%esp)
 80493b3:	89 34 24             	mov    %esi,(%esp)
 80493b6:	e8 dd fa ff ff       	call   8048e98 <bind@plt>
 80493bb:	83 c0 01             	add    $0x1,%eax
 80493be:	0f 84 d6 00 00 00    	je     804949a <main+0x2aa>
 80493c4:	c7 44 24 04 96 00 00 	movl   $0x96,0x4(%esp)
 80493cb:	00 
 80493cc:	89 34 24             	mov    %esi,(%esp)
 80493cf:	e8 44 f9 ff ff       	call   8048d18 <listen@plt>
 80493d4:	83 c0 01             	add    $0x1,%eax
 80493d7:	0f 84 d3 00 00 00    	je     80494b0 <main+0x2c0>
 80493dd:	c7 44 24 04 c0 90 04 	movl   $0x80490c0,0x4(%esp)
 80493e4:	08 
 80493e5:	c7 04 24 0f 00 00 00 	movl   $0xf,(%esp)
 80493ec:	e8 b7 f8 ff ff       	call   8048ca8 <signal@plt>
 80493f1:	c7 44 24 04 c0 90 04 	movl   $0x80490c0,0x4(%esp)
 80493f8:	08 
 80493f9:	c7 04 24 01 00 00 00 	movl   $0x1,(%esp)
 8049400:	e8 a3 f8 ff ff       	call   8048ca8 <signal@plt>
 8049405:	c7 44 24 04 c0 90 04 	movl   $0x80490c0,0x4(%esp)
 804940c:	08 
 804940d:	c7 04 24 02 00 00 00 	movl   $0x2,(%esp)
 8049414:	e8 8f f8 ff ff       	call   8048ca8 <signal@plt>
 8049419:	c7 44 24 04 c0 90 04 	movl   $0x80490c0,0x4(%esp)
 8049420:	08 
 8049421:	c7 04 24 11 00 00 00 	movl   $0x11,(%esp)
 8049428:	e8 7b f8 ff ff       	call   8048ca8 <signal@plt>
 804942d:	e8 36 fb ff ff       	call   8048f68 <fork@plt>
 8049432:	83 f8 ff             	cmp    $0xffffffff,%eax
 8049435:	0f 84 8b 00 00 00    	je     80494c6 <main+0x2d6>
 804943b:	85 c0                	test   %eax,%eax
 804943d:	8d 76 00             	lea    0x0(%esi),%esi
 8049440:	0f 84 96 00 00 00    	je     80494dc <main+0x2ec>
 8049446:	c7 04 24 00 00 00 00 	movl   $0x0,(%esp)
 804944d:	8d 76 00             	lea    0x0(%esi),%esi
 8049450:	e8 c3 fb ff ff       	call   8049018 <exit@plt>
 8049455:	e8 d6 fc ff ff       	call   8049130 <inetd_server>
 804945a:	81 c4 58 01 00 00    	add    $0x158,%esp
 8049460:	59                   	pop    %ecx
 8049461:	5b                   	pop    %ebx
 8049462:	5e                   	pop    %esi
 8049463:	5f                   	pop    %edi
 8049464:	5d                   	pop    %ebp
 8049465:	8d 61 fc             	lea    -0x4(%ecx),%esp
 8049468:	c3                   	ret    
 8049469:	c7 04 24 13 ac 04 08 	movl   $0x804ac13,(%esp)
 8049470:	e8 f3 f8 ff ff       	call   8048d68 <perror@plt>
 8049475:	c7 44 24 04 40 ac 04 	movl   $0x804ac40,0x4(%esp)
 804947c:	08 
 804947d:	c7 04 24 02 00 00 00 	movl   $0x2,(%esp)
 8049484:	e8 0f f8 ff ff       	call   8048c98 <syslog@plt>
 8049489:	e8 1a fb ff ff       	call   8048fa8 <closelog@plt>
 804948e:	c7 04 24 01 00 00 00 	movl   $0x1,(%esp)
 8049495:	e8 7e fb ff ff       	call   8049018 <exit@plt>
 804949a:	c7 04 24 1a ac 04 08 	movl   $0x804ac1a,(%esp)
 80494a1:	e8 c2 f8 ff ff       	call   8048d68 <perror@plt>
 80494a6:	c7 44 24 04 60 ac 04 	movl   $0x804ac60,0x4(%esp)
 80494ad:	08 
 80494ae:	eb cd                	jmp    804947d <main+0x28d>
 80494b0:	c7 04 24 1f ac 04 08 	movl   $0x804ac1f,(%esp)
 80494b7:	e8 ac f8 ff ff       	call   8048d68 <perror@plt>
 80494bc:	c7 44 24 04 26 ac 04 	movl   $0x804ac26,0x4(%esp)
 80494c3:	08 
 80494c4:	eb b7                	jmp    804947d <main+0x28d>
 80494c6:	c7 04 24 84 ac 04 08 	movl   $0x804ac84,(%esp)
 80494cd:	e8 86 fa ff ff       	call   8048f58 <puts@plt>
 80494d2:	c7 44 24 04 bc ac 04 	movl   $0x804acbc,0x4(%esp)
 80494d9:	08 
 80494da:	eb a1                	jmp    804947d <main+0x28d>
 80494dc:	e8 87 f7 ff ff       	call   8048c68 <getpid@plt>
 80494e1:	c7 04 24 e8 ac 04 08 	movl   $0x804ace8,(%esp)
 80494e8:	89 44 24 04          	mov    %eax,0x4(%esp)
 80494ec:	e8 87 f9 ff ff       	call   8048e78 <printf@plt>
 80494f1:	e8 b2 fa ff ff       	call   8048fa8 <closelog@plt>
 80494f6:	c7 04 24 e0 ab 04 08 	movl   $0x804abe0,(%esp)
 80494fd:	e8 e6 fa ff ff       	call   8048fe8 <getpwnam@plt>
 8049502:	85 c0                	test   %eax,%eax
 8049504:	89 c3                	mov    %eax,%ebx
 8049506:	74 16                	je     804951e <main+0x32e>
 8049508:	8b 40 0c             	mov    0xc(%eax),%eax
 804950b:	89 04 24             	mov    %eax,(%esp)
 804950e:	e8 b5 fa ff ff       	call   8048fc8 <setgid@plt>
 8049513:	8b 43 08             	mov    0x8(%ebx),%eax
 8049516:	89 04 24             	mov    %eax,(%esp)
 8049519:	e8 da f8 ff ff       	call   8048df8 <setuid@plt>
 804951e:	8d 7d c0             	lea    -0x40(%ebp),%edi
 8049521:	8d 45 ec             	lea    -0x14(%ebp),%eax
 8049524:	c7 45 ec 10 00 00 00 	movl   $0x10,-0x14(%ebp)
 804952b:	89 44 24 08          	mov    %eax,0x8(%esp)
 804952f:	89 7c 24 04          	mov    %edi,0x4(%esp)
 8049533:	89 34 24             	mov    %esi,(%esp)
 8049536:	e8 5d f8 ff ff       	call   8048d98 <accept@plt>
 804953b:	83 f8 ff             	cmp    $0xffffffff,%eax
 804953e:	89 c3                	mov    %eax,%ebx
 8049540:	74 df                	je     8049521 <main+0x331>
 8049542:	e8 21 fa ff ff       	call   8048f68 <fork@plt>
 8049547:	85 c0                	test   %eax,%eax
 8049549:	74 2a                	je     8049575 <main+0x385>
 804954b:	89 1c 24             	mov    %ebx,(%esp)
 804954e:	e8 75 f9 ff ff       	call   8048ec8 <close@plt>
 8049553:	c7 44 24 08 01 00 00 	movl   $0x1,0x8(%esp)
 804955a:	00 
 804955b:	c7 44 24 04 00 00 00 	movl   $0x0,0x4(%esp)
 8049562:	00 
 8049563:	c7 04 24 ff ff ff ff 	movl   $0xffffffff,(%esp)
 804956a:	e8 c9 f8 ff ff       	call   8048e38 <waitpid@plt>
 804956f:	85 c0                	test   %eax,%eax
 8049571:	7f e0                	jg     8049553 <main+0x363>
 8049573:	eb ac                	jmp    8049521 <main+0x331>
 8049575:	89 d8                	mov    %ebx,%eax
 8049577:	8d 4b 01             	lea    0x1(%ebx),%ecx
 804957a:	83 e0 1f             	and    $0x1f,%eax
 804957d:	89 85 b8 fe ff ff    	mov    %eax,-0x148(%ebp)
 8049583:	b8 01 00 00 00       	mov    $0x1,%eax
 8049588:	89 8d bc fe ff ff    	mov    %ecx,-0x144(%ebp)
 804958e:	0f b6 8d b8 fe ff ff 	movzbl -0x148(%ebp),%ecx
 8049595:	d3 e0                	shl    %cl,%eax
 8049597:	89 85 b4 fe ff ff    	mov    %eax,-0x14c(%ebp)
 804959d:	89 34 24             	mov    %esi,(%esp)
 80495a0:	e8 23 f9 ff ff       	call   8048ec8 <close@plt>
 80495a5:	b8 02 00 00 00       	mov    $0x2,%eax
 80495aa:	c7 85 40 ff ff ff 00 	movl   $0x0,-0xc0(%ebp)
 80495b1:	00 00 00 
 80495b4:	c7 84 85 3c ff ff ff 	movl   $0x0,-0xc4(%ebp,%eax,4)
 80495bb:	00 00 00 00 
 80495bf:	83 c0 01             	add    $0x1,%eax
 80495c2:	83 f8 21             	cmp    $0x21,%eax
 80495c5:	75 ed                	jne    80495b4 <main+0x3c4>
 80495c7:	89 df                	mov    %ebx,%edi
 80495c9:	8b 95 b4 fe ff ff    	mov    -0x14c(%ebp),%edx
 80495cf:	b0 02                	mov    $0x2,%al
 80495d1:	c1 ef 05             	shr    $0x5,%edi
 80495d4:	0b 94 bd 40 ff ff ff 	or     -0xc0(%ebp,%edi,4),%edx
 80495db:	c7 85 c0 fe ff ff 00 	movl   $0x0,-0x140(%ebp)
 80495e2:	00 00 00 
 80495e5:	c7 84 85 bc fe ff ff 	movl   $0x0,-0x144(%ebp,%eax,4)
 80495ec:	00 00 00 00 
 80495f0:	83 c0 01             	add    $0x1,%eax
 80495f3:	83 f8 21             	cmp    $0x21,%eax
 80495f6:	75 ed                	jne    80495e5 <main+0x3f5>
 80495f8:	8b 8d b4 fe ff ff    	mov    -0x14c(%ebp),%ecx
 80495fe:	8d 45 e0             	lea    -0x20(%ebp),%eax
 8049601:	09 8c bd c0 fe ff ff 	or     %ecx,-0x140(%ebp,%edi,4)
 8049608:	8d 8d c0 fe ff ff    	lea    -0x140(%ebp),%ecx
 804960e:	c7 45 e0 05 00 00 00 	movl   $0x5,-0x20(%ebp)
 8049615:	c7 45 e4 00 00 00 00 	movl   $0x0,-0x1c(%ebp)
 804961c:	89 94 bd 40 ff ff ff 	mov    %edx,-0xc0(%ebp,%edi,4)
 8049623:	89 44 24 10          	mov    %eax,0x10(%esp)
 8049627:	8d 85 40 ff ff ff    	lea    -0xc0(%ebp),%eax
 804962d:	89 4c 24 0c          	mov    %ecx,0xc(%esp)
 8049631:	c7 44 24 08 00 00 00 	movl   $0x0,0x8(%esp)
 8049638:	00 
 8049639:	89 44 24 04          	mov    %eax,0x4(%esp)
 804963d:	8b 8d bc fe ff ff    	mov    -0x144(%ebp),%ecx
 8049643:	89 0c 24             	mov    %ecx,(%esp)
 8049646:	e8 6d f8 ff ff       	call   8048eb8 <select@plt>
 804964b:	8b 84 bd c0 fe ff ff 	mov    -0x140(%ebp,%edi,4),%eax
 8049652:	0f b6 8d b8 fe ff ff 	movzbl -0x148(%ebp),%ecx
 8049659:	d3 f8                	sar    %cl,%eax
 804965b:	a8 01                	test   $0x1,%al
 804965d:	75 41                	jne    80496a0 <main+0x4b0>
 804965f:	8b 84 bd 40 ff ff ff 	mov    -0xc0(%ebp,%edi,4),%eax
 8049666:	d3 f8                	sar    %cl,%eax
 8049668:	a8 01                	test   $0x1,%al
 804966a:	74 34                	je     80496a0 <main+0x4b0>
 804966c:	8b 45 c4             	mov    -0x3c(%ebp),%eax
 804966f:	89 04 24             	mov    %eax,(%esp)
 8049672:	e8 11 f6 ff ff       	call   8048c88 <inet_ntoa@plt>
 8049677:	c7 44 24 08 01 00 00 	movl   $0x1,0x8(%esp)
 804967e:	00 
 804967f:	c7 04 24 fa ab 04 08 	movl   $0x804abfa,(%esp)
 8049686:	89 44 24 04          	mov    %eax,0x4(%esp)
 804968a:	e8 79 f9 ff ff       	call   8049008 <setenv@plt>
 804968f:	89 1c 24             	mov    %ebx,(%esp)
 8049692:	e8 49 03 00 00       	call   80499e0 <serveconnection>
 8049697:	83 c0 01             	add    $0x1,%eax
 804969a:	0f 85 fd fe ff ff    	jne    804959d <main+0x3ad>
 80496a0:	89 1c 24             	mov    %ebx,(%esp)
 80496a3:	e8 20 f8 ff ff       	call   8048ec8 <close@plt>
 80496a8:	e9 99 fd ff ff       	jmp    8049446 <main+0x256>
 80496ad:	90                   	nop    
 80496ae:	90                   	nop    
 80496af:	90                   	nop    

080496b0 <showdir>:
 80496b0:	55                   	push   %ebp
 80496b1:	89 e5                	mov    %esp,%ebp
 80496b3:	57                   	push   %edi
 80496b4:	56                   	push   %esi
 80496b5:	53                   	push   %ebx
 80496b6:	81 ec fc 09 00 00    	sub    $0x9fc,%esp
 80496bc:	8b 75 08             	mov    0x8(%ebp),%esi
 80496bf:	8d 9d 32 f6 ff ff    	lea    -0x9ce(%ebp),%ebx
 80496c5:	8d 85 31 ff ff ff    	lea    -0xcf(%ebp),%eax
 80496cb:	c7 44 24 08 bf 00 00 	movl   $0xbf,0x8(%esp)
 80496d2:	00 
 80496d3:	c7 44 24 04 e8 ae 04 	movl   $0x804aee8,0x4(%esp)
 80496da:	08 
 80496db:	89 04 24             	mov    %eax,(%esp)
 80496de:	e8 25 f7 ff ff       	call   8048e08 <memcpy@plt>
 80496e3:	c7 44 24 08 00 08 00 	movl   $0x800,0x8(%esp)
 80496ea:	00 
 80496eb:	c7 44 24 04 00 00 00 	movl   $0x0,0x4(%esp)
 80496f2:	00 
 80496f3:	89 1c 24             	mov    %ebx,(%esp)
 80496f6:	e8 3d f6 ff ff       	call   8048d38 <memset@plt>
 80496fb:	8b 45 10             	mov    0x10(%ebp),%eax
 80496fe:	05 ff 00 00 00       	add    $0xff,%eax
 8049703:	89 85 14 f6 ff ff    	mov    %eax,-0x9ec(%ebp)
 8049709:	89 04 24             	mov    %eax,(%esp)
 804970c:	e8 07 f7 ff ff       	call   8048e18 <strlen@plt>
 8049711:	c7 44 24 04 14 ad 04 	movl   $0x804ad14,0x4(%esp)
 8049718:	08 
 8049719:	89 1c 24             	mov    %ebx,(%esp)
 804971c:	01 f0                	add    %esi,%eax
 804971e:	89 44 24 08          	mov    %eax,0x8(%esp)
 8049722:	e8 31 f5 ff ff       	call   8048c58 <sprintf@plt>
 8049727:	c7 44 24 0c 00 00 00 	movl   $0x0,0xc(%esp)
 804972e:	00 
 804972f:	c7 44 24 08 00 08 00 	movl   $0x800,0x8(%esp)
 8049736:	00 
 8049737:	89 5c 24 04          	mov    %ebx,0x4(%esp)
 804973b:	8b 45 0c             	mov    0xc(%ebp),%eax
 804973e:	89 04 24             	mov    %eax,(%esp)
 8049741:	e8 02 f8 ff ff       	call   8048f48 <send@plt>
 8049746:	83 c0 01             	add    $0x1,%eax
 8049749:	0f 84 28 01 00 00    	je     8049877 <showdir+0x1c7>
 804974f:	8d 45 f0             	lea    -0x10(%ebp),%eax
 8049752:	c7 44 24 0c a8 8e 04 	movl   $0x8048ea8,0xc(%esp)
 8049759:	08 
 804975a:	c7 44 24 08 00 00 00 	movl   $0x0,0x8(%esp)
 8049761:	00 
 8049762:	89 44 24 04          	mov    %eax,0x4(%esp)
 8049766:	89 34 24             	mov    %esi,(%esp)
 8049769:	e8 da f5 ff ff       	call   8048d48 <scandir@plt>
 804976e:	89 85 18 f6 ff ff    	mov    %eax,-0x9e8(%ebp)
 8049774:	8b 85 14 f6 ff ff    	mov    -0x9ec(%ebp),%eax
 804977a:	89 04 24             	mov    %eax,(%esp)
 804977d:	e8 96 f6 ff ff       	call   8048e18 <strlen@plt>
 8049782:	01 f0                	add    %esi,%eax
 8049784:	83 bd 18 f6 ff ff 00 	cmpl   $0x0,-0x9e8(%ebp)
 804978b:	89 85 20 f6 ff ff    	mov    %eax,-0x9e0(%ebp)
 8049791:	0f 8c eb 00 00 00    	jl     8049882 <showdir+0x1d2>
 8049797:	0f 84 f1 00 00 00    	je     804988e <showdir+0x1de>
 804979d:	8d bd 32 fe ff ff    	lea    -0x1ce(%ebp),%edi
 80497a3:	c7 85 1c f6 ff ff 00 	movl   $0x0,-0x9e4(%ebp)
 80497aa:	00 00 00 
 80497ad:	eb 1a                	jmp    80497c9 <showdir+0x119>
 80497af:	90                   	nop    
 80497b0:	83 85 1c f6 ff ff 01 	addl   $0x1,-0x9e4(%ebp)
 80497b7:	8b 85 18 f6 ff ff    	mov    -0x9e8(%ebp),%eax
 80497bd:	39 85 1c f6 ff ff    	cmp    %eax,-0x9e4(%ebp)
 80497c3:	0f 84 c5 00 00 00    	je     804988e <showdir+0x1de>
 80497c9:	8b b5 1c f6 ff ff    	mov    -0x9e4(%ebp),%esi
 80497cf:	8b 45 f0             	mov    -0x10(%ebp),%eax
 80497d2:	c1 e6 02             	shl    $0x2,%esi
 80497d5:	8b 04 30             	mov    (%eax,%esi,1),%eax
 80497d8:	83 c0 0b             	add    $0xb,%eax
 80497db:	89 44 24 10          	mov    %eax,0x10(%esp)
 80497df:	8b 85 20 f6 ff ff    	mov    -0x9e0(%ebp),%eax
 80497e5:	89 44 24 0c          	mov    %eax,0xc(%esp)
 80497e9:	8b 85 14 f6 ff ff    	mov    -0x9ec(%ebp),%eax
 80497ef:	c7 44 24 04 9c b0 04 	movl   $0x804b09c,0x4(%esp)
 80497f6:	08 
 80497f7:	89 3c 24             	mov    %edi,(%esp)
 80497fa:	89 44 24 08          	mov    %eax,0x8(%esp)
 80497fe:	e8 55 f4 ff ff       	call   8048c58 <sprintf@plt>
 8049803:	89 3c 24             	mov    %edi,(%esp)
 8049806:	e8 15 0d 00 00       	call   804a520 <get_file_size>
 804980b:	89 3c 24             	mov    %edi,(%esp)
 804980e:	89 c3                	mov    %eax,%ebx
 8049810:	e8 cb 0c 00 00       	call   804a4e0 <isDirectory>
 8049815:	8b 55 f0             	mov    -0x10(%ebp),%edx
 8049818:	8b 14 32             	mov    (%edx,%esi,1),%edx
 804981b:	83 f8 01             	cmp    $0x1,%eax
 804981e:	19 c0                	sbb    %eax,%eax
 8049820:	21 d8                	and    %ebx,%eax
 8049822:	83 c2 0b             	add    $0xb,%edx
 8049825:	89 54 24 10          	mov    %edx,0x10(%esp)
 8049829:	89 54 24 0c          	mov    %edx,0xc(%esp)
 804982d:	89 44 24 14          	mov    %eax,0x14(%esp)
 8049831:	8b 85 20 f6 ff ff    	mov    -0x9e0(%ebp),%eax
 8049837:	c7 44 24 04 90 ae 04 	movl   $0x804ae90,0x4(%esp)
 804983e:	08 
 804983f:	89 3c 24             	mov    %edi,(%esp)
 8049842:	89 44 24 08          	mov    %eax,0x8(%esp)
 8049846:	e8 0d f4 ff ff       	call   8048c58 <sprintf@plt>
 804984b:	89 3c 24             	mov    %edi,(%esp)
 804984e:	e8 c5 f5 ff ff       	call   8048e18 <strlen@plt>
 8049853:	c7 44 24 0c 00 00 00 	movl   $0x0,0xc(%esp)
 804985a:	00 
 804985b:	89 7c 24 04          	mov    %edi,0x4(%esp)
 804985f:	89 44 24 08          	mov    %eax,0x8(%esp)
 8049863:	8b 45 0c             	mov    0xc(%ebp),%eax
 8049866:	89 04 24             	mov    %eax,(%esp)
 8049869:	e8 da f6 ff ff       	call   8048f48 <send@plt>
 804986e:	83 c0 01             	add    $0x1,%eax
 8049871:	0f 85 39 ff ff ff    	jne    80497b0 <showdir+0x100>
 8049877:	81 c4 fc 09 00 00    	add    $0x9fc,%esp
 804987d:	5b                   	pop    %ebx
 804987e:	5e                   	pop    %esi
 804987f:	5f                   	pop    %edi
 8049880:	5d                   	pop    %ebp
 8049881:	c3                   	ret    
 8049882:	c7 04 24 94 b0 04 08 	movl   $0x804b094,(%esp)
 8049889:	e8 da f4 ff ff       	call   8048d68 <perror@plt>
 804988e:	8d 85 31 ff ff ff    	lea    -0xcf(%ebp),%eax
 8049894:	c7 44 24 0c 00 00 00 	movl   $0x0,0xc(%esp)
 804989b:	00 
 804989c:	c7 44 24 08 bf 00 00 	movl   $0xbf,0x8(%esp)
 80498a3:	00 
 80498a4:	89 44 24 04          	mov    %eax,0x4(%esp)
 80498a8:	8b 45 0c             	mov    0xc(%ebp),%eax
 80498ab:	89 04 24             	mov    %eax,(%esp)
 80498ae:	e8 95 f6 ff ff       	call   8048f48 <send@plt>
 80498b3:	81 c4 fc 09 00 00    	add    $0x9fc,%esp
 80498b9:	5b                   	pop    %ebx
 80498ba:	5e                   	pop    %esi
 80498bb:	5f                   	pop    %edi
 80498bc:	5d                   	pop    %ebp
 80498bd:	c3                   	ret    
 80498be:	66 90                	xchg   %ax,%ax

080498c0 <getmimetype>:
 80498c0:	55                   	push   %ebp
 80498c1:	b9 0c 00 00 00       	mov    $0xc,%ecx
 80498c6:	89 e5                	mov    %esp,%ebp
 80498c8:	31 c0                	xor    %eax,%eax
 80498ca:	57                   	push   %edi
 80498cb:	56                   	push   %esi
 80498cc:	53                   	push   %ebx
 80498cd:	fc                   	cld    
 80498ce:	8d 5d c2             	lea    -0x3e(%ebp),%ebx
 80498d1:	83 ec 7c             	sub    $0x7c,%esp
 80498d4:	8b 75 08             	mov    0x8(%ebp),%esi
 80498d7:	89 df                	mov    %ebx,%edi
 80498d9:	f3 ab                	rep stos %eax,%es:(%edi)
 80498db:	66 c7 07 00 00       	movw   $0x0,(%edi)
 80498e0:	bf 01 00 00 00       	mov    $0x1,%edi
 80498e5:	eb 11                	jmp    80498f8 <getmimetype+0x38>
 80498e7:	29 f8                	sub    %edi,%eax
 80498e9:	0f b6 04 30          	movzbl (%eax,%esi,1),%eax
 80498ed:	3c 2e                	cmp    $0x2e,%al
 80498ef:	74 13                	je     8049904 <getmimetype+0x44>
 80498f1:	88 44 1f ff          	mov    %al,-0x1(%edi,%ebx,1)
 80498f5:	83 c7 01             	add    $0x1,%edi
 80498f8:	89 34 24             	mov    %esi,(%esp)
 80498fb:	e8 18 f5 ff ff       	call   8048e18 <strlen@plt>
 8049900:	39 c7                	cmp    %eax,%edi
 8049902:	72 e3                	jb     80498e7 <getmimetype+0x27>
 8049904:	31 ff                	xor    %edi,%edi
 8049906:	8d 75 90             	lea    -0x70(%ebp),%esi
 8049909:	eb 12                	jmp    804991d <getmimetype+0x5d>
 804990b:	90                   	nop    
 804990c:	8d 74 26 00          	lea    0x0(%esi),%esi
 8049910:	29 f8                	sub    %edi,%eax
 8049912:	0f b6 44 05 c1       	movzbl -0x3f(%ebp,%eax,1),%eax
 8049917:	88 04 37             	mov    %al,(%edi,%esi,1)
 804991a:	83 c7 01             	add    $0x1,%edi
 804991d:	89 1c 24             	mov    %ebx,(%esp)
 8049920:	e8 f3 f4 ff ff       	call   8048e18 <strlen@plt>
 8049925:	39 c7                	cmp    %eax,%edi
 8049927:	72 e7                	jb     8049910 <getmimetype+0x50>
 8049929:	0f b6 35 b7 b0 04 08 	movzbl 0x804b0b7,%esi
 8049930:	31 d2                	xor    %edx,%edx
 8049932:	0f b6 05 40 c6 04 08 	movzbl 0x804c640,%eax
 8049939:	c6 44 3d 90 00       	movb   $0x0,-0x70(%ebp,%edi,1)
 804993e:	39 f0                	cmp    %esi,%eax
 8049940:	74 3e                	je     8049980 <getmimetype+0xc0>
 8049942:	31 db                	xor    %ebx,%ebx
 8049944:	b9 40 c6 04 08       	mov    $0x804c640,%ecx
 8049949:	bf c8 00 00 00       	mov    $0xc8,%edi
 804994e:	eb 1b                	jmp    804996b <getmimetype+0xab>
 8049950:	0f b6 87 40 c6 04 08 	movzbl 0x804c640(%edi),%eax
 8049957:	8d 8f 40 c6 04 08    	lea    0x804c640(%edi),%ecx
 804995d:	8d 97 c8 00 00 00    	lea    0xc8(%edi),%edx
 8049963:	39 f0                	cmp    %esi,%eax
 8049965:	74 71                	je     80499d8 <getmimetype+0x118>
 8049967:	89 fb                	mov    %edi,%ebx
 8049969:	89 d7                	mov    %edx,%edi
 804996b:	8d 45 90             	lea    -0x70(%ebp),%eax
 804996e:	89 44 24 04          	mov    %eax,0x4(%esp)
 8049972:	89 0c 24             	mov    %ecx,(%esp)
 8049975:	e8 7e f6 ff ff       	call   8048ff8 <strcmp@plt>
 804997a:	85 c0                	test   %eax,%eax
 804997c:	75 d2                	jne    8049950 <getmimetype+0x90>
 804997e:	89 da                	mov    %ebx,%edx
 8049980:	8d 82 a4 c6 04 08    	lea    0x804c6a4(%edx),%eax
 8049986:	8b 55 0c             	mov    0xc(%ebp),%edx
 8049989:	89 44 24 04          	mov    %eax,0x4(%esp)
 804998d:	89 14 24             	mov    %edx,(%esp)
 8049990:	e8 c3 f4 ff ff       	call   8048e58 <strcpy@plt>
 8049995:	8b 55 0c             	mov    0xc(%ebp),%edx
 8049998:	0f b6 05 b7 b0 04 08 	movzbl 0x804b0b7,%eax
 804999f:	3a 02                	cmp    (%edx),%al
 80499a1:	75 2d                	jne    80499d0 <getmimetype+0x110>
 80499a3:	c7 02 61 70 70 6c    	movl   $0x6c707061,(%edx)
 80499a9:	c7 42 04 69 63 61 74 	movl   $0x74616369,0x4(%edx)
 80499b0:	c7 42 08 69 6f 6e 2f 	movl   $0x2f6e6f69,0x8(%edx)
 80499b7:	c7 42 0c 6f 63 74 65 	movl   $0x6574636f,0xc(%edx)
 80499be:	c7 42 10 74 2d 73 74 	movl   $0x74732d74,0x10(%edx)
 80499c5:	c7 42 14 72 65 61 6d 	movl   $0x6d616572,0x14(%edx)
 80499cc:	c6 42 18 00          	movb   $0x0,0x18(%edx)
 80499d0:	83 c4 7c             	add    $0x7c,%esp
 80499d3:	5b                   	pop    %ebx
 80499d4:	5e                   	pop    %esi
 80499d5:	5f                   	pop    %edi
 80499d6:	5d                   	pop    %ebp
 80499d7:	c3                   	ret    
 80499d8:	89 fa                	mov    %edi,%edx
 80499da:	eb a4                	jmp    8049980 <getmimetype+0xc0>
 80499dc:	8d 74 26 00          	lea    0x0(%esi),%esi

080499e0 <serveconnection>:
 80499e0:	55                   	push   %ebp
 80499e1:	89 e5                	mov    %esp,%ebp
 80499e3:	57                   	push   %edi
 80499e4:	56                   	push   %esi
 80499e5:	53                   	push   %ebx
 80499e6:	31 db                	xor    %ebx,%ebx
 80499e8:	81 ec 7c 41 00 00    	sub    $0x417c,%esp
 80499ee:	8d bd af de ff ff    	lea    -0x2151(%ebp),%edi
 80499f4:	c7 45 f0 10 00 00 00 	movl   $0x10,-0x10(%ebp)
 80499fb:	90                   	nop    
 80499fc:	8d 74 26 00          	lea    0x0(%esi),%esi
 8049a00:	c7 44 24 04 a4 b0 04 	movl   $0x804b0a4,0x4(%esp)
 8049a07:	08 
 8049a08:	89 3c 24             	mov    %edi,(%esp)
 8049a0b:	e8 c8 f4 ff ff       	call   8048ed8 <strstr@plt>
 8049a10:	85 c0                	test   %eax,%eax
 8049a12:	75 50                	jne    8049a64 <serveconnection+0x84>
 8049a14:	c7 44 24 04 05 b1 04 	movl   $0x804b105,0x4(%esp)
 8049a1b:	08 
 8049a1c:	89 3c 24             	mov    %edi,(%esp)
 8049a1f:	e8 b4 f4 ff ff       	call   8048ed8 <strstr@plt>
 8049a24:	85 c0                	test   %eax,%eax
 8049a26:	75 3c                	jne    8049a64 <serveconnection+0x84>
 8049a28:	b8 00 10 00 00       	mov    $0x1000,%eax
 8049a2d:	29 d8                	sub    %ebx,%eax
 8049a2f:	89 44 24 08          	mov    %eax,0x8(%esp)
 8049a33:	8d 04 1f             	lea    (%edi,%ebx,1),%eax
 8049a36:	c7 44 24 0c 00 00 00 	movl   $0x0,0xc(%esp)
 8049a3d:	00 
 8049a3e:	89 44 24 04          	mov    %eax,0x4(%esp)
 8049a42:	8b 45 08             	mov    0x8(%ebp),%eax
 8049a45:	89 04 24             	mov    %eax,(%esp)
 8049a48:	e8 bb f2 ff ff       	call   8048d08 <recv@plt>
 8049a4d:	83 f8 ff             	cmp    $0xffffffff,%eax
 8049a50:	89 c3                	mov    %eax,%ebx
 8049a52:	75 ac                	jne    8049a00 <serveconnection+0x20>
 8049a54:	b8 ff ff ff ff       	mov    $0xffffffff,%eax
 8049a59:	81 c4 7c 41 00 00    	add    $0x417c,%esp
 8049a5f:	5b                   	pop    %ebx
 8049a60:	5e                   	pop    %esi
 8049a61:	5f                   	pop    %edi
 8049a62:	5d                   	pop    %ebp
 8049a63:	c3                   	ret    
 8049a64:	31 d2                	xor    %edx,%edx
 8049a66:	eb 16                	jmp    8049a7e <serveconnection+0x9e>
 8049a68:	3c 0d                	cmp    $0xd,%al
 8049a6a:	74 1a                	je     8049a86 <serveconnection+0xa6>
 8049a6c:	88 84 2a af be ff ff 	mov    %al,-0x4151(%edx,%ebp,1)
 8049a73:	83 c2 01             	add    $0x1,%edx
 8049a76:	81 fa 00 10 00 00    	cmp    $0x1000,%edx
 8049a7c:	74 08                	je     8049a86 <serveconnection+0xa6>
 8049a7e:	0f b6 04 3a          	movzbl (%edx,%edi,1),%eax
 8049a82:	3c 0a                	cmp    $0xa,%al
 8049a84:	75 e2                	jne    8049a68 <serveconnection+0x88>
 8049a86:	c6 84 15 af be ff ff 	movb   $0x0,-0x4151(%ebp,%edx,1)
 8049a8d:	00 
 8049a8e:	8d 95 af be ff ff    	lea    -0x4151(%ebp),%edx
 8049a94:	c7 44 24 04 91 b1 04 	movl   $0x804b191,0x4(%esp)
 8049a9b:	08 
 8049a9c:	89 14 24             	mov    %edx,(%esp)
 8049a9f:	e8 74 f4 ff ff       	call   8048f18 <strtok@plt>
 8049aa4:	85 c0                	test   %eax,%eax
 8049aa6:	89 c3                	mov    %eax,%ebx
 8049aa8:	74 aa                	je     8049a54 <serveconnection+0x74>
 8049aaa:	0f b6 05 a9 b0 04 08 	movzbl 0x804b0a9,%eax
 8049ab1:	3a 03                	cmp    (%ebx),%al
 8049ab3:	75 10                	jne    8049ac5 <serveconnection+0xe5>
 8049ab5:	0f b6 05 aa b0 04 08 	movzbl 0x804b0aa,%eax
 8049abc:	3a 43 01             	cmp    0x1(%ebx),%al
 8049abf:	0f 84 33 02 00 00    	je     8049cf8 <serveconnection+0x318>
 8049ac5:	8b 45 e4             	mov    -0x1c(%ebp),%eax
 8049ac8:	89 04 24             	mov    %eax,(%esp)
 8049acb:	e8 b8 f1 ff ff       	call   8048c88 <inet_ntoa@plt>
 8049ad0:	89 5c 24 08          	mov    %ebx,0x8(%esp)
 8049ad4:	c7 04 24 a8 af 04 08 	movl   $0x804afa8,(%esp)
 8049adb:	89 44 24 04          	mov    %eax,0x4(%esp)
 8049adf:	e8 1c 08 00 00       	call   804a300 <Log>
 8049ae4:	8d 85 af fe ff ff    	lea    -0x151(%ebp),%eax
 8049aea:	c7 44 24 04 40 c5 04 	movl   $0x804c540,0x4(%esp)
 8049af1:	08 
 8049af2:	89 04 24             	mov    %eax,(%esp)
 8049af5:	e8 5e f3 ff ff       	call   8048e58 <strcpy@plt>
 8049afa:	8d 95 af fe ff ff    	lea    -0x151(%ebp),%edx
 8049b00:	89 14 24             	mov    %edx,(%esp)
 8049b03:	e8 10 f3 ff ff       	call   8048e18 <strlen@plt>
 8049b08:	8d 95 af fe ff ff    	lea    -0x151(%ebp),%edx
 8049b0e:	8d 04 02             	lea    (%edx,%eax,1),%eax
 8049b11:	c7 00 2f 63 6d 64    	movl   $0x646d632f,(%eax)
 8049b17:	c7 40 04 65 72 72 6f 	movl   $0x6f727265,0x4(%eax)
 8049b1e:	c7 40 08 72 2e 68 74 	movl   $0x74682e72,0x8(%eax)
 8049b25:	66 c7 40 0c 6d 6c    	movw   $0x6c6d,0xc(%eax)
 8049b2b:	c6 40 0e 00          	movb   $0x0,0xe(%eax)
 8049b2f:	8d 85 af fe ff ff    	lea    -0x151(%ebp),%eax
 8049b35:	c7 44 24 04 de b0 04 	movl   $0x804b0de,0x4(%esp)
 8049b3c:	08 
 8049b3d:	89 04 24             	mov    %eax,(%esp)
 8049b40:	e8 e3 f2 ff ff       	call   8048e28 <fopen@plt>
 8049b45:	85 c0                	test   %eax,%eax
 8049b47:	89 c6                	mov    %eax,%esi
 8049b49:	0f 84 05 ff ff ff    	je     8049a54 <serveconnection+0x74>
 8049b4f:	c7 44 24 08 02 00 00 	movl   $0x2,0x8(%esp)
 8049b56:	00 
 8049b57:	c7 44 24 04 00 00 00 	movl   $0x0,0x4(%esp)
 8049b5e:	00 
 8049b5f:	89 04 24             	mov    %eax,(%esp)
 8049b62:	e8 61 f2 ff ff       	call   8048dc8 <fseek@plt>
 8049b67:	c7 44 24 0c 00 00 00 	movl   $0x0,0xc(%esp)
 8049b6e:	00 
 8049b6f:	c7 44 24 08 10 00 00 	movl   $0x10,0x8(%esp)
 8049b76:	00 
 8049b77:	c7 44 24 04 c0 b0 04 	movl   $0x804b0c0,0x4(%esp)
 8049b7e:	08 
 8049b7f:	8b 55 08             	mov    0x8(%ebp),%edx
 8049b82:	89 14 24             	mov    %edx,(%esp)
 8049b85:	e8 be f3 ff ff       	call   8048f48 <send@plt>
 8049b8a:	83 c0 01             	add    $0x1,%eax
 8049b8d:	0f 84 4d 01 00 00    	je     8049ce0 <serveconnection+0x300>
 8049b93:	c7 44 24 0c 00 00 00 	movl   $0x0,0xc(%esp)
 8049b9a:	00 
 8049b9b:	c7 44 24 08 22 00 00 	movl   $0x22,0x8(%esp)
 8049ba2:	00 
 8049ba3:	c7 44 24 04 44 b0 04 	movl   $0x804b044,0x4(%esp)
 8049baa:	08 
 8049bab:	8b 45 08             	mov    0x8(%ebp),%eax
 8049bae:	89 04 24             	mov    %eax,(%esp)
 8049bb1:	e8 92 f3 ff ff       	call   8048f48 <send@plt>
 8049bb6:	83 c0 01             	add    $0x1,%eax
 8049bb9:	0f 84 21 01 00 00    	je     8049ce0 <serveconnection+0x300>
 8049bbf:	89 34 24             	mov    %esi,(%esp)
 8049bc2:	e8 a1 f2 ff ff       	call   8048e68 <ftell@plt>
 8049bc7:	8d 95 af be ff ff    	lea    -0x4151(%ebp),%edx
 8049bcd:	89 14 24             	mov    %edx,(%esp)
 8049bd0:	c7 44 24 04 e1 b0 04 	movl   $0x804b0e1,0x4(%esp)
 8049bd7:	08 
 8049bd8:	89 44 24 08          	mov    %eax,0x8(%esp)
 8049bdc:	e8 77 f0 ff ff       	call   8048c58 <sprintf@plt>
 8049be1:	8d 85 af be ff ff    	lea    -0x4151(%ebp),%eax
 8049be7:	89 04 24             	mov    %eax,(%esp)
 8049bea:	e8 29 f2 ff ff       	call   8048e18 <strlen@plt>
 8049bef:	8d 95 af be ff ff    	lea    -0x4151(%ebp),%edx
 8049bf5:	c7 44 24 0c 00 00 00 	movl   $0x0,0xc(%esp)
 8049bfc:	00 
 8049bfd:	89 54 24 04          	mov    %edx,0x4(%esp)
 8049c01:	89 44 24 08          	mov    %eax,0x8(%esp)
 8049c05:	8b 45 08             	mov    0x8(%ebp),%eax
 8049c08:	89 04 24             	mov    %eax,(%esp)
 8049c0b:	e8 38 f3 ff ff       	call   8048f48 <send@plt>
 8049c10:	83 c0 01             	add    $0x1,%eax
 8049c13:	0f 84 c7 00 00 00    	je     8049ce0 <serveconnection+0x300>
 8049c19:	8d 95 af fe ff ff    	lea    -0x151(%ebp),%edx
 8049c1f:	8d 5d ae             	lea    -0x52(%ebp),%ebx
 8049c22:	89 14 24             	mov    %edx,(%esp)
 8049c25:	89 5c 24 04          	mov    %ebx,0x4(%esp)
 8049c29:	e8 92 fc ff ff       	call   80498c0 <getmimetype>
 8049c2e:	8d 85 af be ff ff    	lea    -0x4151(%ebp),%eax
 8049c34:	89 5c 24 08          	mov    %ebx,0x8(%esp)
 8049c38:	c7 44 24 04 f5 b0 04 	movl   $0x804b0f5,0x4(%esp)
 8049c3f:	08 
 8049c40:	89 04 24             	mov    %eax,(%esp)
 8049c43:	e8 10 f0 ff ff       	call   8048c58 <sprintf@plt>
 8049c48:	8d 95 af be ff ff    	lea    -0x4151(%ebp),%edx
 8049c4e:	89 14 24             	mov    %edx,(%esp)
 8049c51:	e8 c2 f1 ff ff       	call   8048e18 <strlen@plt>
 8049c56:	c7 44 24 0c 00 00 00 	movl   $0x0,0xc(%esp)
 8049c5d:	00 
 8049c5e:	89 44 24 08          	mov    %eax,0x8(%esp)
 8049c62:	8d 85 af be ff ff    	lea    -0x4151(%ebp),%eax
 8049c68:	89 44 24 04          	mov    %eax,0x4(%esp)
 8049c6c:	8b 55 08             	mov    0x8(%ebp),%edx
 8049c6f:	89 14 24             	mov    %edx,(%esp)
 8049c72:	e8 d1 f2 ff ff       	call   8048f48 <send@plt>
 8049c77:	83 c0 01             	add    $0x1,%eax
 8049c7a:	74 64                	je     8049ce0 <serveconnection+0x300>
 8049c7c:	c7 44 24 08 00 00 00 	movl   $0x0,0x8(%esp)
 8049c83:	00 
 8049c84:	c7 44 24 04 00 00 00 	movl   $0x0,0x4(%esp)
 8049c8b:	00 
 8049c8c:	89 34 24             	mov    %esi,(%esp)
 8049c8f:	e8 34 f1 ff ff       	call   8048dc8 <fseek@plt>
 8049c94:	89 34 24             	mov    %esi,(%esp)
 8049c97:	e8 ac f1 ff ff       	call   8048e48 <feof@plt>
 8049c9c:	85 c0                	test   %eax,%eax
 8049c9e:	0f 85 a9 01 00 00    	jne    8049e4d <serveconnection+0x46d>
 8049ca4:	89 74 24 0c          	mov    %esi,0xc(%esp)
 8049ca8:	c7 44 24 08 00 04 00 	movl   $0x400,0x8(%esp)
 8049caf:	00 
 8049cb0:	c7 44 24 04 01 00 00 	movl   $0x1,0x4(%esp)
 8049cb7:	00 
 8049cb8:	89 3c 24             	mov    %edi,(%esp)
 8049cbb:	e8 d8 f2 ff ff       	call   8048f98 <fread@plt>
 8049cc0:	c7 44 24 0c 00 00 00 	movl   $0x0,0xc(%esp)
 8049cc7:	00 
 8049cc8:	89 7c 24 04          	mov    %edi,0x4(%esp)
 8049ccc:	89 44 24 08          	mov    %eax,0x8(%esp)
 8049cd0:	8b 45 08             	mov    0x8(%ebp),%eax
 8049cd3:	89 04 24             	mov    %eax,(%esp)
 8049cd6:	e8 6d f2 ff ff       	call   8048f48 <send@plt>
 8049cdb:	83 c0 01             	add    $0x1,%eax
 8049cde:	75 b4                	jne    8049c94 <serveconnection+0x2b4>
 8049ce0:	89 34 24             	mov    %esi,(%esp)
 8049ce3:	e8 00 f1 ff ff       	call   8048de8 <fclose@plt>
 8049ce8:	81 c4 7c 41 00 00    	add    $0x417c,%esp
 8049cee:	b8 ff ff ff ff       	mov    $0xffffffff,%eax
 8049cf3:	5b                   	pop    %ebx
 8049cf4:	5e                   	pop    %esi
 8049cf5:	5f                   	pop    %edi
 8049cf6:	5d                   	pop    %ebp
 8049cf7:	c3                   	ret    
 8049cf8:	0f b6 05 ab b0 04 08 	movzbl 0x804b0ab,%eax
 8049cff:	3a 43 02             	cmp    0x2(%ebx),%al
 8049d02:	0f 85 bd fd ff ff    	jne    8049ac5 <serveconnection+0xe5>
 8049d08:	0f b6 05 ac b0 04 08 	movzbl 0x804b0ac,%eax
 8049d0f:	3a 43 03             	cmp    0x3(%ebx),%al
 8049d12:	0f 85 ad fd ff ff    	jne    8049ac5 <serveconnection+0xe5>
 8049d18:	c7 44 24 04 91 b1 04 	movl   $0x804b191,0x4(%esp)
 8049d1f:	08 
 8049d20:	c7 04 24 00 00 00 00 	movl   $0x0,(%esp)
 8049d27:	e8 ec f1 ff ff       	call   8048f18 <strtok@plt>
 8049d2c:	85 c0                	test   %eax,%eax
 8049d2e:	89 85 a0 be ff ff    	mov    %eax,-0x4160(%ebp)
 8049d34:	0f 84 2d 01 00 00    	je     8049e67 <serveconnection+0x487>
 8049d3a:	c7 44 24 04 ad b0 04 	movl   $0x804b0ad,0x4(%esp)
 8049d41:	08 
 8049d42:	89 3c 24             	mov    %edi,(%esp)
 8049d45:	e8 8e f1 ff ff       	call   8048ed8 <strstr@plt>
 8049d4a:	c7 85 9c be ff ff 80 	movl   $0x804df80,-0x4164(%ebp)
 8049d51:	df 04 08 
 8049d54:	85 c0                	test   %eax,%eax
 8049d56:	74 6d                	je     8049dc5 <serveconnection+0x3e5>
 8049d58:	83 c0 06             	add    $0x6,%eax
 8049d5b:	c7 44 24 04 b3 b0 04 	movl   $0x804b0b3,0x4(%esp)
 8049d62:	08 
 8049d63:	89 04 24             	mov    %eax,(%esp)
 8049d66:	e8 ad f1 ff ff       	call   8048f18 <strtok@plt>
 8049d6b:	c7 85 9c be ff ff 80 	movl   $0x804df80,-0x4164(%ebp)
 8049d72:	df 04 08 
 8049d75:	89 85 94 be ff ff    	mov    %eax,-0x416c(%ebp)
 8049d7b:	a1 68 df 04 08       	mov    0x804df68,%eax
 8049d80:	85 c0                	test   %eax,%eax
 8049d82:	74 41                	je     8049dc5 <serveconnection+0x3e5>
 8049d84:	31 f6                	xor    %esi,%esi
 8049d86:	31 db                	xor    %ebx,%ebx
 8049d88:	8b 85 94 be ff ff    	mov    -0x416c(%ebp),%eax
 8049d8e:	89 44 24 04          	mov    %eax,0x4(%esp)
 8049d92:	89 d8                	mov    %ebx,%eax
 8049d94:	03 05 6c df 04 08    	add    0x804df6c,%eax
 8049d9a:	89 04 24             	mov    %eax,(%esp)
 8049d9d:	e8 7e 06 00 00       	call   804a420 <gstricmp>
 8049da2:	85 c0                	test   %eax,%eax
 8049da4:	75 0e                	jne    8049db4 <serveconnection+0x3d4>
 8049da6:	8b 15 6c df 04 08    	mov    0x804df6c,%edx
 8049dac:	01 da                	add    %ebx,%edx
 8049dae:	89 95 9c be ff ff    	mov    %edx,-0x4164(%ebp)
 8049db4:	83 c6 01             	add    $0x1,%esi
 8049db7:	81 c3 fb 04 00 00    	add    $0x4fb,%ebx
 8049dbd:	39 35 68 df 04 08    	cmp    %esi,0x804df68
 8049dc3:	77 c3                	ja     8049d88 <serveconnection+0x3a8>
 8049dc5:	c7 44 24 04 b8 b0 04 	movl   $0x804b0b8,0x4(%esp)
 8049dcc:	08 
 8049dcd:	8b 85 a0 be ff ff    	mov    -0x4160(%ebp),%eax
 8049dd3:	89 04 24             	mov    %eax,(%esp)
 8049dd6:	e8 fd f0 ff ff       	call   8048ed8 <strstr@plt>
 8049ddb:	85 c0                	test   %eax,%eax
 8049ddd:	0f 84 c8 00 00 00    	je     8049eab <serveconnection+0x4cb>
 8049de3:	8b 45 e4             	mov    -0x1c(%ebp),%eax
 8049de6:	89 04 24             	mov    %eax,(%esp)
 8049de9:	e8 9a ee ff ff       	call   8048c88 <inet_ntoa@plt>
 8049dee:	8b 95 a0 be ff ff    	mov    -0x4160(%ebp),%edx
 8049df4:	c7 04 24 f8 af 04 08 	movl   $0x804aff8,(%esp)
 8049dfb:	89 54 24 08          	mov    %edx,0x8(%esp)
 8049dff:	89 44 24 04          	mov    %eax,0x4(%esp)
 8049e03:	e8 f8 04 00 00       	call   804a300 <Log>
 8049e08:	8d 85 af fe ff ff    	lea    -0x151(%ebp),%eax
 8049e0e:	c7 44 24 04 40 c5 04 	movl   $0x804c540,0x4(%esp)
 8049e15:	08 
 8049e16:	89 04 24             	mov    %eax,(%esp)
 8049e19:	e8 3a f0 ff ff       	call   8048e58 <strcpy@plt>
 8049e1e:	8d 95 af fe ff ff    	lea    -0x151(%ebp),%edx
 8049e24:	89 14 24             	mov    %edx,(%esp)
 8049e27:	e8 ec ef ff ff       	call   8048e18 <strlen@plt>
 8049e2c:	8d 95 af fe ff ff    	lea    -0x151(%ebp),%edx
 8049e32:	8d 04 02             	lea    (%edx,%eax,1),%eax
 8049e35:	c7 00 2f 34 30 34    	movl   $0x3430342f,(%eax)
 8049e3b:	c7 40 04 2e 68 74 6d 	movl   $0x6d74682e,0x4(%eax)
 8049e42:	66 c7 40 08 6c 00    	movw   $0x6c,0x8(%eax)
 8049e48:	e9 e2 fc ff ff       	jmp    8049b2f <serveconnection+0x14f>
 8049e4d:	89 34 24             	mov    %esi,(%esp)
 8049e50:	e8 93 ef ff ff       	call   8048de8 <fclose@plt>
 8049e55:	8b 55 08             	mov    0x8(%ebp),%edx
 8049e58:	89 14 24             	mov    %edx,(%esp)
 8049e5b:	e8 68 f0 ff ff       	call   8048ec8 <close@plt>
 8049e60:	31 c0                	xor    %eax,%eax
 8049e62:	e9 f2 fb ff ff       	jmp    8049a59 <serveconnection+0x79>
 8049e67:	8b 45 e4             	mov    -0x1c(%ebp),%eax
 8049e6a:	89 04 24             	mov    %eax,(%esp)
 8049e6d:	e8 16 ee ff ff       	call   8048c88 <inet_ntoa@plt>
 8049e72:	c7 04 24 d0 af 04 08 	movl   $0x804afd0,(%esp)
 8049e79:	89 44 24 04          	mov    %eax,0x4(%esp)
 8049e7d:	e8 7e 04 00 00       	call   804a300 <Log>
 8049e82:	8d 85 af fe ff ff    	lea    -0x151(%ebp),%eax
 8049e88:	c7 44 24 04 40 c5 04 	movl   $0x804c540,0x4(%esp)
 8049e8f:	08 
 8049e90:	89 04 24             	mov    %eax,(%esp)
 8049e93:	e8 c0 ef ff ff       	call   8048e58 <strcpy@plt>
 8049e98:	8d 95 af fe ff ff    	lea    -0x151(%ebp),%edx
 8049e9e:	89 14 24             	mov    %edx,(%esp)
 8049ea1:	e8 72 ef ff ff       	call   8048e18 <strlen@plt>
 8049ea6:	e9 5d fc ff ff       	jmp    8049b08 <serveconnection+0x128>
 8049eab:	8d 55 e0             	lea    -0x20(%ebp),%edx
 8049eae:	8d 45 f0             	lea    -0x10(%ebp),%eax
 8049eb1:	89 54 24 04          	mov    %edx,0x4(%esp)
 8049eb5:	89 44 24 08          	mov    %eax,0x8(%esp)
 8049eb9:	8b 45 08             	mov    0x8(%ebp),%eax
 8049ebc:	89 04 24             	mov    %eax,(%esp)
 8049ebf:	e8 14 f1 ff ff       	call   8048fd8 <getpeername@plt>
 8049ec4:	8b 45 e4             	mov    -0x1c(%ebp),%eax
 8049ec7:	89 04 24             	mov    %eax,(%esp)
 8049eca:	e8 b9 ed ff ff       	call   8048c88 <inet_ntoa@plt>
 8049ecf:	8b 95 a0 be ff ff    	mov    -0x4160(%ebp),%edx
 8049ed5:	c7 04 24 1c b0 04 08 	movl   $0x804b01c,(%esp)
 8049edc:	89 54 24 08          	mov    %edx,0x8(%esp)
 8049ee0:	89 44 24 04          	mov    %eax,0x4(%esp)
 8049ee4:	e8 17 04 00 00       	call   804a300 <Log>
 8049ee9:	eb 15                	jmp    8049f00 <serveconnection+0x520>
 8049eeb:	8d 42 03             	lea    0x3(%edx),%eax
 8049eee:	c6 02 20             	movb   $0x20,(%edx)
 8049ef1:	89 44 24 04          	mov    %eax,0x4(%esp)
 8049ef5:	8d 42 01             	lea    0x1(%edx),%eax
 8049ef8:	89 04 24             	mov    %eax,(%esp)
 8049efb:	e8 58 ef ff ff       	call   8048e58 <strcpy@plt>
 8049f00:	c7 44 24 04 bc b0 04 	movl   $0x804b0bc,0x4(%esp)
 8049f07:	08 
 8049f08:	8b 85 a0 be ff ff    	mov    -0x4160(%ebp),%eax
 8049f0e:	89 04 24             	mov    %eax,(%esp)
 8049f11:	e8 c2 ef ff ff       	call   8048ed8 <strstr@plt>
 8049f16:	85 c0                	test   %eax,%eax
 8049f18:	89 c2                	mov    %eax,%edx
 8049f1a:	75 cf                	jne    8049eeb <serveconnection+0x50b>
 8049f1c:	8b 9d 9c be ff ff    	mov    -0x4164(%ebp),%ebx
 8049f22:	81 c3 fd 02 00 00    	add    $0x2fd,%ebx
 8049f28:	89 1c 24             	mov    %ebx,(%esp)
 8049f2b:	e8 e8 ee ff ff       	call   8048e18 <strlen@plt>
 8049f30:	89 5c 24 04          	mov    %ebx,0x4(%esp)
 8049f34:	89 44 24 08          	mov    %eax,0x8(%esp)
 8049f38:	8b 95 a0 be ff ff    	mov    -0x4160(%ebp),%edx
 8049f3e:	89 14 24             	mov    %edx,(%esp)
 8049f41:	e8 42 f0 ff ff       	call   8048f88 <strncmp@plt>
 8049f46:	85 c0                	test   %eax,%eax
 8049f48:	0f 85 23 01 00 00    	jne    804a071 <serveconnection+0x691>
 8049f4e:	c7 44 24 04 3f 00 00 	movl   $0x3f,0x4(%esp)
 8049f55:	00 
 8049f56:	8b 85 a0 be ff ff    	mov    -0x4160(%ebp),%eax
 8049f5c:	89 04 24             	mov    %eax,(%esp)
 8049f5f:	e8 94 ed ff ff       	call   8048cf8 <strchr@plt>
 8049f64:	c7 85 98 be ff ff 00 	movl   $0x0,-0x4168(%ebp)
 8049f6b:	00 00 00 
 8049f6e:	85 c0                	test   %eax,%eax
 8049f70:	89 c6                	mov    %eax,%esi
 8049f72:	74 0d                	je     8049f81 <serveconnection+0x5a1>
 8049f74:	c6 00 00             	movb   $0x0,(%eax)
 8049f77:	c7 85 98 be ff ff 01 	movl   $0x1,-0x4168(%ebp)
 8049f7e:	00 00 00 
 8049f81:	8b 95 9c be ff ff    	mov    -0x4164(%ebp),%edx
 8049f87:	8d 85 af fe ff ff    	lea    -0x151(%ebp),%eax
 8049f8d:	81 c2 fc 03 00 00    	add    $0x3fc,%edx
 8049f93:	89 95 90 be ff ff    	mov    %edx,-0x4170(%ebp)
 8049f99:	89 54 24 04          	mov    %edx,0x4(%esp)
 8049f9d:	89 04 24             	mov    %eax,(%esp)
 8049fa0:	e8 b3 ee ff ff       	call   8048e58 <strcpy@plt>
 8049fa5:	8d 95 af fe ff ff    	lea    -0x151(%ebp),%edx
 8049fab:	89 14 24             	mov    %edx,(%esp)
 8049fae:	e8 65 ee ff ff       	call   8048e18 <strlen@plt>
 8049fb3:	ba ff 00 00 00       	mov    $0xff,%edx
 8049fb8:	89 1c 24             	mov    %ebx,(%esp)
 8049fbb:	29 c2                	sub    %eax,%edx
 8049fbd:	89 54 24 08          	mov    %edx,0x8(%esp)
 8049fc1:	e8 52 ee ff ff       	call   8048e18 <strlen@plt>
 8049fc6:	03 85 a0 be ff ff    	add    -0x4160(%ebp),%eax
 8049fcc:	89 44 24 04          	mov    %eax,0x4(%esp)
 8049fd0:	8d 85 af fe ff ff    	lea    -0x151(%ebp),%eax
 8049fd6:	89 04 24             	mov    %eax,(%esp)
 8049fd9:	e8 1a ef ff ff       	call   8048ef8 <strncat@plt>
 8049fde:	8d 95 af fe ff ff    	lea    -0x151(%ebp),%edx
 8049fe4:	89 14 24             	mov    %edx,(%esp)
 8049fe7:	e8 e4 0a 00 00       	call   804aad0 <does_file_exist>
 8049fec:	83 e8 01             	sub    $0x1,%eax
 8049fef:	0f 84 a6 01 00 00    	je     804a19b <serveconnection+0x7bb>
 8049ff5:	8b 45 e4             	mov    -0x1c(%ebp),%eax
 8049ff8:	89 04 24             	mov    %eax,(%esp)
 8049ffb:	e8 88 ec ff ff       	call   8048c88 <inet_ntoa@plt>
 804a000:	8d 56 01             	lea    0x1(%esi),%edx
 804a003:	89 54 24 0c          	mov    %edx,0xc(%esp)
 804a007:	8d 95 af fe ff ff    	lea    -0x151(%ebp),%edx
 804a00d:	89 54 24 08          	mov    %edx,0x8(%esp)
 804a011:	c7 04 24 68 b0 04 08 	movl   $0x804b068,(%esp)
 804a018:	89 44 24 04          	mov    %eax,0x4(%esp)
 804a01c:	e8 df 02 00 00       	call   804a300 <Log>
 804a021:	8d 85 af fe ff ff    	lea    -0x151(%ebp),%eax
 804a027:	c7 44 24 04 40 c5 04 	movl   $0x804c540,0x4(%esp)
 804a02e:	08 
 804a02f:	89 04 24             	mov    %eax,(%esp)
 804a032:	e8 21 ee ff ff       	call   8048e58 <strcpy@plt>
 804a037:	8d 95 af fe ff ff    	lea    -0x151(%ebp),%edx
 804a03d:	89 14 24             	mov    %edx,(%esp)
 804a040:	e8 d3 ed ff ff       	call   8048e18 <strlen@plt>
 804a045:	8d 95 af fe ff ff    	lea    -0x151(%ebp),%edx
 804a04b:	8d 04 02             	lea    (%edx,%eax,1),%eax
 804a04e:	c7 00 2f 63 67 69    	movl   $0x6967632f,(%eax)
 804a054:	c7 40 04 65 72 72 6f 	movl   $0x6f727265,0x4(%eax)
 804a05b:	c7 40 08 72 2e 68 74 	movl   $0x74682e72,0x8(%eax)
 804a062:	66 c7 40 0c 6d 6c    	movw   $0x6c6d,0xc(%eax)
 804a068:	c6 40 0e 00          	movb   $0x0,0xe(%eax)
 804a06c:	e9 be fa ff ff       	jmp    8049b2f <serveconnection+0x14f>
 804a071:	8b 85 9c be ff ff    	mov    -0x4164(%ebp),%eax
 804a077:	05 ff 00 00 00       	add    $0xff,%eax
 804a07c:	89 44 24 04          	mov    %eax,0x4(%esp)
 804a080:	8d 85 af fe ff ff    	lea    -0x151(%ebp),%eax
 804a086:	89 04 24             	mov    %eax,(%esp)
 804a089:	e8 ca ed ff ff       	call   8048e58 <strcpy@plt>
 804a08e:	8d 95 af fe ff ff    	lea    -0x151(%ebp),%edx
 804a094:	89 14 24             	mov    %edx,(%esp)
 804a097:	e8 7c ed ff ff       	call   8048e18 <strlen@plt>
 804a09c:	ba ff 00 00 00       	mov    $0xff,%edx
 804a0a1:	29 c2                	sub    %eax,%edx
 804a0a3:	89 54 24 08          	mov    %edx,0x8(%esp)
 804a0a7:	8b 85 a0 be ff ff    	mov    -0x4160(%ebp),%eax
 804a0ad:	8d 95 af fe ff ff    	lea    -0x151(%ebp),%edx
 804a0b3:	89 14 24             	mov    %edx,(%esp)
 804a0b6:	89 44 24 04          	mov    %eax,0x4(%esp)
 804a0ba:	e8 39 ee ff ff       	call   8048ef8 <strncat@plt>
 804a0bf:	8d 85 af fe ff ff    	lea    -0x151(%ebp),%eax
 804a0c5:	89 04 24             	mov    %eax,(%esp)
 804a0c8:	e8 03 0a 00 00       	call   804aad0 <does_file_exist>
 804a0cd:	85 c0                	test   %eax,%eax
 804a0cf:	0f 85 5a fa ff ff    	jne    8049b2f <serveconnection+0x14f>
 804a0d5:	8d 95 af fe ff ff    	lea    -0x151(%ebp),%edx
 804a0db:	89 14 24             	mov    %edx,(%esp)
 804a0de:	e8 35 ed ff ff       	call   8048e18 <strlen@plt>
 804a0e3:	80 bc 05 ae fe ff ff 	cmpb   $0x2f,-0x152(%ebp,%eax,1)
 804a0ea:	2f 
 804a0eb:	74 18                	je     804a105 <serveconnection+0x725>
 804a0ed:	8d 95 af fe ff ff    	lea    -0x151(%ebp),%edx
 804a0f3:	89 14 24             	mov    %edx,(%esp)
 804a0f6:	e8 1d ed ff ff       	call   8048e18 <strlen@plt>
 804a0fb:	66 c7 84 05 af fe ff 	movw   $0x2f,-0x151(%ebp,%eax,1)
 804a102:	ff 2f 00 
 804a105:	8b b5 9c be ff ff    	mov    -0x4164(%ebp),%esi
 804a10b:	8d 85 af fe ff ff    	lea    -0x151(%ebp),%eax
 804a111:	89 04 24             	mov    %eax,(%esp)
 804a114:	81 c6 fe 01 00 00    	add    $0x1fe,%esi
 804a11a:	89 74 24 04          	mov    %esi,0x4(%esp)
 804a11e:	e8 15 ee ff ff       	call   8048f38 <strcat@plt>
 804a123:	8d 95 af fe ff ff    	lea    -0x151(%ebp),%edx
 804a129:	89 14 24             	mov    %edx,(%esp)
 804a12c:	e8 9f 09 00 00       	call   804aad0 <does_file_exist>
 804a131:	85 c0                	test   %eax,%eax
 804a133:	0f 85 f6 f9 ff ff    	jne    8049b2f <serveconnection+0x14f>
 804a139:	8d 85 af fe ff ff    	lea    -0x151(%ebp),%eax
 804a13f:	89 04 24             	mov    %eax,(%esp)
 804a142:	e8 d1 ec ff ff       	call   8048e18 <strlen@plt>
 804a147:	89 34 24             	mov    %esi,(%esp)
 804a14a:	89 c3                	mov    %eax,%ebx
 804a14c:	e8 c7 ec ff ff       	call   8048e18 <strlen@plt>
 804a151:	8d 95 af fe ff ff    	lea    -0x151(%ebp),%edx
 804a157:	29 c3                	sub    %eax,%ebx
 804a159:	c6 84 1d ae fe ff ff 	movb   $0x0,-0x152(%ebp,%ebx,1)
 804a160:	00 
 804a161:	89 14 24             	mov    %edx,(%esp)
 804a164:	e8 77 03 00 00       	call   804a4e0 <isDirectory>
 804a169:	83 e8 01             	sub    $0x1,%eax
 804a16c:	0f 84 60 01 00 00    	je     804a2d2 <serveconnection+0x8f2>
 804a172:	8d 95 af fe ff ff    	lea    -0x151(%ebp),%edx
 804a178:	c7 44 24 04 40 c5 04 	movl   $0x804c540,0x4(%esp)
 804a17f:	08 
 804a180:	89 14 24             	mov    %edx,(%esp)
 804a183:	e8 d0 ec ff ff       	call   8048e58 <strcpy@plt>
 804a188:	8d 85 af fe ff ff    	lea    -0x151(%ebp),%eax
 804a18e:	89 04 24             	mov    %eax,(%esp)
 804a191:	e8 82 ec ff ff       	call   8048e18 <strlen@plt>
 804a196:	e9 91 fc ff ff       	jmp    8049e2c <serveconnection+0x44c>
 804a19b:	8d 85 af fe ff ff    	lea    -0x151(%ebp),%eax
 804a1a1:	89 04 24             	mov    %eax,(%esp)
 804a1a4:	e8 37 03 00 00       	call   804a4e0 <isDirectory>
 804a1a9:	85 c0                	test   %eax,%eax
 804a1ab:	0f 85 44 fe ff ff    	jne    8049ff5 <serveconnection+0x615>
 804a1b1:	c7 44 24 0c 00 00 00 	movl   $0x0,0xc(%esp)
 804a1b8:	00 
 804a1b9:	c7 44 24 08 10 00 00 	movl   $0x10,0x8(%esp)
 804a1c0:	00 
 804a1c1:	c7 44 24 04 c0 b0 04 	movl   $0x804b0c0,0x4(%esp)
 804a1c8:	08 
 804a1c9:	8b 55 08             	mov    0x8(%ebp),%edx
 804a1cc:	89 14 24             	mov    %edx,(%esp)
 804a1cf:	e8 74 ed ff ff       	call   8048f48 <send@plt>
 804a1d4:	83 c0 01             	add    $0x1,%eax
 804a1d7:	0f 84 e3 00 00 00    	je     804a2c0 <serveconnection+0x8e0>
 804a1dd:	c7 44 24 0c 00 00 00 	movl   $0x0,0xc(%esp)
 804a1e4:	00 
 804a1e5:	c7 44 24 08 22 00 00 	movl   $0x22,0x8(%esp)
 804a1ec:	00 
 804a1ed:	c7 44 24 04 44 b0 04 	movl   $0x804b044,0x4(%esp)
 804a1f4:	08 
 804a1f5:	8b 45 08             	mov    0x8(%ebp),%eax
 804a1f8:	89 04 24             	mov    %eax,(%esp)
 804a1fb:	e8 48 ed ff ff       	call   8048f48 <send@plt>
 804a200:	83 c0 01             	add    $0x1,%eax
 804a203:	0f 84 b7 00 00 00    	je     804a2c0 <serveconnection+0x8e0>
 804a209:	c7 44 24 04 00 00 00 	movl   $0x0,0x4(%esp)
 804a210:	00 
 804a211:	8b 55 08             	mov    0x8(%ebp),%edx
 804a214:	89 14 24             	mov    %edx,(%esp)
 804a217:	e8 9c eb ff ff       	call   8048db8 <dup2@plt>
 804a21c:	85 c0                	test   %eax,%eax
 804a21e:	0f 85 30 f8 ff ff    	jne    8049a54 <serveconnection+0x74>
 804a224:	c7 44 24 04 01 00 00 	movl   $0x1,0x4(%esp)
 804a22b:	00 
 804a22c:	8b 45 08             	mov    0x8(%ebp),%eax
 804a22f:	89 04 24             	mov    %eax,(%esp)
 804a232:	e8 81 eb ff ff       	call   8048db8 <dup2@plt>
 804a237:	83 e8 01             	sub    $0x1,%eax
 804a23a:	0f 85 14 f8 ff ff    	jne    8049a54 <serveconnection+0x74>
 804a240:	a1 40 df 04 08       	mov    0x804df40,%eax
 804a245:	c7 44 24 04 00 00 00 	movl   $0x0,0x4(%esp)
 804a24c:	00 
 804a24d:	89 04 24             	mov    %eax,(%esp)
 804a250:	e8 23 ea ff ff       	call   8048c78 <setbuf@plt>
 804a255:	a1 60 df 04 08       	mov    0x804df60,%eax
 804a25a:	c7 44 24 04 00 00 00 	movl   $0x0,0x4(%esp)
 804a261:	00 
 804a262:	89 04 24             	mov    %eax,(%esp)
 804a265:	e8 0e ea ff ff       	call   8048c78 <setbuf@plt>
 804a26a:	83 bd 98 be ff ff 01 	cmpl   $0x1,-0x4168(%ebp)
 804a271:	75 1b                	jne    804a28e <serveconnection+0x8ae>
 804a273:	8d 46 01             	lea    0x1(%esi),%eax
 804a276:	c7 44 24 08 01 00 00 	movl   $0x1,0x8(%esp)
 804a27d:	00 
 804a27e:	89 44 24 04          	mov    %eax,0x4(%esp)
 804a282:	c7 04 24 d1 b0 04 08 	movl   $0x804b0d1,(%esp)
 804a289:	e8 7a ed ff ff       	call   8049008 <setenv@plt>
 804a28e:	8b 95 90 be ff ff    	mov    -0x4170(%ebp),%edx
 804a294:	89 14 24             	mov    %edx,(%esp)
 804a297:	e8 ec eb ff ff       	call   8048e88 <chdir@plt>
 804a29c:	8d 85 af fe ff ff    	lea    -0x151(%ebp),%eax
 804a2a2:	c7 44 24 04 00 00 00 	movl   $0x0,0x4(%esp)
 804a2a9:	00 
 804a2aa:	89 04 24             	mov    %eax,(%esp)
 804a2ad:	e8 26 eb ff ff       	call   8048dd8 <execlp@plt>
 804a2b2:	31 c0                	xor    %eax,%eax
 804a2b4:	e9 a0 f7 ff ff       	jmp    8049a59 <serveconnection+0x79>
 804a2b9:	8d b4 26 00 00 00 00 	lea    0x0(%esi),%esi
 804a2c0:	89 1c 24             	mov    %ebx,(%esp)
 804a2c3:	e8 20 eb ff ff       	call   8048de8 <fclose@plt>
 804a2c8:	b8 ff ff ff ff       	mov    $0xffffffff,%eax
 804a2cd:	e9 87 f7 ff ff       	jmp    8049a59 <serveconnection+0x79>
 804a2d2:	8b 85 9c be ff ff    	mov    -0x4164(%ebp),%eax
 804a2d8:	89 44 24 08          	mov    %eax,0x8(%esp)
 804a2dc:	8b 55 08             	mov    0x8(%ebp),%edx
 804a2df:	8d 85 af fe ff ff    	lea    -0x151(%ebp),%eax
 804a2e5:	89 04 24             	mov    %eax,(%esp)
 804a2e8:	89 54 24 04          	mov    %edx,0x4(%esp)
 804a2ec:	e8 bf f3 ff ff       	call   80496b0 <showdir>
 804a2f1:	31 c0                	xor    %eax,%eax
 804a2f3:	e9 61 f7 ff ff       	jmp    8049a59 <serveconnection+0x79>
 804a2f8:	90                   	nop    
 804a2f9:	90                   	nop    
 804a2fa:	90                   	nop    
 804a2fb:	90                   	nop    
 804a2fc:	90                   	nop    
 804a2fd:	90                   	nop    
 804a2fe:	90                   	nop    
 804a2ff:	90                   	nop    

0804a300 <Log>:
 804a300:	55                   	push   %ebp
 804a301:	89 e5                	mov    %esp,%ebp
 804a303:	57                   	push   %edi
 804a304:	56                   	push   %esi
 804a305:	53                   	push   %ebx
 804a306:	81 ec 4c 03 00 00    	sub    $0x34c,%esp
 804a30c:	a1 22 b1 04 08       	mov    0x804b122,%eax
 804a311:	8d 5d f0             	lea    -0x10(%ebp),%ebx
 804a314:	8d bd 8e fe ff ff    	lea    -0x172(%ebp),%edi
 804a31a:	89 3c 24             	mov    %edi,(%esp)
 804a31d:	89 45 d6             	mov    %eax,-0x2a(%ebp)
 804a320:	a1 26 b1 04 08       	mov    0x804b126,%eax
 804a325:	89 45 da             	mov    %eax,-0x26(%ebp)
 804a328:	a1 2a b1 04 08       	mov    0x804b12a,%eax
 804a32d:	89 45 de             	mov    %eax,-0x22(%ebp)
 804a330:	a1 2e b1 04 08       	mov    0x804b12e,%eax
 804a335:	89 45 e2             	mov    %eax,-0x1e(%ebp)
 804a338:	a1 32 b1 04 08       	mov    0x804b132,%eax
 804a33d:	89 45 e6             	mov    %eax,-0x1a(%ebp)
 804a340:	0f b7 05 36 b1 04 08 	movzwl 0x804b136,%eax
 804a347:	66 89 45 ea          	mov    %ax,-0x16(%ebp)
 804a34b:	8d 45 0c             	lea    0xc(%ebp),%eax
 804a34e:	89 45 ec             	mov    %eax,-0x14(%ebp)
 804a351:	89 44 24 08          	mov    %eax,0x8(%esp)
 804a355:	8b 45 08             	mov    0x8(%ebp),%eax
 804a358:	89 44 24 04          	mov    %eax,0x4(%esp)
 804a35c:	e8 77 e9 ff ff       	call   8048cd8 <vsprintf@plt>
 804a361:	89 1c 24             	mov    %ebx,(%esp)
 804a364:	e8 7f eb ff ff       	call   8048ee8 <time@plt>
 804a369:	89 1c 24             	mov    %ebx,(%esp)
 804a36c:	8d 9d 56 ff ff ff    	lea    -0xaa(%ebp),%ebx
 804a372:	e8 71 e9 ff ff       	call   8048ce8 <localtime@plt>
 804a377:	89 1c 24             	mov    %ebx,(%esp)
 804a37a:	c7 44 24 08 80 00 00 	movl   $0x80,0x8(%esp)
 804a381:	00 
 804a382:	c7 44 24 04 00 00 00 	movl   $0x0,0x4(%esp)
 804a389:	00 
 804a38a:	89 c6                	mov    %eax,%esi
 804a38c:	e8 a7 e9 ff ff       	call   8048d38 <memset@plt>
 804a391:	8d 45 d6             	lea    -0x2a(%ebp),%eax
 804a394:	89 74 24 0c          	mov    %esi,0xc(%esp)
 804a398:	8d b5 c6 fd ff ff    	lea    -0x23a(%ebp),%esi
 804a39e:	89 1c 24             	mov    %ebx,(%esp)
 804a3a1:	89 44 24 08          	mov    %eax,0x8(%esp)
 804a3a5:	c7 44 24 04 7f 00 00 	movl   $0x7f,0x4(%esp)
 804a3ac:	00 
 804a3ad:	e8 06 ec ff ff       	call   8048fb8 <strftime@plt>
 804a3b2:	89 5c 24 08          	mov    %ebx,0x8(%esp)
 804a3b6:	8d 9d c7 fc ff ff    	lea    -0x339(%ebp),%ebx
 804a3bc:	89 7c 24 0c          	mov    %edi,0xc(%esp)
 804a3c0:	c7 44 24 04 08 b1 04 	movl   $0x804b108,0x4(%esp)
 804a3c7:	08 
 804a3c8:	89 34 24             	mov    %esi,(%esp)
 804a3cb:	e8 88 e8 ff ff       	call   8048c58 <sprintf@plt>
 804a3d0:	89 1c 24             	mov    %ebx,(%esp)
 804a3d3:	c7 44 24 08 40 c5 04 	movl   $0x804c540,0x8(%esp)
 804a3da:	08 
 804a3db:	c7 44 24 04 11 b1 04 	movl   $0x804b111,0x4(%esp)
 804a3e2:	08 
 804a3e3:	e8 70 e8 ff ff       	call   8048c58 <sprintf@plt>
 804a3e8:	89 1c 24             	mov    %ebx,(%esp)
 804a3eb:	c7 44 24 04 1f b1 04 	movl   $0x804b11f,0x4(%esp)
 804a3f2:	08 
 804a3f3:	e8 30 ea ff ff       	call   8048e28 <fopen@plt>
 804a3f8:	85 c0                	test   %eax,%eax
 804a3fa:	89 c3                	mov    %eax,%ebx
 804a3fc:	74 14                	je     804a412 <Log+0x112>
 804a3fe:	89 44 24 04          	mov    %eax,0x4(%esp)
 804a402:	89 34 24             	mov    %esi,(%esp)
 804a405:	e8 3e e8 ff ff       	call   8048c48 <fputs@plt>
 804a40a:	89 1c 24             	mov    %ebx,(%esp)
 804a40d:	e8 d6 e9 ff ff       	call   8048de8 <fclose@plt>
 804a412:	81 c4 4c 03 00 00    	add    $0x34c,%esp
 804a418:	5b                   	pop    %ebx
 804a419:	5e                   	pop    %esi
 804a41a:	5f                   	pop    %edi
 804a41b:	5d                   	pop    %ebp
 804a41c:	c3                   	ret    
 804a41d:	8d 76 00             	lea    0x0(%esi),%esi

0804a420 <gstricmp>:
 804a420:	55                   	push   %ebp
 804a421:	89 e5                	mov    %esp,%ebp
 804a423:	56                   	push   %esi
 804a424:	53                   	push   %ebx
 804a425:	8b 5d 08             	mov    0x8(%ebp),%ebx
 804a428:	8b 75 0c             	mov    0xc(%ebp),%esi
 804a42b:	85 db                	test   %ebx,%ebx
 804a42d:	74 33                	je     804a462 <gstricmp+0x42>
 804a42f:	85 f6                	test   %esi,%esi
 804a431:	74 2f                	je     804a462 <gstricmp+0x42>
 804a433:	e8 f0 ea ff ff       	call   8048f28 <__ctype_tolower_loc@plt>
 804a438:	8b 08                	mov    (%eax),%ecx
 804a43a:	eb 0a                	jmp    804a446 <gstricmp+0x26>
 804a43c:	8d 74 26 00          	lea    0x0(%esi),%esi
 804a440:	83 c3 01             	add    $0x1,%ebx
 804a443:	83 c6 01             	add    $0x1,%esi
 804a446:	0f b6 03             	movzbl (%ebx),%eax
 804a449:	84 c0                	test   %al,%al
 804a44b:	74 1e                	je     804a46b <gstricmp+0x4b>
 804a44d:	0f b6 16             	movzbl (%esi),%edx
 804a450:	84 d2                	test   %dl,%dl
 804a452:	74 1a                	je     804a46e <gstricmp+0x4e>
 804a454:	0f be c0             	movsbl %al,%eax
 804a457:	0f be d2             	movsbl %dl,%edx
 804a45a:	8b 04 81             	mov    (%ecx,%eax,4),%eax
 804a45d:	3b 04 91             	cmp    (%ecx,%edx,4),%eax
 804a460:	74 de                	je     804a440 <gstricmp+0x20>
 804a462:	5b                   	pop    %ebx
 804a463:	b8 01 00 00 00       	mov    $0x1,%eax
 804a468:	5e                   	pop    %esi
 804a469:	5d                   	pop    %ebp
 804a46a:	c3                   	ret    
 804a46b:	0f b6 16             	movzbl (%esi),%edx
 804a46e:	0f be c0             	movsbl %al,%eax
 804a471:	0f be d2             	movsbl %dl,%edx
 804a474:	8b 04 81             	mov    (%ecx,%eax,4),%eax
 804a477:	3b 04 91             	cmp    (%ecx,%edx,4),%eax
 804a47a:	5b                   	pop    %ebx
 804a47b:	5e                   	pop    %esi
 804a47c:	5d                   	pop    %ebp
 804a47d:	0f 95 c0             	setne  %al
 804a480:	0f b6 c0             	movzbl %al,%eax
 804a483:	c3                   	ret    
 804a484:	8d b6 00 00 00 00    	lea    0x0(%esi),%esi
 804a48a:	8d bf 00 00 00 00    	lea    0x0(%edi),%edi

0804a490 <gstrlwr>:
 804a490:	55                   	push   %ebp
 804a491:	89 e5                	mov    %esp,%ebp
 804a493:	57                   	push   %edi
 804a494:	56                   	push   %esi
 804a495:	be 01 00 00 00       	mov    $0x1,%esi
 804a49a:	53                   	push   %ebx
 804a49b:	83 ec 0c             	sub    $0xc,%esp
 804a49e:	8b 7d 08             	mov    0x8(%ebp),%edi
 804a4a1:	85 ff                	test   %edi,%edi
 804a4a3:	75 1e                	jne    804a4c3 <gstrlwr+0x33>
 804a4a5:	eb 25                	jmp    804a4cc <gstrlwr+0x3c>
 804a4a7:	e8 7c ea ff ff       	call   8048f28 <__ctype_tolower_loc@plt>
 804a4ac:	0f be d3             	movsbl %bl,%edx
 804a4af:	8b 00                	mov    (%eax),%eax
 804a4b1:	8b 04 90             	mov    (%eax,%edx,4),%eax
 804a4b4:	88 44 3e ff          	mov    %al,-0x1(%esi,%edi,1)
 804a4b8:	83 c6 01             	add    $0x1,%esi
 804a4bb:	81 fe 00 01 00 00    	cmp    $0x100,%esi
 804a4c1:	74 09                	je     804a4cc <gstrlwr+0x3c>
 804a4c3:	0f b6 5c 3e ff       	movzbl -0x1(%esi,%edi,1),%ebx
 804a4c8:	84 db                	test   %bl,%bl
 804a4ca:	75 db                	jne    804a4a7 <gstrlwr+0x17>
 804a4cc:	83 c4 0c             	add    $0xc,%esp
 804a4cf:	5b                   	pop    %ebx
 804a4d0:	5e                   	pop    %esi
 804a4d1:	5f                   	pop    %edi
 804a4d2:	5d                   	pop    %ebp
 804a4d3:	c3                   	ret    
 804a4d4:	8d b6 00 00 00 00    	lea    0x0(%esi),%esi
 804a4da:	8d bf 00 00 00 00    	lea    0x0(%edi),%edi

0804a4e0 <isDirectory>:
 804a4e0:	55                   	push   %ebp
 804a4e1:	89 e5                	mov    %esp,%ebp
 804a4e3:	83 ec 78             	sub    $0x78,%esp
 804a4e6:	8d 45 a8             	lea    -0x58(%ebp),%eax
 804a4e9:	89 44 24 08          	mov    %eax,0x8(%esp)
 804a4ed:	8b 45 08             	mov    0x8(%ebp),%eax
 804a4f0:	c7 04 24 03 00 00 00 	movl   $0x3,(%esp)
 804a4f7:	89 44 24 04          	mov    %eax,0x4(%esp)
 804a4fb:	e8 b8 e7 ff ff       	call   8048cb8 <__xstat@plt>
 804a500:	31 d2                	xor    %edx,%edx
 804a502:	85 c0                	test   %eax,%eax
 804a504:	75 12                	jne    804a518 <isDirectory+0x38>
 804a506:	8b 45 b8             	mov    -0x48(%ebp),%eax
 804a509:	31 d2                	xor    %edx,%edx
 804a50b:	25 00 f0 00 00       	and    $0xf000,%eax
 804a510:	3d 00 40 00 00       	cmp    $0x4000,%eax
 804a515:	0f 94 c2             	sete   %dl
 804a518:	c9                   	leave  
 804a519:	89 d0                	mov    %edx,%eax
 804a51b:	c3                   	ret    
 804a51c:	8d 74 26 00          	lea    0x0(%esi),%esi

0804a520 <get_file_size>:
 804a520:	55                   	push   %ebp
 804a521:	89 e5                	mov    %esp,%ebp
 804a523:	83 ec 78             	sub    $0x78,%esp
 804a526:	8d 45 a8             	lea    -0x58(%ebp),%eax
 804a529:	89 44 24 08          	mov    %eax,0x8(%esp)
 804a52d:	8b 45 08             	mov    0x8(%ebp),%eax
 804a530:	c7 04 24 03 00 00 00 	movl   $0x3,(%esp)
 804a537:	89 44 24 04          	mov    %eax,0x4(%esp)
 804a53b:	e8 78 e7 ff ff       	call   8048cb8 <__xstat@plt>
 804a540:	83 f8 01             	cmp    $0x1,%eax
 804a543:	19 c0                	sbb    %eax,%eax
 804a545:	23 45 d4             	and    -0x2c(%ebp),%eax
 804a548:	c9                   	leave  
 804a549:	c3                   	ret    
 804a54a:	8d b6 00 00 00 00    	lea    0x0(%esi),%esi

0804a550 <getfileline>:
 804a550:	55                   	push   %ebp
 804a551:	89 e5                	mov    %esp,%ebp
 804a553:	53                   	push   %ebx
 804a554:	83 ec 14             	sub    $0x14,%esp
 804a557:	8b 5d 08             	mov    0x8(%ebp),%ebx
 804a55a:	8b 45 0c             	mov    0xc(%ebp),%eax
 804a55d:	c7 44 24 04 ff 00 00 	movl   $0xff,0x4(%esp)
 804a564:	00 
 804a565:	89 1c 24             	mov    %ebx,(%esp)
 804a568:	89 44 24 08          	mov    %eax,0x8(%esp)
 804a56c:	e8 b7 e7 ff ff       	call   8048d28 <fgets@plt>
 804a571:	ba 01 00 00 00       	mov    $0x1,%edx
 804a576:	eb 0f                	jmp    804a587 <getfileline+0x37>
 804a578:	3c 0a                	cmp    $0xa,%al
 804a57a:	74 18                	je     804a594 <getfileline+0x44>
 804a57c:	83 c2 01             	add    $0x1,%edx
 804a57f:	81 fa 00 01 00 00    	cmp    $0x100,%edx
 804a585:	74 1d                	je     804a5a4 <getfileline+0x54>
 804a587:	0f b6 44 1a ff       	movzbl -0x1(%edx,%ebx,1),%eax
 804a58c:	84 c0                	test   %al,%al
 804a58e:	74 14                	je     804a5a4 <getfileline+0x54>
 804a590:	3c 0d                	cmp    $0xd,%al
 804a592:	75 e4                	jne    804a578 <getfileline+0x28>
 804a594:	c6 44 1a ff 00       	movb   $0x0,-0x1(%edx,%ebx,1)
 804a599:	83 c2 01             	add    $0x1,%edx
 804a59c:	81 fa 00 01 00 00    	cmp    $0x100,%edx
 804a5a2:	75 e3                	jne    804a587 <getfileline+0x37>
 804a5a4:	83 c4 14             	add    $0x14,%esp
 804a5a7:	5b                   	pop    %ebx
 804a5a8:	5d                   	pop    %ebp
 804a5a9:	c3                   	ret    
 804a5aa:	8d b6 00 00 00 00    	lea    0x0(%esi),%esi

0804a5b0 <VirtualHostDefinition>:
 804a5b0:	55                   	push   %ebp
 804a5b1:	89 e5                	mov    %esp,%ebp
 804a5b3:	57                   	push   %edi
 804a5b4:	56                   	push   %esi
 804a5b5:	53                   	push   %ebx
 804a5b6:	81 ec 1c 01 00 00    	sub    $0x11c,%esp
 804a5bc:	8b 7d 08             	mov    0x8(%ebp),%edi
 804a5bf:	69 05 68 df 04 08 fb 	imul   $0x4fb,0x804df68,%eax
 804a5c6:	04 00 00 
 804a5c9:	89 85 f0 fe ff ff    	mov    %eax,-0x110(%ebp)
 804a5cf:	a1 6c df 04 08       	mov    0x804df6c,%eax
 804a5d4:	01 85 f0 fe ff ff    	add    %eax,-0x110(%ebp)
 804a5da:	8b 85 f0 fe ff ff    	mov    -0x110(%ebp),%eax
 804a5e0:	c6 00 00             	movb   $0x0,(%eax)
 804a5e3:	05 ff 00 00 00       	add    $0xff,%eax
 804a5e8:	89 85 e0 fe ff ff    	mov    %eax,-0x120(%ebp)
 804a5ee:	c7 44 24 04 7f e0 04 	movl   $0x804e07f,0x4(%esp)
 804a5f5:	08 
 804a5f6:	89 04 24             	mov    %eax,(%esp)
 804a5f9:	e8 5a e8 ff ff       	call   8048e58 <strcpy@plt>
 804a5fe:	8b 85 f0 fe ff ff    	mov    -0x110(%ebp),%eax
 804a604:	c7 44 24 04 7e e1 04 	movl   $0x804e17e,0x4(%esp)
 804a60b:	08 
 804a60c:	05 fe 01 00 00       	add    $0x1fe,%eax
 804a611:	89 85 e4 fe ff ff    	mov    %eax,-0x11c(%ebp)
 804a617:	89 04 24             	mov    %eax,(%esp)
 804a61a:	e8 39 e8 ff ff       	call   8048e58 <strcpy@plt>
 804a61f:	8b 85 f0 fe ff ff    	mov    -0x110(%ebp),%eax
 804a625:	c7 44 24 04 7d e2 04 	movl   $0x804e27d,0x4(%esp)
 804a62c:	08 
 804a62d:	05 fd 02 00 00       	add    $0x2fd,%eax
 804a632:	89 85 e8 fe ff ff    	mov    %eax,-0x118(%ebp)
 804a638:	89 04 24             	mov    %eax,(%esp)
 804a63b:	e8 18 e8 ff ff       	call   8048e58 <strcpy@plt>
 804a640:	8b 85 f0 fe ff ff    	mov    -0x110(%ebp),%eax
 804a646:	c7 44 24 04 7c e3 04 	movl   $0x804e37c,0x4(%esp)
 804a64d:	08 
 804a64e:	05 fc 03 00 00       	add    $0x3fc,%eax
 804a653:	89 85 ec fe ff ff    	mov    %eax,-0x114(%ebp)
 804a659:	89 04 24             	mov    %eax,(%esp)
 804a65c:	e8 f7 e7 ff ff       	call   8048e58 <strcpy@plt>
 804a661:	89 3c 24             	mov    %edi,(%esp)
 804a664:	e8 df e7 ff ff       	call   8048e48 <feof@plt>
 804a669:	85 c0                	test   %eax,%eax
 804a66b:	0f 85 ad 00 00 00    	jne    804a71e <VirtualHostDefinition+0x16e>
 804a671:	8d 85 f5 fe ff ff    	lea    -0x10b(%ebp),%eax
 804a677:	89 04 24             	mov    %eax,(%esp)
 804a67a:	89 7c 24 04          	mov    %edi,0x4(%esp)
 804a67e:	e8 cd fe ff ff       	call   804a550 <getfileline>
 804a683:	89 3c 24             	mov    %edi,(%esp)
 804a686:	e8 bd e7 ff ff       	call   8048e48 <feof@plt>
 804a68b:	85 c0                	test   %eax,%eax
 804a68d:	0f 85 8b 00 00 00    	jne    804a71e <VirtualHostDefinition+0x16e>
 804a693:	8d 85 f5 fe ff ff    	lea    -0x10b(%ebp),%eax
 804a699:	c7 44 24 04 38 b1 04 	movl   $0x804b138,0x4(%esp)
 804a6a0:	08 
 804a6a1:	89 04 24             	mov    %eax,(%esp)
 804a6a4:	e8 6f e8 ff ff       	call   8048f18 <strtok@plt>
 804a6a9:	c7 44 24 04 38 b1 04 	movl   $0x804b138,0x4(%esp)
 804a6b0:	08 
 804a6b1:	c7 04 24 00 00 00 00 	movl   $0x0,(%esp)
 804a6b8:	89 c3                	mov    %eax,%ebx
 804a6ba:	e8 59 e8 ff ff       	call   8048f18 <strtok@plt>
 804a6bf:	85 db                	test   %ebx,%ebx
 804a6c1:	89 c6                	mov    %eax,%esi
 804a6c3:	74 9c                	je     804a661 <VirtualHostDefinition+0xb1>
 804a6c5:	0f b6 03             	movzbl (%ebx),%eax
 804a6c8:	3c 3c                	cmp    $0x3c,%al
 804a6ca:	74 04                	je     804a6d0 <VirtualHostDefinition+0x120>
 804a6cc:	85 f6                	test   %esi,%esi
 804a6ce:	74 91                	je     804a661 <VirtualHostDefinition+0xb1>
 804a6d0:	3c 23                	cmp    $0x23,%al
 804a6d2:	74 8d                	je     804a661 <VirtualHostDefinition+0xb1>
 804a6d4:	c7 44 24 04 3c b1 04 	movl   $0x804b13c,0x4(%esp)
 804a6db:	08 
 804a6dc:	89 1c 24             	mov    %ebx,(%esp)
 804a6df:	e8 3c fd ff ff       	call   804a420 <gstricmp>
 804a6e4:	85 c0                	test   %eax,%eax
 804a6e6:	74 36                	je     804a71e <VirtualHostDefinition+0x16e>
 804a6e8:	c7 44 24 04 4b b1 04 	movl   $0x804b14b,0x4(%esp)
 804a6ef:	08 
 804a6f0:	89 1c 24             	mov    %ebx,(%esp)
 804a6f3:	e8 28 fd ff ff       	call   804a420 <gstricmp>
 804a6f8:	85 c0                	test   %eax,%eax
 804a6fa:	75 34                	jne    804a730 <VirtualHostDefinition+0x180>
 804a6fc:	8b 85 f0 fe ff ff    	mov    -0x110(%ebp),%eax
 804a702:	89 74 24 04          	mov    %esi,0x4(%esp)
 804a706:	89 04 24             	mov    %eax,(%esp)
 804a709:	e8 4a e7 ff ff       	call   8048e58 <strcpy@plt>
 804a70e:	89 3c 24             	mov    %edi,(%esp)
 804a711:	e8 32 e7 ff ff       	call   8048e48 <feof@plt>
 804a716:	85 c0                	test   %eax,%eax
 804a718:	0f 84 53 ff ff ff    	je     804a671 <VirtualHostDefinition+0xc1>
 804a71e:	83 05 68 df 04 08 01 	addl   $0x1,0x804df68
 804a725:	81 c4 1c 01 00 00    	add    $0x11c,%esp
 804a72b:	5b                   	pop    %ebx
 804a72c:	5e                   	pop    %esi
 804a72d:	5f                   	pop    %edi
 804a72e:	5d                   	pop    %ebp
 804a72f:	c3                   	ret    
 804a730:	c7 44 24 04 50 b1 04 	movl   $0x804b150,0x4(%esp)
 804a737:	08 
 804a738:	89 1c 24             	mov    %ebx,(%esp)
 804a73b:	e8 e0 fc ff ff       	call   804a420 <gstricmp>
 804a740:	85 c0                	test   %eax,%eax
 804a742:	75 17                	jne    804a75b <VirtualHostDefinition+0x1ab>
 804a744:	8b 85 e0 fe ff ff    	mov    -0x120(%ebp),%eax
 804a74a:	89 74 24 04          	mov    %esi,0x4(%esp)
 804a74e:	89 04 24             	mov    %eax,(%esp)
 804a751:	e8 02 e7 ff ff       	call   8048e58 <strcpy@plt>
 804a756:	e9 06 ff ff ff       	jmp    804a661 <VirtualHostDefinition+0xb1>
 804a75b:	c7 44 24 04 5d b1 04 	movl   $0x804b15d,0x4(%esp)
 804a762:	08 
 804a763:	89 1c 24             	mov    %ebx,(%esp)
 804a766:	e8 b5 fc ff ff       	call   804a420 <gstricmp>
 804a76b:	85 c0                	test   %eax,%eax
 804a76d:	75 17                	jne    804a786 <VirtualHostDefinition+0x1d6>
 804a76f:	8b 85 e4 fe ff ff    	mov    -0x11c(%ebp),%eax
 804a775:	89 74 24 04          	mov    %esi,0x4(%esp)
 804a779:	89 04 24             	mov    %eax,(%esp)
 804a77c:	e8 d7 e6 ff ff       	call   8048e58 <strcpy@plt>
 804a781:	e9 db fe ff ff       	jmp    804a661 <VirtualHostDefinition+0xb1>
 804a786:	c7 44 24 04 69 b1 04 	movl   $0x804b169,0x4(%esp)
 804a78d:	08 
 804a78e:	89 1c 24             	mov    %ebx,(%esp)
 804a791:	e8 8a fc ff ff       	call   804a420 <gstricmp>
 804a796:	85 c0                	test   %eax,%eax
 804a798:	74 2f                	je     804a7c9 <VirtualHostDefinition+0x219>
 804a79a:	c7 44 24 04 73 b1 04 	movl   $0x804b173,0x4(%esp)
 804a7a1:	08 
 804a7a2:	89 1c 24             	mov    %ebx,(%esp)
 804a7a5:	e8 76 fc ff ff       	call   804a420 <gstricmp>
 804a7aa:	85 c0                	test   %eax,%eax
 804a7ac:	0f 85 af fe ff ff    	jne    804a661 <VirtualHostDefinition+0xb1>
 804a7b2:	8b 85 ec fe ff ff    	mov    -0x114(%ebp),%eax
 804a7b8:	89 74 24 04          	mov    %esi,0x4(%esp)
 804a7bc:	89 04 24             	mov    %eax,(%esp)
 804a7bf:	e8 94 e6 ff ff       	call   8048e58 <strcpy@plt>
 804a7c4:	e9 98 fe ff ff       	jmp    804a661 <VirtualHostDefinition+0xb1>
 804a7c9:	8b 85 e8 fe ff ff    	mov    -0x118(%ebp),%eax
 804a7cf:	89 74 24 04          	mov    %esi,0x4(%esp)
 804a7d3:	89 04 24             	mov    %eax,(%esp)
 804a7d6:	e8 7d e6 ff ff       	call   8048e58 <strcpy@plt>
 804a7db:	e9 81 fe ff ff       	jmp    804a661 <VirtualHostDefinition+0xb1>

0804a7e0 <readinconfig>:
 804a7e0:	55                   	push   %ebp
 804a7e1:	89 e5                	mov    %esp,%ebp
 804a7e3:	57                   	push   %edi
 804a7e4:	56                   	push   %esi
 804a7e5:	53                   	push   %ebx
 804a7e6:	81 ec 0c 01 00 00    	sub    $0x10c,%esp
 804a7ec:	c7 44 24 04 a6 b1 04 	movl   $0x804b1a6,0x4(%esp)
 804a7f3:	08 
 804a7f4:	c7 04 24 7e b1 04 08 	movl   $0x804b17e,(%esp)
 804a7fb:	e8 28 e6 ff ff       	call   8048e28 <fopen@plt>
 804a800:	85 c0                	test   %eax,%eax
 804a802:	89 c7                	mov    %eax,%edi
 804a804:	0f 84 b5 00 00 00    	je     804a8bf <readinconfig+0xdf>
 804a80a:	c7 05 68 df 04 08 00 	movl   $0x0,0x804df68
 804a811:	00 00 00 
 804a814:	89 3c 24             	mov    %edi,(%esp)
 804a817:	e8 2c e6 ff ff       	call   8048e48 <feof@plt>
 804a81c:	85 c0                	test   %eax,%eax
 804a81e:	0f 85 93 00 00 00    	jne    804a8b7 <readinconfig+0xd7>
 804a824:	8d 85 f5 fe ff ff    	lea    -0x10b(%ebp),%eax
 804a82a:	89 04 24             	mov    %eax,(%esp)
 804a82d:	89 7c 24 04          	mov    %edi,0x4(%esp)
 804a831:	e8 1a fd ff ff       	call   804a550 <getfileline>
 804a836:	89 3c 24             	mov    %edi,(%esp)
 804a839:	e8 0a e6 ff ff       	call   8048e48 <feof@plt>
 804a83e:	85 c0                	test   %eax,%eax
 804a840:	75 75                	jne    804a8b7 <readinconfig+0xd7>
 804a842:	8d 85 f5 fe ff ff    	lea    -0x10b(%ebp),%eax
 804a848:	c7 44 24 04 8f b1 04 	movl   $0x804b18f,0x4(%esp)
 804a84f:	08 
 804a850:	89 04 24             	mov    %eax,(%esp)
 804a853:	e8 c0 e6 ff ff       	call   8048f18 <strtok@plt>
 804a858:	c7 44 24 04 8f b1 04 	movl   $0x804b18f,0x4(%esp)
 804a85f:	08 
 804a860:	c7 04 24 00 00 00 00 	movl   $0x0,(%esp)
 804a867:	89 c3                	mov    %eax,%ebx
 804a869:	e8 aa e6 ff ff       	call   8048f18 <strtok@plt>
 804a86e:	85 db                	test   %ebx,%ebx
 804a870:	89 c6                	mov    %eax,%esi
 804a872:	74 a0                	je     804a814 <readinconfig+0x34>
 804a874:	0f b6 03             	movzbl (%ebx),%eax
 804a877:	3c 3c                	cmp    $0x3c,%al
 804a879:	74 04                	je     804a87f <readinconfig+0x9f>
 804a87b:	85 f6                	test   %esi,%esi
 804a87d:	74 95                	je     804a814 <readinconfig+0x34>
 804a87f:	3c 23                	cmp    $0x23,%al
 804a881:	74 91                	je     804a814 <readinconfig+0x34>
 804a883:	c7 44 24 04 93 b1 04 	movl   $0x804b193,0x4(%esp)
 804a88a:	08 
 804a88b:	89 1c 24             	mov    %ebx,(%esp)
 804a88e:	e8 8d fb ff ff       	call   804a420 <gstricmp>
 804a893:	85 c0                	test   %eax,%eax
 804a895:	75 33                	jne    804a8ca <readinconfig+0xea>
 804a897:	89 74 24 04          	mov    %esi,0x4(%esp)
 804a89b:	c7 04 24 40 c5 04 08 	movl   $0x804c540,(%esp)
 804a8a2:	e8 b1 e5 ff ff       	call   8048e58 <strcpy@plt>
 804a8a7:	89 3c 24             	mov    %edi,(%esp)
 804a8aa:	e8 99 e5 ff ff       	call   8048e48 <feof@plt>
 804a8af:	85 c0                	test   %eax,%eax
 804a8b1:	0f 84 6d ff ff ff    	je     804a824 <readinconfig+0x44>
 804a8b7:	89 3c 24             	mov    %edi,(%esp)
 804a8ba:	e8 29 e5 ff ff       	call   8048de8 <fclose@plt>
 804a8bf:	81 c4 0c 01 00 00    	add    $0x10c,%esp
 804a8c5:	5b                   	pop    %ebx
 804a8c6:	5e                   	pop    %esi
 804a8c7:	5f                   	pop    %edi
 804a8c8:	5d                   	pop    %ebp
 804a8c9:	c3                   	ret    
 804a8ca:	c7 44 24 04 50 b1 04 	movl   $0x804b150,0x4(%esp)
 804a8d1:	08 
 804a8d2:	89 1c 24             	mov    %ebx,(%esp)
 804a8d5:	e8 46 fb ff ff       	call   804a420 <gstricmp>
 804a8da:	85 c0                	test   %eax,%eax
 804a8dc:	74 29                	je     804a907 <readinconfig+0x127>
 804a8de:	c7 44 24 04 5d b1 04 	movl   $0x804b15d,0x4(%esp)
 804a8e5:	08 
 804a8e6:	89 1c 24             	mov    %ebx,(%esp)
 804a8e9:	e8 32 fb ff ff       	call   804a420 <gstricmp>
 804a8ee:	85 c0                	test   %eax,%eax
 804a8f0:	75 2a                	jne    804a91c <readinconfig+0x13c>
 804a8f2:	89 74 24 04          	mov    %esi,0x4(%esp)
 804a8f6:	c7 04 24 7e e1 04 08 	movl   $0x804e17e,(%esp)
 804a8fd:	e8 56 e5 ff ff       	call   8048e58 <strcpy@plt>
 804a902:	e9 0d ff ff ff       	jmp    804a814 <readinconfig+0x34>
 804a907:	89 74 24 04          	mov    %esi,0x4(%esp)
 804a90b:	c7 04 24 7f e0 04 08 	movl   $0x804e07f,(%esp)
 804a912:	e8 41 e5 ff ff       	call   8048e58 <strcpy@plt>
 804a917:	e9 f8 fe ff ff       	jmp    804a814 <readinconfig+0x34>
 804a91c:	c7 44 24 04 69 b1 04 	movl   $0x804b169,0x4(%esp)
 804a923:	08 
 804a924:	89 1c 24             	mov    %ebx,(%esp)
 804a927:	e8 f4 fa ff ff       	call   804a420 <gstricmp>
 804a92c:	85 c0                	test   %eax,%eax
 804a92e:	74 29                	je     804a959 <readinconfig+0x179>
 804a930:	c7 44 24 04 73 b1 04 	movl   $0x804b173,0x4(%esp)
 804a937:	08 
 804a938:	89 1c 24             	mov    %ebx,(%esp)
 804a93b:	e8 e0 fa ff ff       	call   804a420 <gstricmp>
 804a940:	85 c0                	test   %eax,%eax
 804a942:	75 2a                	jne    804a96e <readinconfig+0x18e>
 804a944:	89 74 24 04          	mov    %esi,0x4(%esp)
 804a948:	c7 04 24 7c e3 04 08 	movl   $0x804e37c,(%esp)
 804a94f:	e8 04 e5 ff ff       	call   8048e58 <strcpy@plt>
 804a954:	e9 bb fe ff ff       	jmp    804a814 <readinconfig+0x34>
 804a959:	89 74 24 04          	mov    %esi,0x4(%esp)
 804a95d:	c7 04 24 7d e2 04 08 	movl   $0x804e27d,(%esp)
 804a964:	e8 ef e4 ff ff       	call   8048e58 <strcpy@plt>
 804a969:	e9 a6 fe ff ff       	jmp    804a814 <readinconfig+0x34>
 804a96e:	c7 44 24 04 9e b1 04 	movl   $0x804b19e,0x4(%esp)
 804a975:	08 
 804a976:	89 1c 24             	mov    %ebx,(%esp)
 804a979:	e8 a2 fa ff ff       	call   804a420 <gstricmp>
 804a97e:	85 c0                	test   %eax,%eax
 804a980:	74 29                	je     804a9ab <readinconfig+0x1cb>
 804a982:	c7 44 24 04 a9 b1 04 	movl   $0x804b1a9,0x4(%esp)
 804a989:	08 
 804a98a:	89 1c 24             	mov    %ebx,(%esp)
 804a98d:	e8 8e fa ff ff       	call   804a420 <gstricmp>
 804a992:	85 c0                	test   %eax,%eax
 804a994:	75 37                	jne    804a9cd <readinconfig+0x1ed>
 804a996:	89 74 24 04          	mov    %esi,0x4(%esp)
 804a99a:	c7 04 24 40 c4 04 08 	movl   $0x804c440,(%esp)
 804a9a1:	e8 b2 e4 ff ff       	call   8048e58 <strcpy@plt>
 804a9a6:	e9 69 fe ff ff       	jmp    804a814 <readinconfig+0x34>
 804a9ab:	c7 44 24 08 0a 00 00 	movl   $0xa,0x8(%esp)
 804a9b2:	00 
 804a9b3:	c7 44 24 04 00 00 00 	movl   $0x0,0x4(%esp)
 804a9ba:	00 
 804a9bb:	89 34 24             	mov    %esi,(%esp)
 804a9be:	e8 b5 e3 ff ff       	call   8048d78 <strtol@plt>
 804a9c3:	a3 20 c4 04 08       	mov    %eax,0x804c420
 804a9c8:	e9 47 fe ff ff       	jmp    804a814 <readinconfig+0x34>
 804a9cd:	c7 44 24 04 b4 b1 04 	movl   $0x804b1b4,0x4(%esp)
 804a9d4:	08 
 804a9d5:	89 1c 24             	mov    %ebx,(%esp)
 804a9d8:	e8 43 fa ff ff       	call   804a420 <gstricmp>
 804a9dd:	85 c0                	test   %eax,%eax
 804a9df:	75 0d                	jne    804a9ee <readinconfig+0x20e>
 804a9e1:	89 3c 24             	mov    %edi,(%esp)
 804a9e4:	e8 c7 fb ff ff       	call   804a5b0 <VirtualHostDefinition>
 804a9e9:	e9 26 fe ff ff       	jmp    804a814 <readinconfig+0x34>
 804a9ee:	89 5c 24 04          	mov    %ebx,0x4(%esp)
 804a9f2:	c7 04 24 d8 b1 04 08 	movl   $0x804b1d8,(%esp)
 804a9f9:	e8 7a e4 ff ff       	call   8048e78 <printf@plt>
 804a9fe:	e9 11 fe ff ff       	jmp    804a814 <readinconfig+0x34>
 804aa03:	8d b6 00 00 00 00    	lea    0x0(%esi),%esi
 804aa09:	8d bc 27 00 00 00 00 	lea    0x0(%edi),%edi

0804aa10 <count_vhosts>:
 804aa10:	55                   	push   %ebp
 804aa11:	89 e5                	mov    %esp,%ebp
 804aa13:	57                   	push   %edi
 804aa14:	31 ff                	xor    %edi,%edi
 804aa16:	56                   	push   %esi
 804aa17:	53                   	push   %ebx
 804aa18:	81 ec 0c 01 00 00    	sub    $0x10c,%esp
 804aa1e:	c7 44 24 04 a6 b1 04 	movl   $0x804b1a6,0x4(%esp)
 804aa25:	08 
 804aa26:	8d b5 f5 fe ff ff    	lea    -0x10b(%ebp),%esi
 804aa2c:	c7 04 24 7e b1 04 08 	movl   $0x804b17e,(%esp)
 804aa33:	e8 f0 e3 ff ff       	call   8048e28 <fopen@plt>
 804aa38:	85 c0                	test   %eax,%eax
 804aa3a:	89 c3                	mov    %eax,%ebx
 804aa3c:	74 7c                	je     804aaba <count_vhosts+0xaa>
 804aa3e:	66 90                	xchg   %ax,%ax
 804aa40:	89 1c 24             	mov    %ebx,(%esp)
 804aa43:	e8 00 e4 ff ff       	call   8048e48 <feof@plt>
 804aa48:	85 c0                	test   %eax,%eax
 804aa4a:	75 66                	jne    804aab2 <count_vhosts+0xa2>
 804aa4c:	c7 44 24 08 ff 00 00 	movl   $0xff,0x8(%esp)
 804aa53:	00 
 804aa54:	c7 44 24 04 00 00 00 	movl   $0x0,0x4(%esp)
 804aa5b:	00 
 804aa5c:	89 34 24             	mov    %esi,(%esp)
 804aa5f:	e8 d4 e2 ff ff       	call   8048d38 <memset@plt>
 804aa64:	89 5c 24 04          	mov    %ebx,0x4(%esp)
 804aa68:	89 34 24             	mov    %esi,(%esp)
 804aa6b:	e8 e0 fa ff ff       	call   804a550 <getfileline>
 804aa70:	89 1c 24             	mov    %ebx,(%esp)
 804aa73:	e8 d0 e3 ff ff       	call   8048e48 <feof@plt>
 804aa78:	85 c0                	test   %eax,%eax
 804aa7a:	75 36                	jne    804aab2 <count_vhosts+0xa2>
 804aa7c:	c7 44 24 04 c2 b1 04 	movl   $0x804b1c2,0x4(%esp)
 804aa83:	08 
 804aa84:	89 34 24             	mov    %esi,(%esp)
 804aa87:	e8 8c e4 ff ff       	call   8048f18 <strtok@plt>
 804aa8c:	85 c0                	test   %eax,%eax
 804aa8e:	74 b0                	je     804aa40 <count_vhosts+0x30>
 804aa90:	c7 44 24 04 c7 b1 04 	movl   $0x804b1c7,0x4(%esp)
 804aa97:	08 
 804aa98:	89 04 24             	mov    %eax,(%esp)
 804aa9b:	e8 80 f9 ff ff       	call   804a420 <gstricmp>
 804aaa0:	89 1c 24             	mov    %ebx,(%esp)
 804aaa3:	83 f8 01             	cmp    $0x1,%eax
 804aaa6:	83 d7 00             	adc    $0x0,%edi
 804aaa9:	e8 9a e3 ff ff       	call   8048e48 <feof@plt>
 804aaae:	85 c0                	test   %eax,%eax
 804aab0:	74 9a                	je     804aa4c <count_vhosts+0x3c>
 804aab2:	89 1c 24             	mov    %ebx,(%esp)
 804aab5:	e8 2e e3 ff ff       	call   8048de8 <fclose@plt>
 804aaba:	81 c4 0c 01 00 00    	add    $0x10c,%esp
 804aac0:	89 f8                	mov    %edi,%eax
 804aac2:	5b                   	pop    %ebx
 804aac3:	5e                   	pop    %esi
 804aac4:	5f                   	pop    %edi
 804aac5:	5d                   	pop    %ebp
 804aac6:	c3                   	ret    
 804aac7:	89 f6                	mov    %esi,%esi
 804aac9:	8d bc 27 00 00 00 00 	lea    0x0(%edi),%edi

0804aad0 <does_file_exist>:
 804aad0:	55                   	push   %ebp
 804aad1:	89 e5                	mov    %esp,%ebp
 804aad3:	53                   	push   %ebx
 804aad4:	83 ec 74             	sub    $0x74,%esp
 804aad7:	8b 5d 08             	mov    0x8(%ebp),%ebx
 804aada:	8d 45 a4             	lea    -0x5c(%ebp),%eax
 804aadd:	89 44 24 08          	mov    %eax,0x8(%esp)
 804aae1:	c7 04 24 03 00 00 00 	movl   $0x3,(%esp)
 804aae8:	89 5c 24 04          	mov    %ebx,0x4(%esp)
 804aaec:	e8 c7 e1 ff ff       	call   8048cb8 <__xstat@plt>
 804aaf1:	31 d2                	xor    %edx,%edx
 804aaf3:	85 c0                	test   %eax,%eax
 804aaf5:	74 09                	je     804ab00 <does_file_exist+0x30>
 804aaf7:	83 c4 74             	add    $0x74,%esp
 804aafa:	89 d0                	mov    %edx,%eax
 804aafc:	5b                   	pop    %ebx
 804aafd:	5d                   	pop    %ebp
 804aafe:	c3                   	ret    
 804aaff:	90                   	nop    
 804ab00:	89 1c 24             	mov    %ebx,(%esp)
 804ab03:	e8 d8 f9 ff ff       	call   804a4e0 <isDirectory>
 804ab08:	31 d2                	xor    %edx,%edx
 804ab0a:	85 c0                	test   %eax,%eax
 804ab0c:	0f 94 c2             	sete   %dl
 804ab0f:	83 c4 74             	add    $0x74,%esp
 804ab12:	5b                   	pop    %ebx
 804ab13:	89 d0                	mov    %edx,%eax
 804ab15:	5d                   	pop    %ebp
 804ab16:	c3                   	ret    
 804ab17:	90                   	nop    
 804ab18:	90                   	nop    
 804ab19:	90                   	nop    
 804ab1a:	90                   	nop    
 804ab1b:	90                   	nop    
 804ab1c:	90                   	nop    
 804ab1d:	90                   	nop    
 804ab1e:	90                   	nop    
 804ab1f:	90                   	nop    

0804ab20 <__libc_csu_fini>:
 804ab20:	55                   	push   %ebp
 804ab21:	89 e5                	mov    %esp,%ebp
 804ab23:	5d                   	pop    %ebp
 804ab24:	c3                   	ret    
 804ab25:	8d 74 26 00          	lea    0x0(%esi),%esi
 804ab29:	8d bc 27 00 00 00 00 	lea    0x0(%edi),%edi

0804ab30 <__libc_csu_init>:
 804ab30:	55                   	push   %ebp
 804ab31:	89 e5                	mov    %esp,%ebp
 804ab33:	57                   	push   %edi
 804ab34:	56                   	push   %esi
 804ab35:	53                   	push   %ebx
 804ab36:	e8 4f 00 00 00       	call   804ab8a <__i686.get_pc_thunk.bx>
 804ab3b:	81 c3 b9 17 00 00    	add    $0x17b9,%ebx
 804ab41:	83 ec 0c             	sub    $0xc,%esp
 804ab44:	e8 bf e0 ff ff       	call   8048c08 <_init>
 804ab49:	8d bb 18 ff ff ff    	lea    -0xe8(%ebx),%edi
 804ab4f:	8d 83 18 ff ff ff    	lea    -0xe8(%ebx),%eax
 804ab55:	29 c7                	sub    %eax,%edi
 804ab57:	c1 ff 02             	sar    $0x2,%edi
 804ab5a:	85 ff                	test   %edi,%edi
 804ab5c:	74 24                	je     804ab82 <__libc_csu_init+0x52>
 804ab5e:	31 f6                	xor    %esi,%esi
 804ab60:	8b 45 10             	mov    0x10(%ebp),%eax
 804ab63:	89 44 24 08          	mov    %eax,0x8(%esp)
 804ab67:	8b 45 0c             	mov    0xc(%ebp),%eax
 804ab6a:	89 44 24 04          	mov    %eax,0x4(%esp)
 804ab6e:	8b 45 08             	mov    0x8(%ebp),%eax
 804ab71:	89 04 24             	mov    %eax,(%esp)
 804ab74:	ff 94 b3 18 ff ff ff 	call   *-0xe8(%ebx,%esi,4)
 804ab7b:	83 c6 01             	add    $0x1,%esi
 804ab7e:	39 f7                	cmp    %esi,%edi
 804ab80:	75 de                	jne    804ab60 <__libc_csu_init+0x30>
 804ab82:	83 c4 0c             	add    $0xc,%esp
 804ab85:	5b                   	pop    %ebx
 804ab86:	5e                   	pop    %esi
 804ab87:	5f                   	pop    %edi
 804ab88:	5d                   	pop    %ebp
 804ab89:	c3                   	ret    

0804ab8a <__i686.get_pc_thunk.bx>:
 804ab8a:	8b 1c 24             	mov    (%esp),%ebx
 804ab8d:	c3                   	ret    
 804ab8e:	90                   	nop    
 804ab8f:	90                   	nop    

0804ab90 <__do_global_ctors_aux>:
 804ab90:	55                   	push   %ebp
 804ab91:	89 e5                	mov    %esp,%ebp
 804ab93:	53                   	push   %ebx
 804ab94:	83 ec 04             	sub    $0x4,%esp
 804ab97:	a1 0c c2 04 08       	mov    0x804c20c,%eax
 804ab9c:	83 f8 ff             	cmp    $0xffffffff,%eax
 804ab9f:	74 12                	je     804abb3 <__do_global_ctors_aux+0x23>
 804aba1:	31 db                	xor    %ebx,%ebx
 804aba3:	ff d0                	call   *%eax
 804aba5:	8b 83 08 c2 04 08    	mov    0x804c208(%ebx),%eax
 804abab:	83 eb 04             	sub    $0x4,%ebx
 804abae:	83 f8 ff             	cmp    $0xffffffff,%eax
 804abb1:	75 f0                	jne    804aba3 <__do_global_ctors_aux+0x13>
 804abb3:	83 c4 04             	add    $0x4,%esp
 804abb6:	5b                   	pop    %ebx
 804abb7:	5d                   	pop    %ebp
 804abb8:	c3                   	ret    
 804abb9:	90                   	nop    
 804abba:	90                   	nop    
 804abbb:	90                   	nop    
Disassembly of section .fini:

0804abbc <_fini>:
 804abbc:	55                   	push   %ebp
 804abbd:	89 e5                	mov    %esp,%ebp
 804abbf:	53                   	push   %ebx
 804abc0:	83 ec 04             	sub    $0x4,%esp
 804abc3:	e8 00 00 00 00       	call   804abc8 <_fini+0xc>
 804abc8:	5b                   	pop    %ebx
 804abc9:	81 c3 2c 17 00 00    	add    $0x172c,%ebx
 804abcf:	e8 8c e4 ff ff       	call   8049060 <__do_global_dtors_aux>
 804abd4:	59                   	pop    %ecx
 804abd5:	5b                   	pop    %ebx
 804abd6:	c9                   	leave  
 804abd7:	c3                   	ret    